(dp0
VAUS0000289
p1
ccopy_reg
_reconstructor
p2
(cpowerwatch
PowerPlant
p3
c__builtin__
object
p4
Ntp5
Rp6
(dp7
S'coord_source'
p8
V
p9
sS'capacity'
p10
F4.0
sS'name'
p11
VTeralba
p12
sS'commissioning_year'
p13
NsS'url'
p14
Vhttp://services.ga.gov.au/site_3/rest/services/Electricity_Infrastructure/MapServer
p15
sS'country'
p16
VAustralia
p17
sS'nat_lang'
p18
g9
sS'idnr'
p19
g1
sS'generation'
p20
(lp21
g2
(cpowerwatch
PlantGenerationObject
p22
g4
Ntp23
Rp24
(dp25
S'source'
p26
g9
sS'gwh'
p27
NsS'end_date'
p28
NsS'start_date'
p29
Nsbasg26
VAustralian Renewable Energy Mapping Infrastructure
p30
sS'fuel'
p31
c__builtin__
set
p32
((lp33
VGas
p34
atp35
Rp36
sS'owner'
p37
VEnviroGen Pty Ltd
p38
sS'cap_year'
p39
I2012
sS'location'
p40
g2
(cpowerwatch
LocationObject
p41
g4
Ntp42
Rp43
(dp44
S'latitude'
p45
F-32.94548999999995
sS'description'
p46
g9
sS'longitude'
p47
F151.6119070000001
sbsbsVAUS0000288
p48
g2
(g3
g4
Ntp49
Rp50
(dp51
g8
g9
sg10
F420.0
sg11
VTallawarra
p52
sg13
Nsg14
g15
sg16
g17
sg18
g9
sg19
g48
sg20
(lp53
g2
(g22
g4
Ntp54
Rp55
(dp56
g26
g9
sg27
Nsg28
Nsg29
Nsbasg26
g30
sg31
g32
((lp57
g34
atp58
Rp59
sg37
VTRUenergy
p60
sg39
I2012
sg40
g2
(g41
g4
Ntp61
Rp62
(dp63
g45
F-34.52277799999996
sg46
g9
sg47
F150.80805600000008
sbsbsVAUS0000283
p64
g2
(g3
g4
Ntp65
Rp66
(dp67
g8
g9
sg10
F33.6
sg11
VNymboida
p68
sg13
Nsg14
g15
sg16
g17
sg18
g9
sg19
g64
sg20
(lp69
g2
(g22
g4
Ntp70
Rp71
(dp72
g26
g9
sg27
Nsg28
Nsg29
Nsbasg26
g30
sg31
g32
((lp73
VHydro
p74
atp75
Rp76
sg37
VEssential Energy
p77
sg39
I2012
sg40
g2
(g41
g4
Ntp78
Rp79
(dp80
g45
F-29.925737999999967
sg46
g9
sg47
F152.74170800000002
sbsbsVAUS0000282
p81
g2
(g3
g4
Ntp82
Rp83
(dp84
g8
g9
sg10
F600.0
sg11
VMunmorah
p85
sg13
Nsg14
g15
sg16
g17
sg18
g9
sg19
g81
sg20
(lp86
g2
(g22
g4
Ntp87
Rp88
(dp89
g26
g9
sg27
Nsg28
Nsg29
Nsbasg26
g30
sg31
g32
((lp90
VCoal
p91
atp92
Rp93
sg37
VDelta Electricity
p94
sg39
I2012
sg40
g2
(g41
g4
Ntp95
Rp96
(dp97
g45
F-33.21169099999997
sg46
g9
sg47
F151.5418370000001
sbsbsVAUS0000281
p98
g2
(g3
g4
Ntp99
Rp100
(dp101
g8
g9
sg10
F1400.0
sg11
VMt Piper
p102
sg13
Nsg14
g15
sg16
g17
sg18
g9
sg19
g98
sg20
(lp103
g2
(g22
g4
Ntp104
Rp105
(dp106
g26
g9
sg27
Nsg28
Nsg29
Nsbasg26
g30
sg31
g32
((lp107
g91
atp108
Rp109
sg37
VDelta
p110
sg39
I2012
sg40
g2
(g41
g4
Ntp111
Rp112
(dp113
g45
F-33.35889199999997
sg46
g9
sg47
F150.03132200000005
sbsbsVAUS0000280
p114
g2
(g3
g4
Ntp115
Rp116
(dp117
g8
g9
sg10
F2000.0
sg11
VLiddell
p118
sg13
Nsg14
g15
sg16
g17
sg18
g9
sg19
g114
sg20
(lp119
g2
(g22
g4
Ntp120
Rp121
(dp122
g26
g9
sg27
Nsg28
Nsg29
Nsbasg26
g30
sg31
g32
((lp123
g91
atp124
Rp125
sg37
VMacquarie Generation
p126
sg39
I2012
sg40
g2
(g41
g4
Ntp127
Rp128
(dp129
g45
F-32.37126699999993
sg46
g9
sg47
F150.97757000000001
sbsbsVAUS0000287
p130
g2
(g3
g4
Ntp131
Rp132
(dp133
g8
g9
sg10
F7.0
sg11
VTahmoor
p134
sg13
Nsg14
g15
sg16
g17
sg18
g9
sg19
g130
sg20
(lp135
g2
(g22
g4
Ntp136
Rp137
(dp138
g26
g9
sg27
Nsg28
Nsg29
Nsbasg26
g30
sg31
g32
((lp139
g34
atp140
Rp141
sg37
VEnviroGen Pty Ltd
p142
sg39
I2012
sg40
g2
(g41
g4
Ntp143
Rp144
(dp145
g45
F-34.24823299999997
sg46
g9
sg47
F150.58077000000003
sbsbsVAUS0000286
p146
g2
(g3
g4
Ntp147
Rp148
(dp149
g8
g9
sg10
F170.9
sg11
VSmithfield Energy
p150
sg13
Nsg14
g15
sg16
g17
sg18
g9
sg19
g146
sg20
(lp151
g2
(g22
g4
Ntp152
Rp153
(dp154
g26
g9
sg27
Nsg28
Nsg29
Nsbasg26
g30
sg31
g32
((lp155
g34
atp156
Rp157
sg37
VMarubeni Australia Power Services
p158
sg39
I2012
sg40
g2
(g41
g4
Ntp159
Rp160
(dp161
g45
F-33.85003999999998
sg46
g9
sg47
F150.94946600000003
sbsbsVAUS0000285
p162
g2
(g3
g4
Ntp163
Rp164
(dp165
g8
g9
sg10
F143.8
sg11
VRedbank
p166
sg13
Nsg14
g15
sg16
g17
sg18
g9
sg19
g162
sg20
(lp167
g2
(g22
g4
Ntp168
Rp169
(dp170
g26
g9
sg27
Nsg28
Nsg29
Nsbasg26
g30
sg31
g32
((lp171
g91
atp172
Rp173
sg37
VRedbank Energy Ltd
p174
sg39
I2012
sg40
g2
(g41
g4
Ntp175
Rp176
(dp177
g45
F-32.580205999999976
sg46
g9
sg47
F151.07193600000005
sbsbsVAUS0000284
p178
g2
(g3
g4
Ntp179
Rp180
(dp181
g8
g9
sg10
F4.8
sg11
VOaky
p182
sg13
Nsg14
g15
sg16
g17
sg18
g9
sg19
g178
sg20
(lp183
g2
(g22
g4
Ntp184
Rp185
(dp186
g26
g9
sg27
Nsg28
Nsg29
Nsbasg26
g30
sg31
g32
((lp187
g74
atp188
Rp189
sg37
VEssential Energy
p190
sg39
I2012
sg40
g2
(g41
g4
Ntp191
Rp192
(dp193
g45
F-30.575118999999972
sg46
g9
sg47
F152.06897000000004
sbsbsVAUS0000148
p194
g2
(g3
g4
Ntp195
Rp196
(dp197
g8
g9
sg10
F480.0
sg11
VSwanbank B
p198
sg13
Nsg14
g15
sg16
g17
sg18
g9
sg19
g194
sg20
(lp199
g2
(g22
g4
Ntp200
Rp201
(dp202
g26
g9
sg27
Nsg28
Nsg29
Nsbasg26
g30
sg31
g32
((lp203
g91
atp204
Rp205
sg37
VCS Energy
p206
sg39
I2012
sg40
g2
(g41
g4
Ntp207
Rp208
(dp209
g45
F-27.660064999999975
sg46
g9
sg47
F152.81445200000007
sbsbsVAUS0000260
p210
g2
(g3
g4
Ntp211
Rp212
(dp213
g8
g9
sg10
F86.0
sg11
VWeddell
p214
sg13
Nsg14
g15
sg16
g17
sg18
g9
sg19
g210
sg20
(lp215
g2
(g22
g4
Ntp216
Rp217
(dp218
g26
g9
sg27
Nsg28
Nsg29
Nsbasg26
g30
sg31
g32
((lp219
g34
atp220
Rp221
sg37
VNT Power and Water
p222
sg39
I2012
sg40
g2
(g41
g4
Ntp223
Rp224
(dp225
g45
F-12.577195999999958
sg46
g9
sg47
F130.95022600000004
sbsbsVAUS0000405
p226
g2
(g3
g4
Ntp227
Rp228
(dp229
g8
g9
sg10
F1.7
sg11
VKalbarri Wind Farm
p230
sg13
Nsg14
g15
sg16
g17
sg18
g9
sg19
g226
sg20
(lp231
g2
(g22
g4
Ntp232
Rp233
(dp234
g26
g9
sg27
Nsg28
Nsg29
Nsbasg26
g30
sg31
g32
((lp235
VWind
p236
atp237
Rp238
sg37
VVerve Energy
p239
sg39
I2012
sg40
g2
(g41
g4
Ntp240
Rp241
(dp242
g45
F-27.899498532999928
sg46
g9
sg47
F114.19455166500006
sbsbsVAUS0000404
p243
g2
(g3
g4
Ntp244
Rp245
(dp246
g8
g9
sg10
F0.6
sg11
VKooragang
p247
sg13
Nsg14
g15
sg16
g17
sg18
g9
sg19
g243
sg20
(lp248
g2
(g22
g4
Ntp249
Rp250
(dp251
g26
g9
sg27
Nsg28
Nsg29
Nsbasg26
g30
sg31
g32
((lp252
g236
atp253
Rp254
sg37
VAusgrid
p255
sg39
I2012
sg40
g2
(g41
g4
Ntp256
Rp257
(dp258
g45
F-32.87728143199996
sg46
g9
sg47
F151.74776777500006
sbsbsVAUS0000407
p259
g2
(g3
g4
Ntp260
Rp261
(dp262
g8
g9
sg10
F10.8
sg11
VSavannah Nickel Mine
p263
sg13
Nsg14
g15
sg16
g17
sg18
g9
sg19
g259
sg20
(lp264
g2
(g22
g4
Ntp265
Rp266
(dp267
g26
g9
sg27
Nsg28
Nsg29
Nsbasg26
g30
sg31
g32
((lp268
VOil
p269
atp270
Rp271
sg37
VContract Power
p272
sg39
I2012
sg40
g2
(g41
g4
Ntp273
Rp274
(dp275
g45
F-17.363095358999942
sg46
g9
sg47
F128.03307638
sbsbsVAUS0000406
p276
g2
(g3
g4
Ntp277
Rp278
(dp279
g8
g9
sg10
F13.7
sg11
VWodgina
p280
sg13
Nsg14
g15
sg16
g17
sg18
g9
sg19
g276
sg20
(lp281
g2
(g22
g4
Ntp282
Rp283
(dp284
g26
g9
sg27
Nsg28
Nsg29
Nsbasg26
g30
sg31
g32
((lp285
g34
atp286
Rp287
sg37
VEnergy Developments Ltd
p288
sg39
I2012
sg40
g2
(g41
g4
Ntp289
Rp290
(dp291
g45
F-21.173883386999933
sg46
g9
sg47
F118.67472103500006
sbsbsVAUS0000401
p292
g2
(g3
g4
Ntp293
Rp294
(dp295
g8
g9
sg10
F2.8
sg11
VCharlestown Square
p296
sg13
Nsg14
g15
sg16
g17
sg18
g9
sg19
g292
sg20
(lp297
g2
(g22
g4
Ntp298
Rp299
(dp300
g26
g9
sg27
Nsg28
Nsg29
Nsbasg26
g30
sg31
g32
((lp301
g34
atp302
Rp303
sg37
VGPT RE Limited
p304
sg39
I2012
sg40
g2
(g41
g4
Ntp305
Rp306
(dp307
g45
F-32.96425537599998
sg46
g9
sg47
F151.69361251600003
sbsbsVAUS0000400
p308
g2
(g3
g4
Ntp309
Rp310
(dp311
g8
g9
sg10
F1.0
sg11
VBelconnen
p312
sg13
Nsg14
g15
sg16
g17
sg18
g9
sg19
g308
sg20
(lp313
g2
(g22
g4
Ntp314
Rp315
(dp316
g26
g9
sg27
Nsg28
Nsg29
Nsbasg26
g30
sg31
g32
((lp317
VWaste
p318
atp319
Rp320
sg37
VEDL LFG ACT Pty Ltd
p321
sg39
I2012
sg40
g2
(g41
g4
Ntp322
Rp323
(dp324
g45
F-35.21418943599997
sg46
g9
sg47
F148.9872183870001
sbsbsVAUS0000379
p325
g2
(g3
g4
Ntp326
Rp327
(dp328
g8
g9
sg10
F0.8
sg11
VArdyaloon
p329
sg13
Nsg14
g15
sg16
g17
sg18
g9
sg19
g325
sg20
(lp330
g2
(g22
g4
Ntp331
Rp332
(dp333
g26
g9
sg27
Nsg28
Nsg29
Nsbasg26
g30
sg31
g32
((lp334
g269
atp335
Rp336
sg37
VEnergy Developments Ltd
p337
sg39
I2012
sg40
g2
(g41
g4
Ntp338
Rp339
(dp340
g45
F-16.44441722099998
sg46
g9
sg47
F123.04137384300009
sbsbsVAUS0000378
p341
g2
(g3
g4
Ntp342
Rp343
(dp344
g8
g9
sg10
F0.7
sg11
VKalumburu
p345
sg13
Nsg14
g15
sg16
g17
sg18
g9
sg19
g341
sg20
(lp346
g2
(g22
g4
Ntp347
Rp348
(dp349
g26
g9
sg27
Nsg28
Nsg29
Nsbasg26
g30
sg31
g32
((lp350
g269
atp351
Rp352
sg37
g9
sg39
I2012
sg40
g2
(g41
g4
Ntp353
Rp354
(dp355
g45
F-14.293855534999977
sg46
g9
sg47
F126.64395522900008
sbsbsVAUS0000377
p356
g2
(g3
g4
Ntp357
Rp358
(dp359
g8
g9
sg10
F0.5
sg11
VTatiara Meats
p360
sg13
Nsg14
g15
sg16
g17
sg18
g9
sg19
g356
sg20
(lp361
g2
(g22
g4
Ntp362
Rp363
(dp364
g26
g9
sg27
Nsg28
Nsg29
Nsbasg26
g30
sg31
g32
((lp365
g269
atp366
Rp367
sg37
VVibe Energy Pty Ltd
p368
sg39
I2012
sg40
g2
(g41
g4
Ntp369
Rp370
(dp371
g45
F-36.32655638699998
sg46
g9
sg47
F140.73676935800006
sbsbsVAUS0000140
p372
g2
(g3
g4
Ntp373
Rp374
(dp375
g8
g9
sg10
F32.0
sg11
VWilmot
p376
sg13
Nsg14
g15
sg16
g17
sg18
g9
sg19
g372
sg20
(lp377
g2
(g22
g4
Ntp378
Rp379
(dp380
g26
g9
sg27
Nsg28
Nsg29
Nsbasg26
g30
sg31
g32
((lp381
g74
atp382
Rp383
sg37
VHydro-Electric Corporation (Tasmania)
p384
sg39
I2012
sg40
g2
(g41
g4
Ntp385
Rp386
(dp387
g45
F-41.483311999999955
sg46
g9
sg47
F146.12507300000004
sbsbsVAUS0000375
p388
g2
(g3
g4
Ntp389
Rp390
(dp391
g8
g9
sg10
F13.0
sg11
VMulgrave
p392
sg13
Nsg14
g15
sg16
g17
sg18
g9
sg19
g388
sg20
(lp393
g2
(g22
g4
Ntp394
Rp395
(dp396
g26
g9
sg27
Nsg28
Nsg29
Nsbasg26
g30
sg31
g32
((lp397
VBiomass
p398
atp399
Rp400
sg37
VMSF Sugar
p401
sg39
I2012
sg40
g2
(g41
g4
Ntp402
Rp403
(dp404
g45
F-17.09316550099993
sg46
g9
sg47
F145.78871140400008
sbsbsVAUS0000374
p405
g2
(g3
g4
Ntp406
Rp407
(dp408
g8
g9
sg10
F20.0
sg11
VSouth Johnstone
p409
sg13
Nsg14
g15
sg16
g17
sg18
g9
sg19
g405
sg20
(lp410
g2
(g22
g4
Ntp411
Rp412
(dp413
g26
g9
sg27
Nsg28
Nsg29
Nsbasg26
g30
sg31
g32
((lp414
g398
atp415
Rp416
sg37
VMSF Sugar
p417
sg39
I2012
sg40
g2
(g41
g4
Ntp418
Rp419
(dp420
g45
F-17.605685131999962
sg46
g9
sg47
F145.99100041600002
sbsbsVAUS0000373
p421
g2
(g3
g4
Ntp422
Rp423
(dp424
g8
g9
sg10
F7.0
sg11
VTableland
p425
sg13
Nsg14
g15
sg16
g17
sg18
g9
sg19
g421
sg20
(lp426
g2
(g22
g4
Ntp427
Rp428
(dp429
g26
g9
sg27
Nsg28
Nsg29
Nsbasg26
g30
sg31
g32
((lp430
g398
atp431
Rp432
sg37
VMSF Sugar
p433
sg39
I2012
sg40
g2
(g41
g4
Ntp434
Rp435
(dp436
g45
F-17.119292186999928
sg46
g9
sg47
F145.34496992100003
sbsbsVAUS0000372
p437
g2
(g3
g4
Ntp438
Rp439
(dp440
g8
g9
sg10
F8.0
sg11
VExmouth
p441
sg13
Nsg14
g15
sg16
g17
sg18
g9
sg19
g437
sg20
(lp442
g2
(g22
g4
Ntp443
Rp444
(dp445
g26
g9
sg27
Nsg28
Nsg29
Nsbasg26
g30
sg31
g32
((lp446
g34
atp447
Rp448
sg37
VBurns and Roe Worley
p449
sg39
I2012
sg40
g2
(g41
g4
Ntp450
Rp451
(dp452
g45
F-21.946457949999967
sg46
g9
sg47
F114.12499812400006
sbsbsVAUS0000371
p453
g2
(g3
g4
Ntp454
Rp455
(dp456
g8
g9
sg10
F1.5
sg11
VLaverton
p457
sg13
Nsg14
g15
sg16
g17
sg18
g9
sg19
g453
sg20
(lp458
g2
(g22
g4
Ntp459
Rp460
(dp461
g26
g9
sg27
Nsg28
Nsg29
Nsbasg26
g30
sg31
g32
((lp462
g269
atp463
Rp464
sg37
VEnergy Developments
p465
sg39
I2012
sg40
g2
(g41
g4
Ntp466
Rp467
(dp468
g45
F-28.62162366399997
sg46
g9
sg47
F122.39646804400002
sbsbsVAUS0000268
p469
g2
(g3
g4
Ntp470
Rp471
(dp472
g8
g9
sg10
F30.0
sg11
VBroadwater
p473
sg13
Nsg14
g15
sg16
g17
sg18
g9
sg19
g469
sg20
(lp474
g2
(g22
g4
Ntp475
Rp476
(dp477
g26
g9
sg27
Nsg28
Nsg29
Nsbasg26
g30
sg31
g32
((lp478
g398
atp479
Rp480
sg37
VNSW Sugar Milling
p481
sg39
I2012
sg40
g2
(g41
g4
Ntp482
Rp483
(dp484
g45
F-29.01182799999998
sg46
g9
sg47
F153.43348100000003
sbsbsVAUS0000179
p485
g2
(g3
g4
Ntp486
Rp487
(dp488
g8
g9
sg10
F190.0
sg11
VCollinsville
p489
sg13
Nsg14
g15
sg16
g17
sg18
g9
sg19
g485
sg20
(lp490
g2
(g22
g4
Ntp491
Rp492
(dp493
g26
g9
sg27
Nsg28
Nsg29
Nsbasg26
g30
sg31
g32
((lp494
g91
atp495
Rp496
sg37
VRATCH Australia
p497
sg39
I2012
sg40
g2
(g41
g4
Ntp498
Rp499
(dp500
g45
F-20.544681999999966
sg46
g9
sg47
F147.80488700000012
sbsbsVAUS0000178
p501
g2
(g3
g4
Ntp502
Rp503
(dp504
g8
g9
sg10
F120.0
sg11
VCallide A
p505
sg13
Nsg14
g15
sg16
g17
sg18
g9
sg19
g501
sg20
(lp506
g2
(g22
g4
Ntp507
Rp508
(dp509
g26
g9
sg27
Nsg28
Nsg29
Nsbasg26
g30
sg31
g32
((lp510
g91
atp511
Rp512
sg37
VCS Energy
p513
sg39
I2012
sg40
g2
(g41
g4
Ntp514
Rp515
(dp516
g45
F-24.33402499999994
sg46
g9
sg47
F150.6279730000001
sbsbsVAUS0000274
p517
g2
(g3
g4
Ntp518
Rp519
(dp520
g8
g9
sg10
F20.0
sg11
VGadara
p521
sg13
Nsg14
g15
sg16
g17
sg18
g9
sg19
g517
sg20
(lp522
g2
(g22
g4
Ntp523
Rp524
(dp525
g26
g9
sg27
Nsg28
Nsg29
Nsbasg26
g30
sg31
g32
((lp526
g398
atp527
Rp528
sg37
VVisy Pulp & Paper
p529
sg39
I2012
sg40
g2
(g41
g4
Ntp530
Rp531
(dp532
g45
F-35.295932999999934
sg46
g9
sg47
F148.13705200000004
sbsbsVAUS0000275
p533
g2
(g3
g4
Ntp534
Rp535
(dp536
g8
g9
sg10
F5.0
sg11
VGlenbawn
p537
sg13
Nsg14
g15
sg16
g17
sg18
g9
sg19
g533
sg20
(lp538
g2
(g22
g4
Ntp539
Rp540
(dp541
g26
g9
sg27
Nsg28
Nsg29
Nsbasg26
g30
sg31
g32
((lp542
g74
atp543
Rp544
sg37
VAGL Energy Pty Ltd
p545
sg39
I2012
sg40
g2
(g41
g4
Ntp546
Rp547
(dp548
g45
F-32.10966099999996
sg46
g9
sg47
F150.9981540000001
sbsbsVAUS0000272
p549
g2
(g3
g4
Ntp550
Rp551
(dp552
g8
g9
sg10
F3.9
sg11
VEarthPower Biomass Plant
p553
sg13
Nsg14
g15
sg16
g17
sg18
g9
sg19
g549
sg20
(lp554
g2
(g22
g4
Ntp555
Rp556
(dp557
g26
g9
sg27
Nsg28
Nsg29
Nsbasg26
g30
sg31
g32
((lp558
g318
atp559
Rp560
sg37
VEarthpower Technologies Sydney Pty Ltd
p561
sg39
I2012
sg40
g2
(g41
g4
Ntp562
Rp563
(dp564
g45
F-33.82037299999996
sg46
g9
sg47
F151.04203700000005
sbsbsVAUS0000273
p565
g2
(g3
g4
Ntp566
Rp567
(dp568
g8
g9
sg10
F42.0
sg11
VEraring
p569
sg13
Nsg14
g15
sg16
g17
sg18
g9
sg19
g565
sg20
(lp570
g2
(g22
g4
Ntp571
Rp572
(dp573
g26
g9
sg27
Nsg28
Nsg29
Nsbasg26
g30
sg31
g32
((lp574
g269
atp575
Rp576
sg37
VEraring Energy
p577
sg39
I2012
sg40
g2
(g41
g4
Ntp578
Rp579
(dp580
g45
F-33.06174875299996
sg46
g9
sg47
F151.5223300680001
sbsbsVAUS0000270
p581
g2
(g3
g4
Ntp582
Rp583
(dp584
g8
g9
sg10
F300.0
sg11
VCapral (Aluminium Smelter)
p585
sg13
Nsg14
g15
sg16
g17
sg18
g9
sg19
g581
sg20
(lp586
g2
(g22
g4
Ntp587
Rp588
(dp589
g26
g9
sg27
Nsg28
Nsg29
Nsbasg26
g30
sg31
g32
((lp590
g34
atp591
Rp592
sg37
VCapral Ltd
p593
sg39
I2012
sg40
g2
(g41
g4
Ntp594
Rp595
(dp596
g45
F-32.78972299999998
sg46
g9
sg47
F151.48130500000002
sbsbsVAUS0000271
p597
g2
(g3
g4
Ntp598
Rp599
(dp600
g8
g9
sg10
F724.0
sg11
VColongra
p601
sg13
Nsg14
g15
sg16
g17
sg18
g9
sg19
g597
sg20
(lp602
g2
(g22
g4
Ntp603
Rp604
(dp605
g26
g9
sg27
Nsg28
Nsg29
Nsbasg26
g30
sg31
g32
((lp606
g34
atp607
Rp608
sg37
VDelta Electricity
p609
sg39
I2012
sg40
g2
(g41
g4
Ntp610
Rp611
(dp612
g45
F-33.20986899999997
sg46
g9
sg47
F151.54478500000005
sbsbsVAUS0000171
p613
g2
(g3
g4
Ntp614
Rp615
(dp616
g8
g9
sg10
F1400.0
sg11
VTarong
p617
sg13
Nsg14
g15
sg16
g17
sg18
g9
sg19
g613
sg20
(lp618
g2
(g22
g4
Ntp619
Rp620
(dp621
g26
g9
sg27
Nsg28
Nsg29
Nsbasg26
g30
sg31
g32
((lp622
g91
atp623
Rp624
sg37
VStanwell Corporation Ltd
p625
sg39
I2012
sg40
g2
(g41
g4
Ntp626
Rp627
(dp628
g45
F-26.78235799999993
sg46
g9
sg47
F151.91527300000007
sbsbsVAUS0000170
p629
g2
(g3
g4
Ntp630
Rp631
(dp632
g8
g9
sg10
F450.0
sg11
VTarong North
p633
sg13
Nsg14
g15
sg16
g17
sg18
g9
sg19
g629
sg20
(lp634
g2
(g22
g4
Ntp635
Rp636
(dp637
g26
g9
sg27
Nsg28
Nsg29
Nsbasg26
g30
sg31
g32
((lp638
g91
atp639
Rp640
sg37
VTarong Energy Corporation
p641
sg39
I2012
sg40
g2
(g41
g4
Ntp642
Rp643
(dp644
g45
F-26.775762999999984
sg46
g9
sg47
F151.91460200000006
sbsbsVAUS0000173
p645
g2
(g3
g4
Ntp646
Rp647
(dp648
g8
g9
sg10
F154.0
sg11
VYarwun
p649
sg13
Nsg14
g15
sg16
g17
sg18
g9
sg19
g645
sg20
(lp650
g2
(g22
g4
Ntp651
Rp652
(dp653
g26
g9
sg27
Nsg28
Nsg29
Nsbasg26
g30
sg31
g32
((lp654
g34
atp655
Rp656
sg37
VRio Tinto Australia - Yarwun Pty Ltd
p657
sg39
I2012
sg40
g2
(g41
g4
Ntp658
Rp659
(dp660
g45
F-23.830644999999947
sg46
g9
sg47
F151.1519300000001
sbsbsVAUS0000172
p661
g2
(g3
g4
Ntp662
Rp663
(dp664
g8
g9
sg10
F244.0
sg11
VYabulu
p665
sg13
Nsg14
g15
sg16
g17
sg18
g9
sg19
g661
sg20
(lp666
g2
(g22
g4
Ntp667
Rp668
(dp669
g26
g9
sg27
Nsg28
Nsg29
Nsbasg26
g30
sg31
g32
((lp670
g34
atp671
Rp672
sg37
VRATCH Australia
p673
sg39
I2012
sg40
g2
(g41
g4
Ntp674
Rp675
(dp676
g45
F-19.201055999999937
sg46
g9
sg47
F146.6187070000001
sbsbsVAUS0000175
p677
g2
(g3
g4
Ntp678
Rp679
(dp680
g8
g9
sg10
F24.0
sg11
VVictoria Sugar Mill
p681
sg13
Nsg14
g15
sg16
g17
sg18
g9
sg19
g677
sg20
(lp682
g2
(g22
g4
Ntp683
Rp684
(dp685
g26
g9
sg27
Nsg28
Nsg29
Nsbasg26
g30
sg31
g32
((lp686
g398
atp687
Rp688
sg37
VSucrogen Pty ltd
p689
sg39
I2012
sg40
g2
(g41
g4
Ntp690
Rp691
(dp692
g45
F-18.650803999999937
sg46
g9
sg47
F146.20162700000003
sbsbsVAUS0000174
p693
g2
(g3
g4
Ntp694
Rp695
(dp696
g8
g9
sg10
F8.0
sg11
VMacknade Sugar Mill
p697
sg13
Nsg14
g15
sg16
g17
sg18
g9
sg19
g693
sg20
(lp698
g2
(g22
g4
Ntp699
Rp700
(dp701
g26
g9
sg27
Nsg28
Nsg29
Nsbasg26
g30
sg31
g32
((lp702
g398
atp703
Rp704
sg37
VSucrogen (Herbert) Pty ltd
p705
sg39
I2012
sg40
g2
(g41
g4
Ntp706
Rp707
(dp708
g45
F-18.589042999999947
sg46
g9
sg47
F146.25796100000002
sbsbsVAUS0000278
p709
g2
(g3
g4
Ntp710
Rp711
(dp712
g8
g9
sg10
F50.0
sg11
VHunter Valley
p713
sg13
Nsg14
g15
sg16
g17
sg18
g9
sg19
g709
sg20
(lp714
g2
(g22
g4
Ntp715
Rp716
(dp717
g26
g9
sg27
Nsg28
Nsg29
Nsbasg26
g30
sg31
g32
((lp718
g34
atp719
Rp720
sg37
VMacquarie Generation
p721
sg39
I2012
sg40
g2
(g41
g4
Ntp722
Rp723
(dp724
g45
F-32.38925299999994
sg46
g9
sg47
F150.96639600000003
sbsbsVAUS0000279
p725
g2
(g3
g4
Ntp726
Rp727
(dp728
g8
g9
sg10
F160.0
sg11
VKangaroo Valley (Shoalhaven Scheme)
p729
sg13
Nsg14
g15
sg16
g17
sg18
g9
sg19
g725
sg20
(lp730
g2
(g22
g4
Ntp731
Rp732
(dp733
g26
g9
sg27
Nsg28
Nsg29
Nsbasg26
g30
sg31
g32
((lp734
g74
atp735
Rp736
sg37
VEraring Energy
p737
sg39
I2012
sg40
g2
(g41
g4
Ntp738
Rp739
(dp740
g45
F-34.722969999999975
sg46
g9
sg47
F150.47953000000007
sbsbsVAUS0000308
p741
g2
(g3
g4
Ntp742
Rp743
(dp744
g8
g9
sg10
F54.5
sg11
VMaryvale Mill
p745
sg13
Nsg14
g15
sg16
g17
sg18
g9
sg19
g741
sg20
(lp746
g2
(g22
g4
Ntp747
Rp748
(dp749
g26
g9
sg27
Nsg28
Nsg29
Nsbasg26
g30
sg31
g32
((lp750
g398
atp751
Rp752
sg37
VAustralian Paper
p753
sg39
I2012
sg40
g2
(g41
g4
Ntp754
Rp755
(dp756
g45
F-38.18089277399997
sg46
g9
sg47
F146.44794631700006
sbsbsVAUS0000309
p757
g2
(g3
g4
Ntp758
Rp759
(dp760
g8
g9
sg10
F13.8
sg11
VGrasmere Wind Farm (Albany stage II)
p761
sg13
Nsg14
g15
sg16
g17
sg18
g9
sg19
g757
sg20
(lp762
g2
(g22
g4
Ntp763
Rp764
(dp765
g26
g9
sg27
Nsg28
Nsg29
Nsbasg26
g30
sg31
g32
((lp766
g236
atp767
Rp768
sg37
VVerve Energy
p769
sg39
I2012
sg40
g2
(g41
g4
Ntp770
Rp771
(dp772
g45
F-35.05065051599996
sg46
g9
sg47
F117.76376090400004
sbsbsVAUS0000302
p773
g2
(g3
g4
Ntp774
Rp775
(dp776
g8
g9
sg10
F16.0
sg11
VWilga Park
p777
sg13
Nsg14
g15
sg16
g17
sg18
g9
sg19
g773
sg20
(lp778
g2
(g22
g4
Ntp779
Rp780
(dp781
g26
g9
sg27
Nsg28
Nsg29
Nsbasg26
g30
sg31
g32
((lp782
g34
atp783
Rp784
sg37
VSantos
p785
sg39
I2012
sg40
g2
(g41
g4
Ntp786
Rp787
(dp788
g45
F-30.363436999999976
sg46
g9
sg47
F149.6771530000001
sbsbsVAUS0000303
p789
g2
(g3
g4
Ntp790
Rp791
(dp792
g8
g9
sg10
F60.0
sg11
VGuthega
p793
sg13
Nsg14
g15
sg16
g17
sg18
g9
sg19
g789
sg20
(lp794
g2
(g22
g4
Ntp795
Rp796
(dp797
g26
g9
sg27
Nsg28
Nsg29
Nsbasg26
g30
sg31
g32
((lp798
g74
atp799
Rp800
sg37
VSnowy Hydro Ltd
p801
sg39
I2012
sg40
g2
(g41
g4
Ntp802
Rp803
(dp804
g45
F-36.350097999999946
sg46
g9
sg47
F148.41352800000004
sbsbsVAUS0000300
p805
g2
(g3
g4
Ntp806
Rp807
(dp808
g8
g9
sg10
F18.0
sg11
VBurrendong
p809
sg13
Nsg14
g15
sg16
g17
sg18
g9
sg19
g805
sg20
(lp810
g2
(g22
g4
Ntp811
Rp812
(dp813
g26
g9
sg27
Nsg28
Nsg29
Nsbasg26
g30
sg31
g32
((lp814
g74
atp815
Rp816
sg37
VAGL Energy Pty Ltd
p817
sg39
I2012
sg40
g2
(g41
g4
Ntp818
Rp819
(dp820
g45
F-32.66461599999997
sg46
g9
sg47
F149.1079860000001
sbsbsVAUS0000301
p821
g2
(g3
g4
Ntp822
Rp823
(dp824
g8
g9
sg10
F20.0
sg11
VCopeton
p825
sg13
Nsg14
g15
sg16
g17
sg18
g9
sg19
g821
sg20
(lp826
g2
(g22
g4
Ntp827
Rp828
(dp829
g26
g9
sg27
Nsg28
Nsg29
Nsbasg26
g30
sg31
g32
((lp830
g74
atp831
Rp832
sg37
VAGL Energy Pty Ltd
p833
sg39
I2012
sg40
g2
(g41
g4
Ntp834
Rp835
(dp836
g45
F-29.91019799999998
sg46
g9
sg47
F150.9234620000001
sbsbsVAUS0000306
p837
g2
(g3
g4
Ntp838
Rp839
(dp840
g8
g9
sg10
F2820.0
sg11
VEraring
p841
sg13
Nsg14
g15
sg16
g17
sg18
g9
sg19
g837
sg20
(lp842
g2
(g22
g4
Ntp843
Rp844
(dp845
g26
g9
sg27
Nsg28
Nsg29
Nsbasg26
g30
sg31
g32
((lp846
g91
atp847
Rp848
sg37
VOrigin Energy
p849
sg39
I2012
sg40
g2
(g41
g4
Ntp850
Rp851
(dp852
g45
F-33.062074923999944
sg46
g9
sg47
F151.52064791500004
sbsbsVAUS0000307
p853
g2
(g3
g4
Ntp854
Rp855
(dp856
g8
g9
sg10
F206.0
sg11
VCollgar Wind Farm
p857
sg13
Nsg14
g15
sg16
g17
sg18
g9
sg19
g853
sg20
(lp858
g2
(g22
g4
Ntp859
Rp860
(dp861
g26
g9
sg27
Nsg28
Nsg29
Nsbasg26
g30
sg31
g32
((lp862
g236
atp863
Rp864
sg37
VUBS IIT/ REST
p865
sg39
I2012
sg40
g2
(g41
g4
Ntp866
Rp867
(dp868
g45
F-31.50015284699998
sg46
g9
sg47
F118.46325039700002
sbsbsVAUS0000304
p869
g2
(g3
g4
Ntp870
Rp871
(dp872
g8
g9
sg10
F6.5
sg11
VLake Keepit
p873
sg13
Nsg14
g15
sg16
g17
sg18
g9
sg19
g869
sg20
(lp874
g2
(g22
g4
Ntp875
Rp876
(dp877
g26
g9
sg27
Nsg28
Nsg29
Nsbasg26
g30
sg31
g32
((lp878
g74
atp879
Rp880
sg37
VCountry Energy
p881
sg39
I2012
sg40
g2
(g41
g4
Ntp882
Rp883
(dp884
g45
F-30.87918899999994
sg46
g9
sg47
F150.49139900000011
sbsbsVAUS0000305
p885
g2
(g3
g4
Ntp886
Rp887
(dp888
g8
g9
sg10
F50.0
sg11
VBroken Hill
p889
sg13
Nsg14
g15
sg16
g17
sg18
g9
sg19
g885
sg20
(lp890
g2
(g22
g4
Ntp891
Rp892
(dp893
g26
g9
sg27
Nsg28
Nsg29
Nsbasg26
g30
sg31
g32
((lp894
g34
atp895
Rp896
sg37
VEssential Energy
p897
sg39
I2012
sg40
g2
(g41
g4
Ntp898
Rp899
(dp900
g45
F-31.98629599999998
sg46
g9
sg47
F141.42033400000003
sbsbsVAUS0000001
p901
g2
(g3
g4
Ntp902
Rp903
(dp904
g8
g9
sg10
F12.0
sg11
VWonthaggi Wind Farm
p905
sg13
Nsg14
g15
sg16
g17
sg18
g9
sg19
g901
sg20
(lp906
g2
(g22
g4
Ntp907
Rp908
(dp909
g26
g9
sg27
Nsg28
Nsg29
Nsbasg26
g30
sg31
g32
((lp910
g236
atp911
Rp912
sg37
VOrigin Energy
p913
sg39
I2012
sg40
g2
(g41
g4
Ntp914
Rp915
(dp916
g45
F-38.60373599999997
sg46
g9
sg47
F145.54616700000008
sbsbsVAUS0000003
p917
g2
(g3
g4
Ntp918
Rp919
(dp920
g8
g9
sg10
F30.0
sg11
VCullerin Range Wind Farm
p921
sg13
Nsg14
g15
sg16
g17
sg18
g9
sg19
g917
sg20
(lp922
g2
(g22
g4
Ntp923
Rp924
(dp925
g26
g9
sg27
Nsg28
Nsg29
Nsbasg26
g30
sg31
g32
((lp926
g236
atp927
Rp928
sg37
VOrigin Energy
p929
sg39
I2012
sg40
g2
(g41
g4
Ntp930
Rp931
(dp932
g45
F-34.80498161999998
sg46
g9
sg47
F149.4001295820001
sbsbsVAUS0000002
p933
g2
(g3
g4
Ntp934
Rp935
(dp936
g8
g9
sg10
F89.1
sg11
VWalkaway Wind Farm
p937
sg13
Nsg14
g15
sg16
g17
sg18
g9
sg19
g933
sg20
(lp938
g2
(g22
g4
Ntp939
Rp940
(dp941
g26
g9
sg27
Nsg28
Nsg29
Nsbasg26
g30
sg31
g32
((lp942
g236
atp943
Rp944
sg37
VInfigen Energy Pty Ltd
p945
sg39
I2012
sg40
g2
(g41
g4
Ntp946
Rp947
(dp948
g45
F-28.92285099999998
sg46
g9
sg47
F114.92815850000011
sbsbsVAUS0000005
p949
g2
(g3
g4
Ntp950
Rp951
(dp952
g8
g9
sg10
F98.7
sg11
VSnowtown Wind Farm Stage 1
p953
sg13
Nsg14
g15
sg16
g17
sg18
g9
sg19
g949
sg20
(lp954
g2
(g22
g4
Ntp955
Rp956
(dp957
g26
g9
sg27
Nsg28
Nsg29
Nsbasg26
g30
sg31
g32
((lp958
g236
atp959
Rp960
sg37
VTrustPower Ltd
p961
sg39
I2012
sg40
g2
(g41
g4
Ntp962
Rp963
(dp964
g45
F-33.72151999999994
sg46
g9
sg47
F138.14708800000005
sbsbsVAUS0000004
p965
g2
(g3
g4
Ntp966
Rp967
(dp968
g8
g9
sg10
F90.75
sg11
VWattle Point Wind Farm
p969
sg13
Nsg14
g15
sg16
g17
sg18
g9
sg19
g965
sg20
(lp970
g2
(g22
g4
Ntp971
Rp972
(dp973
g26
g9
sg27
Nsg28
Nsg29
Nsbasg26
g30
sg31
g32
((lp974
g236
atp975
Rp976
sg37
VANZ Energy Infrastructure Trust
p977
sg39
I2012
sg40
g2
(g41
g4
Ntp978
Rp979
(dp980
g45
F-35.12135499999994
sg46
g9
sg47
F137.71661800000004
sbsbsVAUS0000007
p981
g2
(g3
g4
Ntp982
Rp983
(dp984
g8
g9
sg10
F58.0
sg11
VCape Bridgewater Wind Farm
p985
sg13
Nsg14
g15
sg16
g17
sg18
g9
sg19
g981
sg20
(lp986
g2
(g22
g4
Ntp987
Rp988
(dp989
g26
g9
sg27
Nsg28
Nsg29
Nsbasg26
g30
sg31
g32
((lp990
g236
atp991
Rp992
sg37
VPacific Hydro Pty Ltd
p993
sg39
I2012
sg40
g2
(g41
g4
Ntp994
Rp995
(dp996
g45
F-38.357654999999966
sg46
g9
sg47
F141.3850440000001
sbsbsVAUS0000006
p997
g2
(g3
g4
Ntp998
Rp999
(dp1000
g8
g9
sg10
F52.5
sg11
VChallicum Hills Wind Farm
p1001
sg13
Nsg14
g15
sg16
g17
sg18
g9
sg19
g997
sg20
(lp1002
g2
(g22
g4
Ntp1003
Rp1004
(dp1005
g26
g9
sg27
Nsg28
Nsg29
Nsbasg26
g30
sg31
g32
((lp1006
g236
atp1007
Rp1008
sg37
VPacific Hydro Pty Ltd
p1009
sg39
I2012
sg40
g2
(g41
g4
Ntp1010
Rp1011
(dp1012
g45
F-37.38978902399998
sg46
g9
sg47
F143.11397110200005
sbsbsVAUS0000009
p1013
g2
(g3
g4
Ntp1014
Rp1015
(dp1016
g8
g9
sg10
F65.0
sg11
VBluff Point (Woolnorth) Wind Farm
p1017
sg13
Nsg14
g15
sg16
g17
sg18
g9
sg19
g1013
sg20
(lp1018
g2
(g22
g4
Ntp1019
Rp1020
(dp1021
g26
g9
sg27
Nsg28
Nsg29
Nsbasg26
g30
sg31
g32
((lp1022
g236
atp1023
Rp1024
sg37
VHydro-Electric Corporation (Tasmania)
p1025
sg39
I2012
sg40
g2
(g41
g4
Ntp1026
Rp1027
(dp1028
g45
F-40.720673999999974
sg46
g9
sg47
F144.6869190000001
sbsbsVAUS0000008
p1029
g2
(g3
g4
Ntp1030
Rp1031
(dp1032
g8
g9
sg10
F55.0
sg11
VBarcaldine (Len Wishaw)
p1033
sg13
Nsg14
g15
sg16
g17
sg18
g9
sg19
g1029
sg20
(lp1034
g2
(g22
g4
Ntp1035
Rp1036
(dp1037
g26
g9
sg27
Nsg28
Nsg29
Nsbasg26
g30
sg31
g32
((lp1038
g34
atp1039
Rp1040
sg37
VErgon Energy Qld Pty Ltd
p1041
sg39
I2012
sg40
g2
(g41
g4
Ntp1042
Rp1043
(dp1044
g45
F-23.55245199999996
sg46
g9
sg47
F145.31418600000006
sbsbsVAUS0000119
p1045
g2
(g3
g4
Ntp1046
Rp1047
(dp1048
g8
g9
sg10
F90.0
sg11
VTarraleah
p1049
sg13
Nsg14
g15
sg16
g17
sg18
g9
sg19
g1045
sg20
(lp1050
g2
(g22
g4
Ntp1051
Rp1052
(dp1053
g26
g9
sg27
Nsg28
Nsg29
Nsbasg26
g30
sg31
g32
((lp1054
g74
atp1055
Rp1056
sg37
VHydro-Electric Corporation (Tasmania)
p1057
sg39
I2012
sg40
g2
(g41
g4
Ntp1058
Rp1059
(dp1060
g45
F-42.301207999999974
sg46
g9
sg47
F146.45715600000005
sbsbsVAUS0000029
p1061
g2
(g3
g4
Ntp1062
Rp1063
(dp1064
g8
g9
sg10
F4.3
sg11
VWoodlawn Bioreactor
p1065
sg13
Nsg14
g15
sg16
g17
sg18
g9
sg19
g1061
sg20
(lp1066
g2
(g22
g4
Ntp1067
Rp1068
(dp1069
g26
g9
sg27
Nsg28
Nsg29
Nsbasg26
g30
sg31
g32
((lp1070
g318
atp1071
Rp1072
sg37
VVeolia Environmental Services (Aust) Pty Ltd
p1073
sg39
I2012
sg40
g2
(g41
g4
Ntp1074
Rp1075
(dp1076
g45
F-35.05900245999993
sg46
g9
sg47
F149.5769049710001
sbsbsVAUS0000135
p1077
g2
(g3
g4
Ntp1078
Rp1079
(dp1080
g8
g9
sg10
F46.0
sg11
VFisher
p1081
sg13
Nsg14
g15
sg16
g17
sg18
g9
sg19
g1077
sg20
(lp1082
g2
(g22
g4
Ntp1083
Rp1084
(dp1085
g26
g9
sg27
Nsg28
Nsg29
Nsbasg26
g30
sg31
g32
((lp1086
g74
atp1087
Rp1088
sg37
VHydro-Electric Corporation (Tasmania)
p1089
sg39
I2012
sg40
g2
(g41
g4
Ntp1090
Rp1091
(dp1092
g45
F-41.673239999999964
sg46
g9
sg47
F146.26851800000009
sbsbsVAUS0000134
p1093
g2
(g3
g4
Ntp1094
Rp1095
(dp1096
g8
g9
sg10
F143.0
sg11
VJohn Butters
p1097
sg13
Nsg14
g15
sg16
g17
sg18
g9
sg19
g1093
sg20
(lp1098
g2
(g22
g4
Ntp1099
Rp1100
(dp1101
g26
g9
sg27
Nsg28
Nsg29
Nsbasg26
g30
sg31
g32
((lp1102
g74
atp1103
Rp1104
sg37
VHydro-Electric Corporation (Tasmania)
p1105
sg39
I2012
sg40
g2
(g41
g4
Ntp1106
Rp1107
(dp1108
g45
F-42.154834999999935
sg46
g9
sg47
F145.53447700000004
sbsbsVAUS0000137
p1109
g2
(g3
g4
Ntp1110
Rp1111
(dp1112
g8
g9
sg10
F79.9
sg11
VBastyan
p1113
sg13
Nsg14
g15
sg16
g17
sg18
g9
sg19
g1109
sg20
(lp1114
g2
(g22
g4
Ntp1115
Rp1116
(dp1117
g26
g9
sg27
Nsg28
Nsg29
Nsbasg26
g30
sg31
g32
((lp1118
g74
atp1119
Rp1120
sg37
VHydro-Electric Corporation (Tasmania)
p1121
sg39
I2012
sg40
g2
(g41
g4
Ntp1122
Rp1123
(dp1124
g45
F-41.735982999999976
sg46
g9
sg47
F145.5321120000001
sbsbsVAUS0000136
p1125
g2
(g3
g4
Ntp1126
Rp1127
(dp1128
g8
g9
sg10
F63.0
sg11
VDevils Gate
p1129
sg13
Nsg14
g15
sg16
g17
sg18
g9
sg19
g1125
sg20
(lp1130
g2
(g22
g4
Ntp1131
Rp1132
(dp1133
g26
g9
sg27
Nsg28
Nsg29
Nsbasg26
g30
sg31
g32
((lp1134
g74
atp1135
Rp1136
sg37
VHydro-Electric Corporation (Tasmania)
p1137
sg39
I2012
sg40
g2
(g41
g4
Ntp1138
Rp1139
(dp1140
g45
F-41.35046699999998
sg46
g9
sg47
F146.26316700000007
sbsbsVAUS0000131
p1141
g2
(g3
g4
Ntp1142
Rp1143
(dp1144
g8
g9
sg10
F3.2
sg11
VLower Lake Margaret
p1145
sg13
Nsg14
g15
sg16
g17
sg18
g9
sg19
g1141
sg20
(lp1146
g2
(g22
g4
Ntp1147
Rp1148
(dp1149
g26
g9
sg27
Nsg28
Nsg29
Nsbasg26
g30
sg31
g32
((lp1150
g74
atp1151
Rp1152
sg37
VHydro-Electric Corporation (Tasmania)
p1153
sg39
I2012
sg40
g2
(g41
g4
Ntp1154
Rp1155
(dp1156
g45
F-42.01888399999996
sg46
g9
sg47
F145.54249800000002
sbsbsVAUS0000130
p1157
g2
(g3
g4
Ntp1158
Rp1159
(dp1160
g8
g9
sg10
F30.0
sg11
VPaloona
p1161
sg13
Nsg14
g15
sg16
g17
sg18
g9
sg19
g1157
sg20
(lp1162
g2
(g22
g4
Ntp1163
Rp1164
(dp1165
g26
g9
sg27
Nsg28
Nsg29
Nsbasg26
g30
sg31
g32
((lp1166
g74
atp1167
Rp1168
sg37
VHydro-Electric Corporation (Tasmania)
p1169
sg39
I2012
sg40
g2
(g41
g4
Ntp1170
Rp1171
(dp1172
g45
F-41.28261599999996
sg46
g9
sg47
F146.24896400000011
sbsbsVAUS0000133
p1173
g2
(g3
g4
Ntp1174
Rp1175
(dp1176
g8
g9
sg10
F8.4
sg11
VUpper Lake Margaret
p1177
sg13
Nsg14
g15
sg16
g17
sg18
g9
sg19
g1173
sg20
(lp1178
g2
(g22
g4
Ntp1179
Rp1180
(dp1181
g26
g9
sg27
Nsg28
Nsg29
Nsbasg26
g30
sg31
g32
((lp1182
g74
atp1183
Rp1184
sg37
VHydro-Electric Corporation (Tasmania)
p1185
sg39
I2012
sg40
g2
(g41
g4
Ntp1186
Rp1187
(dp1188
g45
F-42.00456699999995
sg46
g9
sg47
F145.54369900000006
sbsbsVAUS0000132
p1189
g2
(g3
g4
Ntp1190
Rp1191
(dp1192
g8
g9
sg10
F54.0
sg11
VLemonthyme
p1193
sg13
Nsg14
g15
sg16
g17
sg18
g9
sg19
g1189
sg20
(lp1194
g2
(g22
g4
Ntp1195
Rp1196
(dp1197
g26
g9
sg27
Nsg28
Nsg29
Nsbasg26
g30
sg31
g32
((lp1198
g74
atp1199
Rp1200
sg37
VHydro-Electric Corporation (Tasmania)
p1201
sg39
I2012
sg40
g2
(g41
g4
Ntp1202
Rp1203
(dp1204
g45
F-41.60376299999996
sg46
g9
sg47
F146.13902200000007
sbsbsVAUS0000139
p1205
g2
(g3
g4
Ntp1206
Rp1207
(dp1208
g8
g9
sg10
F120.0
sg11
VBell Bay (Bell Bay Three)
p1209
sg13
Nsg14
g15
sg16
g17
sg18
g9
sg19
g1205
sg20
(lp1210
g2
(g22
g4
Ntp1211
Rp1212
(dp1213
g26
g9
sg27
Nsg28
Nsg29
Nsbasg26
g30
sg31
g32
((lp1214
g34
atp1215
Rp1216
sg37
VAurora Energy Tamar Valley Pty Ltd
p1217
sg39
I2012
sg40
g2
(g41
g4
Ntp1218
Rp1219
(dp1220
g45
F-41.14289599999995
sg46
g9
sg47
F146.90299800000003
sbsbsVAUS0000138
p1221
g2
(g3
g4
Ntp1222
Rp1223
(dp1224
g8
g9
sg10
F390.0
sg11
VTamar Valley
p1225
sg13
Nsg14
g15
sg16
g17
sg18
g9
sg19
g1221
sg20
(lp1226
g2
(g22
g4
Ntp1227
Rp1228
(dp1229
g26
g9
sg27
Nsg28
Nsg29
Nsbasg26
g30
sg31
g32
((lp1230
g34
atp1231
Rp1232
sg37
VAurora Energy (Tamar Valley)
p1233
sg39
I2012
sg40
g2
(g41
g4
Ntp1234
Rp1235
(dp1236
g45
F-41.140124999999955
sg46
g9
sg47
F146.90363600000012
sbsbsVAUS0000023
p1237
g2
(g3
g4
Ntp1238
Rp1239
(dp1240
g8
g9
sg10
F71.4
sg11
VHallett 2 Hallet Hill  Wind Farm
p1241
sg13
Nsg14
g15
sg16
g17
sg18
g9
sg19
g1237
sg20
(lp1242
g2
(g22
g4
Ntp1243
Rp1244
(dp1245
g26
g9
sg27
Nsg28
Nsg29
Nsbasg26
g30
sg31
g32
((lp1246
g236
atp1247
Rp1248
sg37
VANZ Energy Infrastructure Trust
p1249
sg39
I2012
sg40
g2
(g41
g4
Ntp1250
Rp1251
(dp1252
g45
F-33.52260243499995
sg46
g9
sg47
F138.85515976300007
sbsbsVAUS0000022
p1253
g2
(g3
g4
Ntp1254
Rp1255
(dp1256
g8
g9
sg10
F94.5
sg11
VHallett 1 Brown Hill  Wind Farm
p1257
sg13
Nsg14
g15
sg16
g17
sg18
g9
sg19
g1253
sg20
(lp1258
g2
(g22
g4
Ntp1259
Rp1260
(dp1261
g26
g9
sg27
Nsg28
Nsg29
Nsbasg26
g30
sg31
g32
((lp1262
g236
atp1263
Rp1264
sg37
VAGL Energy Pty Ltd
p1265
sg39
I2012
sg40
g2
(g41
g4
Ntp1266
Rp1267
(dp1268
g45
F-33.33973357899998
sg46
g9
sg47
F138.73233165800002
sbsbsVAUS0000474
p1269
g2
(g3
g4
Ntp1270
Rp1271
(dp1272
g8
g9
sg10
F10.0
sg11
VGreenough River Solar Farm
p1273
sg13
Nsg14
g15
sg16
g17
sg18
g9
sg19
g1269
sg20
(lp1274
g2
(g22
g4
Ntp1275
Rp1276
(dp1277
g26
g9
sg27
Nsg28
Nsg29
Nsbasg26
g30
sg31
g32
((lp1278
VSolar
p1279
atp1280
Rp1281
sg37
VVerve Energy/GE Energy Financial Services JV
p1282
sg39
I2014
sg40
g2
(g41
g4
Ntp1283
Rp1284
(dp1285
g45
F-28.90431806199996
sg46
g9
sg47
F115.11193748500011
sbsbsVAUS0000475
p1286
g2
(g3
g4
Ntp1287
Rp1288
(dp1289
g8
g9
sg10
F55.0
sg11
VMumbida Wind Farm
p1290
sg13
Nsg14
g15
sg16
g17
sg18
g9
sg19
g1286
sg20
(lp1291
g2
(g22
g4
Ntp1292
Rp1293
(dp1294
g26
g9
sg27
Nsg28
Nsg29
Nsbasg26
g30
sg31
g32
((lp1295
g236
atp1296
Rp1297
sg37
VVerve Energy Pty Ltd
p1298
sg39
I2014
sg40
g2
(g41
g4
Ntp1299
Rp1300
(dp1301
g45
F-28.991804877999982
sg46
g9
sg47
F114.95988782900008
sbsbsVAUS0000476
p1302
g2
(g3
g4
Ntp1303
Rp1304
(dp1305
g8
g9
sg10
F102.0
sg11
VNyngan Solar Plant
p1306
sg13
Nsg14
g15
sg16
g17
sg18
g9
sg19
g1302
sg20
(lp1307
g2
(g22
g4
Ntp1308
Rp1309
(dp1310
g26
g9
sg27
Nsg28
Nsg29
Nsbasg26
g30
sg31
g32
((lp1311
g1279
atp1312
Rp1313
sg37
VAGL Energy
p1314
sg39
I2016
sg40
g2
(g41
g4
Ntp1315
Rp1316
(dp1317
g45
F-31.552740360999962
sg46
g9
sg47
F147.08535195000002
sbsbsVAUS0000477
p1318
g2
(g3
g4
Ntp1319
Rp1320
(dp1321
g8
g9
sg10
F53.0
sg11
VBroken Hill Solar Plant
p1322
sg13
Nsg14
g15
sg16
g17
sg18
g9
sg19
g1318
sg20
(lp1323
g2
(g22
g4
Ntp1324
Rp1325
(dp1326
g26
g9
sg27
Nsg28
Nsg29
Nsbasg26
g30
sg31
g32
((lp1327
g1279
atp1328
Rp1329
sg37
VAGL Energy
p1330
sg39
I2016
sg40
g2
(g41
g4
Ntp1331
Rp1332
(dp1333
g45
F-31.986707426999942
sg46
g9
sg47
F141.3915455120001
sbsbsVAUS0000470
p1334
g2
(g3
g4
Ntp1335
Rp1336
(dp1337
g8
g9
sg10
F1.0
sg11
VUterne Solar
p1338
sg13
Nsg14
g15
sg16
g17
sg18
g9
sg19
g1334
sg20
(lp1339
g2
(g22
g4
Ntp1340
Rp1341
(dp1342
g26
g9
sg27
Nsg28
Nsg29
Nsbasg26
g30
sg31
g32
((lp1343
g1279
atp1344
Rp1345
sg37
VEpuron
p1346
sg39
I2014
sg40
g2
(g41
g4
Ntp1347
Rp1348
(dp1349
g45
F-23.768517390999932
sg46
g9
sg47
F133.86821016400006
sbsbsVAUS0000471
p1350
g2
(g3
g4
Ntp1351
Rp1352
(dp1353
g8
g9
sg10
F0.19
sg11
VHermannsburg
p1354
sg13
Nsg14
g15
sg16
g17
sg18
g9
sg19
g1350
sg20
(lp1355
g2
(g22
g4
Ntp1356
Rp1357
(dp1358
g26
g9
sg27
Nsg28
Nsg29
Nsbasg26
g30
sg31
g32
((lp1359
g1279
atp1360
Rp1361
sg37
VSolar Systems
p1362
sg39
I2014
sg40
g2
(g41
g4
Ntp1363
Rp1364
(dp1365
g45
F-23.93736457899996
sg46
g9
sg47
F132.77192821900007
sbsbsVAUS0000472
p1366
g2
(g3
g4
Ntp1367
Rp1368
(dp1369
g8
g9
sg10
F0.3
sg11
VBallarat Solar Park
p1370
sg13
Nsg14
g15
sg16
g17
sg18
g9
sg19
g1366
sg20
(lp1371
g2
(g22
g4
Ntp1372
Rp1373
(dp1374
g26
g9
sg27
Nsg28
Nsg29
Nsbasg26
g30
sg31
g32
((lp1375
g1279
atp1376
Rp1377
sg37
VCentral Victoria Solar City Consortium
p1378
sg39
I2014
sg40
g2
(g41
g4
Ntp1379
Rp1380
(dp1381
g45
F-37.51437136499993
sg46
g9
sg47
F143.78547291200005
sbsbsVAUS0000473
p1382
g2
(g3
g4
Ntp1383
Rp1384
(dp1385
g8
g9
sg10
F9.3
sg11
VLiddell Solar Thermal
p1386
sg13
Nsg14
g15
sg16
g17
sg18
g9
sg19
g1382
sg20
(lp1387
g2
(g22
g4
Ntp1388
Rp1389
(dp1390
g26
g9
sg27
Nsg28
Nsg29
Nsbasg26
g30
sg31
g32
((lp1391
g1279
atp1392
Rp1393
sg37
VMacquarie Generation
p1394
sg39
I2014
sg40
g2
(g41
g4
Ntp1395
Rp1396
(dp1397
g45
F-32.376069144999974
sg46
g9
sg47
F150.97966729400002
sbsbsVAUS0000229
p1398
g2
(g3
g4
Ntp1399
Rp1400
(dp1401
g8
g9
sg10
F153.0
sg11
VParaburdoo
p1402
sg13
Nsg14
g15
sg16
g17
sg18
g9
sg19
g1398
sg20
(lp1403
g2
(g22
g4
Ntp1404
Rp1405
(dp1406
g26
g9
sg27
Nsg28
Nsg29
Nsbasg26
g30
sg31
g32
((lp1407
g34
atp1408
Rp1409
sg37
VRio Tinto Australia Pty Ltd
p1410
sg39
I2012
sg40
g2
(g41
g4
Ntp1411
Rp1412
(dp1413
g45
F-23.223478996999972
sg46
g9
sg47
F117.61348122600009
sbsbsVAUS0000228
p1414
g2
(g3
g4
Ntp1415
Rp1416
(dp1417
g8
g9
sg10
F20.0
sg11
VParaburdoo (Standby)
p1418
sg13
Nsg14
g15
sg16
g17
sg18
g9
sg19
g1414
sg20
(lp1419
g2
(g22
g4
Ntp1420
Rp1421
(dp1422
g26
g9
sg27
Nsg28
Nsg29
Nsbasg26
g30
sg31
g32
((lp1423
g34
atp1424
Rp1425
sg37
VRio Tinto Australia Pty Ltd
p1426
sg39
I2012
sg40
g2
(g41
g4
Ntp1427
Rp1428
(dp1429
g45
F-23.221953285999973
sg46
g9
sg47
F117.61503073100005
sbsbsVAUS0000344
p1430
g2
(g3
g4
Ntp1431
Rp1432
(dp1433
g8
g9
sg10
F1.0
sg11
VTea Tree Gully
p1434
sg13
Nsg14
g15
sg16
g17
sg18
g9
sg19
g1430
sg20
(lp1435
g2
(g22
g4
Ntp1436
Rp1437
(dp1438
g26
g9
sg27
Nsg28
Nsg29
Nsbasg26
g30
sg31
g32
((lp1439
g318
atp1440
Rp1441
sg37
VEDL LFG SA Pty Ltd
p1442
sg39
I2012
sg40
g2
(g41
g4
Ntp1443
Rp1444
(dp1445
g45
F-34.830327067999974
sg46
g9
sg47
F138.71285098500005
sbsbsVAUS0000345
p1446
g2
(g3
g4
Ntp1447
Rp1448
(dp1449
g8
g9
sg10
F57.6
sg11
VPort Stanvac
p1450
sg13
Nsg14
g15
sg16
g17
sg18
g9
sg19
g1446
sg20
(lp1451
g2
(g22
g4
Ntp1452
Rp1453
(dp1454
g26
g9
sg27
Nsg28
Nsg29
Nsbasg26
g30
sg31
g32
((lp1455
g269
atp1456
Rp1457
sg37
VInfratil Energy Australia Pty Ltd
p1458
sg39
I2012
sg40
g2
(g41
g4
Ntp1459
Rp1460
(dp1461
g45
F-35.11039534399998
sg46
g9
sg47
F138.49145908000003
sbsbsVAUS0000342
p1462
g2
(g3
g4
Ntp1463
Rp1464
(dp1465
g8
g9
sg10
F25.0
sg11
VBox Hill
p1466
sg13
Nsg14
g15
sg16
g17
sg18
g9
sg19
g1462
sg20
(lp1467
g2
(g22
g4
Ntp1468
Rp1469
(dp1470
g26
g9
sg27
Nsg28
Nsg29
Nsbasg26
g30
sg31
g32
((lp1471
g236
atp1472
Rp1473
sg37
VAGL Energy
p1474
sg39
I2012
sg40
g2
(g41
g4
Ntp1475
Rp1476
(dp1477
g45
F-30.49941066699995
sg46
g9
sg47
F151.68388987800006
sbsbsVAUS0000343
p1478
g2
(g3
g4
Ntp1479
Rp1480
(dp1481
g8
g9
sg10
F1.0
sg11
VHighbury
p1482
sg13
Nsg14
g15
sg16
g17
sg18
g9
sg19
g1478
sg20
(lp1483
g2
(g22
g4
Ntp1484
Rp1485
(dp1486
g26
g9
sg27
Nsg28
Nsg29
Nsbasg26
g30
sg31
g32
((lp1487
g318
atp1488
Rp1489
sg37
VEDL LFG SA Pty Ltd
p1490
sg39
I2012
sg40
g2
(g41
g4
Ntp1491
Rp1492
(dp1493
g45
F-34.84902902299996
sg46
g9
sg47
F138.72028357300007
sbsbsVAUS0000340
p1494
g2
(g3
g4
Ntp1495
Rp1496
(dp1497
g8
g9
sg10
F0.3
sg11
VRubicon Falls
p1498
sg13
Nsg14
g15
sg16
g17
sg18
g9
sg19
g1494
sg20
(lp1499
g2
(g22
g4
Ntp1500
Rp1501
(dp1502
g26
g9
sg27
Nsg28
Nsg29
Nsbasg26
g30
sg31
g32
((lp1503
g74
atp1504
Rp1505
sg37
VAGL Energy Pty Ltd
p1506
sg39
I2012
sg40
g2
(g41
g4
Ntp1507
Rp1508
(dp1509
g45
F-37.34008662499997
sg46
g9
sg47
F145.8476787080001
sbsbsVAUS0000341
p1510
g2
(g3
g4
Ntp1511
Rp1512
(dp1513
g8
g9
sg10
F4.1
sg11
VLeonards Hill
p1514
sg13
Nsg14
g15
sg16
g17
sg18
g9
sg19
g1510
sg20
(lp1515
g2
(g22
g4
Ntp1516
Rp1517
(dp1518
g26
g9
sg27
Nsg28
Nsg29
Nsbasg26
g30
sg31
g32
((lp1519
g236
atp1520
Rp1521
sg37
VHepburn Community Wind Park Co-operative Ltd
p1522
sg39
I2012
sg40
g2
(g41
g4
Ntp1523
Rp1524
(dp1525
g45
F-37.427135745999976
sg46
g9
sg47
F144.12215301000003
sbsbsVAUS0000221
p1526
g2
(g3
g4
Ntp1527
Rp1528
(dp1529
g8
g9
sg10
F28.0
sg11
VChristmas Creek Iron Ore Mine
p1530
sg13
Nsg14
g15
sg16
g17
sg18
g9
sg19
g1526
sg20
(lp1531
g2
(g22
g4
Ntp1532
Rp1533
(dp1534
g26
g9
sg27
Nsg28
Nsg29
Nsbasg26
g30
sg31
g32
((lp1535
g269
atp1536
Rp1537
sg37
VContract Power Holdings
p1538
sg39
I2012
sg40
g2
(g41
g4
Ntp1539
Rp1540
(dp1541
g45
F-22.398999999999944
sg46
g9
sg47
F119.73200000000008
sbsbsVAUS0000220
p1542
g2
(g3
g4
Ntp1543
Rp1544
(dp1545
g8
g9
sg10
F32.0
sg11
VArgyle Diamond Mine
p1546
sg13
Nsg14
g15
sg16
g17
sg18
g9
sg19
g1542
sg20
(lp1547
g2
(g22
g4
Ntp1548
Rp1549
(dp1550
g26
g9
sg27
Nsg28
Nsg29
Nsbasg26
g30
sg31
g32
((lp1551
g269
atp1552
Rp1553
sg37
VRio Tinto - Argyle Diamond Mines
p1554
sg39
I2012
sg40
g2
(g41
g4
Ntp1555
Rp1556
(dp1557
g45
F-16.716156999999953
sg46
g9
sg47
F128.40308000000005
sbsbsVAUS0000223
p1558
g2
(g3
g4
Ntp1559
Rp1560
(dp1561
g8
g9
sg10
F78.0
sg11
VLeonora (Murrin Murrin Nickel Mine)
p1562
sg13
Nsg14
g15
sg16
g17
sg18
g9
sg19
g1558
sg20
(lp1563
g2
(g22
g4
Ntp1564
Rp1565
(dp1566
g26
g9
sg27
Nsg28
Nsg29
Nsbasg26
g30
sg31
g32
((lp1567
g34
atp1568
Rp1569
sg37
VMinara Resources
p1570
sg39
I2012
sg40
g2
(g41
g4
Ntp1571
Rp1572
(dp1573
g45
F-28.923753999999974
sg46
g9
sg47
F121.32929000000001
sbsbsVAUS0000222
p1574
g2
(g3
g4
Ntp1575
Rp1576
(dp1577
g8
g9
sg10
F21.0
sg11
VJundee Gold Mine
p1578
sg13
Nsg14
g15
sg16
g17
sg18
g9
sg19
g1574
sg20
(lp1579
g2
(g22
g4
Ntp1580
Rp1581
(dp1582
g26
g9
sg27
Nsg28
Nsg29
Nsbasg26
g30
sg31
g32
((lp1583
g34
atp1584
Rp1585
sg37
VNewmount Australia
p1586
sg39
I2012
sg40
g2
(g41
g4
Ntp1587
Rp1588
(dp1589
g45
F-26.371211999999957
sg46
g9
sg47
F120.57761300000004
sbsbsVAUS0000225
p1590
g2
(g3
g4
Ntp1591
Rp1592
(dp1593
g8
g9
sg10
F28.0
sg11
VPlutonic Gold Mine
p1594
sg13
Nsg14
g15
sg16
g17
sg18
g9
sg19
g1590
sg20
(lp1595
g2
(g22
g4
Ntp1596
Rp1597
(dp1598
g26
g9
sg27
Nsg28
Nsg29
Nsbasg26
g30
sg31
g32
((lp1599
g34
atp1600
Rp1601
sg37
VBarrick Gold of Australia
p1602
sg39
I2012
sg40
g2
(g41
g4
Ntp1603
Rp1604
(dp1605
g45
F-25.311001999999974
sg46
g9
sg47
F119.45075700000007
sbsbsVAUS0000224
p1606
g2
(g3
g4
Ntp1607
Rp1608
(dp1609
g8
g9
sg10
F30.0
sg11
VOrd River
p1610
sg13
Nsg14
g15
sg16
g17
sg18
g9
sg19
g1606
sg20
(lp1611
g2
(g22
g4
Ntp1612
Rp1613
(dp1614
g26
g9
sg27
Nsg28
Nsg29
Nsbasg26
g30
sg31
g32
((lp1615
g74
atp1616
Rp1617
sg37
VPacific Hydro Pty Ltd
p1618
sg39
I2012
sg40
g2
(g41
g4
Ntp1619
Rp1620
(dp1621
g45
F-16.120131999999955
sg46
g9
sg47
F128.73832500000003
sbsbsVAUS0000227
p1622
g2
(g3
g4
Ntp1623
Rp1624
(dp1625
g8
g9
sg10
F21.0
sg11
VWiluna Gold Mine
p1626
sg13
Nsg14
g15
sg16
g17
sg18
g9
sg19
g1622
sg20
(lp1627
g2
(g22
g4
Ntp1628
Rp1629
(dp1630
g26
g9
sg27
Nsg28
Nsg29
Nsbasg26
g30
sg31
g32
((lp1631
g34
atp1632
Rp1633
sg37
VApex Minerals
p1634
sg39
I2012
sg40
g2
(g41
g4
Ntp1635
Rp1636
(dp1637
g45
F-26.63156799999996
sg46
g9
sg47
F120.25188400000002
sbsbsVAUS0000226
p1638
g2
(g3
g4
Ntp1639
Rp1640
(dp1641
g8
g9
sg10
F28.4
sg11
VSunrise Dam
p1642
sg13
Nsg14
g15
sg16
g17
sg18
g9
sg19
g1638
sg20
(lp1643
g2
(g22
g4
Ntp1644
Rp1645
(dp1646
g26
g9
sg27
Nsg28
Nsg29
Nsbasg26
g30
sg31
g32
((lp1647
g34
atp1648
Rp1649
sg37
VEnergy Generation / AngloGold Ashanti
p1650
sg39
I2012
sg40
g2
(g41
g4
Ntp1651
Rp1652
(dp1653
g45
F-29.09268343599996
sg46
g9
sg47
F122.43928453500007
sbsbsVAUS0000049
p1654
g2
(g3
g4
Ntp1655
Rp1656
(dp1657
g8
g9
sg10
F1.1
sg11
VAwaba
p1658
sg13
Nsg14
g15
sg16
g17
sg18
g9
sg19
g1654
sg20
(lp1659
g2
(g22
g4
Ntp1660
Rp1661
(dp1662
g26
g9
sg27
Nsg28
Nsg29
Nsbasg26
g30
sg31
g32
((lp1663
g318
atp1664
Rp1665
sg37
VLMS Energy Generation Pty Ltd
p1666
sg39
I2012
sg40
g2
(g41
g4
Ntp1667
Rp1668
(dp1669
g45
F-33.02502999999996
sg46
g9
sg47
F151.5497190000001
sbsbsVAUS0000048
p1670
g2
(g3
g4
Ntp1671
Rp1672
(dp1673
g8
g9
sg10
F27.2
sg11
VBurrinjuck Power Station
p1674
sg13
Nsg14
g15
sg16
g17
sg18
g9
sg19
g1670
sg20
(lp1675
g2
(g22
g4
Ntp1676
Rp1677
(dp1678
g26
g9
sg27
Nsg28
Nsg29
Nsbasg26
g30
sg31
g32
((lp1679
g74
atp1680
Rp1681
sg37
VEraring Energy
p1682
sg39
I2012
sg40
g2
(g41
g4
Ntp1683
Rp1684
(dp1685
g45
F-35.00251999999995
sg46
g9
sg47
F148.58339300000011
sbsbsVAUS0000045
p1686
g2
(g3
g4
Ntp1687
Rp1688
(dp1689
g8
g9
sg10
F5.0
sg11
VEastern Creek
p1690
sg13
Nsg14
g15
sg16
g17
sg18
g9
sg19
g1686
sg20
(lp1691
g2
(g22
g4
Ntp1692
Rp1693
(dp1694
g26
g9
sg27
Nsg28
Nsg29
Nsbasg26
g30
sg31
g32
((lp1695
g318
atp1696
Rp1697
sg37
VEnergy Developments LFG(NSW) Pty Ltd
p1698
sg39
I2012
sg40
g2
(g41
g4
Ntp1699
Rp1700
(dp1701
g45
F-33.814156999999966
sg46
g9
sg47
F150.8537020000001
sbsbsVAUS0000044
p1702
g2
(g3
g4
Ntp1703
Rp1704
(dp1705
g8
g9
sg10
F7.7
sg11
VEastern Creek 2
p1706
sg13
Nsg14
g15
sg16
g17
sg18
g9
sg19
g1702
sg20
(lp1707
g2
(g22
g4
Ntp1708
Rp1709
(dp1710
g26
g9
sg27
Nsg28
Nsg29
Nsbasg26
g30
sg31
g32
((lp1711
g318
atp1712
Rp1713
sg37
VLMS Energy Generation Pty Ltd
p1714
sg39
I2012
sg40
g2
(g41
g4
Ntp1715
Rp1716
(dp1717
g45
F-33.81251499999996
sg46
g9
sg47
F150.86168300000008
sbsbsVAUS0000047
p1718
g2
(g3
g4
Ntp1719
Rp1720
(dp1721
g8
g9
sg10
F140.7
sg11
VCapital Wind Farm
p1722
sg13
Nsg14
g15
sg16
g17
sg18
g9
sg19
g1718
sg20
(lp1723
g2
(g22
g4
Ntp1724
Rp1725
(dp1726
g26
g9
sg27
Nsg28
Nsg29
Nsbasg26
g30
sg31
g32
((lp1727
g236
atp1728
Rp1729
sg37
VInfigen Energy Pty Ltd
p1730
sg39
I2012
sg40
g2
(g41
g4
Ntp1731
Rp1732
(dp1733
g45
F-35.16603062099995
sg46
g9
sg47
F149.51856862600005
sbsbsVAUS0000046
p1734
g2
(g3
g4
Ntp1735
Rp1736
(dp1737
g8
g9
sg10
F4.8
sg11
VCrookwell Wind Farm
p1738
sg13
Nsg14
g15
sg16
g17
sg18
g9
sg19
g1734
sg20
(lp1739
g2
(g22
g4
Ntp1740
Rp1741
(dp1742
g26
g9
sg27
Nsg28
Nsg29
Nsbasg26
g30
sg31
g32
((lp1743
g236
atp1744
Rp1745
sg37
VEraring Energy
p1746
sg39
I2012
sg40
g2
(g41
g4
Ntp1747
Rp1748
(dp1749
g45
F-34.51649999999995
sg46
g9
sg47
F149.54248000000007
sbsbsVAUS0000041
p1750
g2
(g3
g4
Ntp1751
Rp1752
(dp1753
g8
g9
sg10
F1.3
sg11
VGrange Avenue
p1754
sg13
Nsg14
g15
sg16
g17
sg18
g9
sg19
g1750
sg20
(lp1755
g2
(g22
g4
Ntp1756
Rp1757
(dp1758
g26
g9
sg27
Nsg28
Nsg29
Nsbasg26
g30
sg31
g32
((lp1759
g318
atp1760
Rp1761
sg37
VEnergy Developments LFG (NSW) Pty Ltd
p1762
sg39
I2012
sg40
g2
(g41
g4
Ntp1763
Rp1764
(dp1765
g45
F-33.70293799999996
sg46
g9
sg47
F150.8312330000001
sbsbsVAUS0000040
p1766
g2
(g3
g4
Ntp1767
Rp1768
(dp1769
g8
g9
sg10
F46.5
sg11
VGunning
p1770
sg13
Nsg14
g15
sg16
g17
sg18
g9
sg19
g1766
sg20
(lp1771
g2
(g22
g4
Ntp1772
Rp1773
(dp1774
g26
g9
sg27
Nsg28
Nsg29
Nsbasg26
g30
sg31
g32
((lp1775
g236
atp1776
Rp1777
sg37
VAcciona Energy Australia
p1778
sg39
I2012
sg40
g2
(g41
g4
Ntp1779
Rp1780
(dp1781
g45
F-34.695830899999976
sg46
g9
sg47
F149.3831752110001
sbsbsVAUS0000043
p1782
g2
(g3
g4
Ntp1783
Rp1784
(dp1785
g8
g9
sg10
F79.2
sg11
VEmu Downs Wind Farm
p1786
sg13
Nsg14
g15
sg16
g17
sg18
g9
sg19
g1782
sg20
(lp1787
g2
(g22
g4
Ntp1788
Rp1789
(dp1790
g26
g9
sg27
Nsg28
Nsg29
Nsbasg26
g30
sg31
g32
((lp1791
g236
atp1792
Rp1793
sg37
VGriffin Energy & Stanwell Corporation Ltd
p1794
sg39
I2012
sg40
g2
(g41
g4
Ntp1795
Rp1796
(dp1797
g45
F-30.488061999999957
sg46
g9
sg47
F115.33700500000009
sbsbsVAUS0000042
p1798
g2
(g3
g4
Ntp1799
Rp1800
(dp1801
g8
g9
sg10
F3.6
sg11
VEsperance Wind Farm Nine Mile Beach
p1802
sg13
Nsg14
g15
sg16
g17
sg18
g9
sg19
g1798
sg20
(lp1803
g2
(g22
g4
Ntp1804
Rp1805
(dp1806
g26
g9
sg27
Nsg28
Nsg29
Nsbasg26
g30
sg31
g32
((lp1807
g236
atp1808
Rp1809
sg37
VVerve Energy
p1810
sg39
I2012
sg40
g2
(g41
g4
Ntp1811
Rp1812
(dp1813
g45
F-33.892709999999965
sg46
g9
sg47
F121.77778
sbsbsVAUS0000346
p1814
g2
(g3
g4
Ntp1815
Rp1816
(dp1817
g8
g9
sg10
F7.5
sg11
VMaryborough
p1818
sg13
Nsg14
g15
sg16
g17
sg18
g9
sg19
g1814
sg20
(lp1819
g2
(g22
g4
Ntp1820
Rp1821
(dp1822
g26
g9
sg27
Nsg28
Nsg29
Nsbasg26
g30
sg31
g32
((lp1823
g398
atp1824
Rp1825
sg37
VMSF Sugar
p1826
sg39
I2012
sg40
g2
(g41
g4
Ntp1827
Rp1828
(dp1829
g45
F-25.547588004999966
sg46
g9
sg47
F152.7170960950001
sbsbsVAUS0000347
p1830
g2
(g3
g4
Ntp1831
Rp1832
(dp1833
g8
g9
sg10
F4.8
sg11
VStapylton Green Energy
p1834
sg13
Nsg14
g15
sg16
g17
sg18
g9
sg19
g1830
sg20
(lp1835
g2
(g22
g4
Ntp1836
Rp1837
(dp1838
g26
g9
sg27
Nsg28
Nsg29
Nsbasg26
g30
sg31
g32
((lp1839
g398
atp1840
Rp1841
sg37
VStapylton Green Energy
p1842
sg39
I2012
sg40
g2
(g41
g4
Ntp1843
Rp1844
(dp1845
g45
F-27.733448959999976
sg46
g9
sg47
F153.24630257800004
sbsbsVAUS0000403
p1846
g2
(g3
g4
Ntp1847
Rp1848
(dp1849
g8
g9
sg10
F0.4
sg11
VErskine Park
p1850
sg13
Nsg14
g15
sg16
g17
sg18
g9
sg19
g1846
sg20
(lp1851
g2
(g22
g4
Ntp1852
Rp1853
(dp1854
g26
g9
sg27
Nsg28
Nsg29
Nsbasg26
g30
sg31
g32
((lp1855
g34
atp1856
Rp1857
sg37
VCogent Energy
p1858
sg39
I2012
sg40
g2
(g41
g4
Ntp1859
Rp1860
(dp1861
g45
F-33.81820658899994
sg46
g9
sg47
F150.80322730700004
sbsbsVAUS0000402
p1862
g2
(g3
g4
Ntp1863
Rp1864
(dp1865
g8
g9
sg10
F0.8
sg11
VClub Merrylands
p1866
sg13
Nsg14
g15
sg16
g17
sg18
g9
sg19
g1862
sg20
(lp1867
g2
(g22
g4
Ntp1868
Rp1869
(dp1870
g26
g9
sg27
Nsg28
Nsg29
Nsbasg26
g30
sg31
g32
((lp1871
g269
atp1872
Rp1873
sg37
VClub Merrylands
p1874
sg39
I2012
sg40
g2
(g41
g4
Ntp1875
Rp1876
(dp1877
g45
F-33.83811554999994
sg46
g9
sg47
F150.99050381200004
sbsbsVAUS0000348
p1878
g2
(g3
g4
Ntp1879
Rp1880
(dp1881
g8
g9
sg10
F0.6
sg11
VBremer Bay Wind Turbine
p1882
sg13
Nsg14
g15
sg16
g17
sg18
g9
sg19
g1878
sg20
(lp1883
g2
(g22
g4
Ntp1884
Rp1885
(dp1886
g26
g9
sg27
Nsg28
Nsg29
Nsbasg26
g30
sg31
g32
((lp1887
g236
atp1888
Rp1889
sg37
VVerve Energy
p1890
sg39
I2012
sg40
g2
(g41
g4
Ntp1891
Rp1892
(dp1893
g45
F-34.399007154999936
sg46
g9
sg47
F119.39148142400006
sbsbsVAUS0000376
p1894
g2
(g3
g4
Ntp1895
Rp1896
(dp1897
g8
g9
sg10
F0.5
sg11
VBlue Lake Milling Power Plant
p1898
sg13
Nsg14
g15
sg16
g17
sg18
g9
sg19
g1894
sg20
(lp1899
g2
(g22
g4
Ntp1900
Rp1901
(dp1902
g26
g9
sg27
Nsg28
Nsg29
Nsbasg26
g30
sg31
g32
((lp1903
g269
atp1904
Rp1905
sg37
VVibe Energy Pty Ltd
p1906
sg39
I2012
sg40
g2
(g41
g4
Ntp1907
Rp1908
(dp1909
g45
F-36.31643279399998
sg46
g9
sg47
F140.7574619190001
sbsbsVAUS0000349
p1910
g2
(g3
g4
Ntp1911
Rp1912
(dp1913
g8
g9
sg10
F1.3
sg11
VBremer Bay Diesel Backup
p1914
sg13
Nsg14
g15
sg16
g17
sg18
g9
sg19
g1910
sg20
(lp1915
g2
(g22
g4
Ntp1916
Rp1917
(dp1918
g26
g9
sg27
Nsg28
Nsg29
Nsbasg26
g30
sg31
g32
((lp1919
g269
atp1920
Rp1921
sg37
VVerve Energy
p1922
sg39
I2012
sg40
g2
(g41
g4
Ntp1923
Rp1924
(dp1925
g45
F-34.40182817799996
sg46
g9
sg47
F119.38880433100007
sbsbsVAUS0000409
p1926
g2
(g3
g4
Ntp1927
Rp1928
(dp1929
g8
g9
sg10
F4.43
sg11
VLeonora
p1930
sg13
Nsg14
g15
sg16
g17
sg18
g9
sg19
g1926
sg20
(lp1931
g2
(g22
g4
Ntp1932
Rp1933
(dp1934
g26
g9
sg27
Nsg28
Nsg29
Nsbasg26
g30
sg31
g32
((lp1935
g34
atp1936
Rp1937
sg37
VEnergy Developments
p1938
sg39
I2012
sg40
g2
(g41
g4
Ntp1939
Rp1940
(dp1941
g45
F-28.881076375999953
sg46
g9
sg47
F121.32127466800011
sbsbsVAUS0000408
p1942
g2
(g3
g4
Ntp1943
Rp1944
(dp1945
g8
g9
sg10
F2.9
sg11
VMeekatharra
p1946
sg13
Nsg14
g15
sg16
g17
sg18
g9
sg19
g1942
sg20
(lp1947
g2
(g22
g4
Ntp1948
Rp1949
(dp1950
g26
g9
sg27
Nsg28
Nsg29
Nsbasg26
g30
sg31
g32
((lp1951
g269
atp1952
Rp1953
sg37
VEnergy Developments
p1954
sg39
I2012
sg40
g2
(g41
g4
Ntp1955
Rp1956
(dp1957
g45
F-26.59517155499998
sg46
g9
sg47
F118.48302202900004
sbsbsVAUS0000438
p1958
g2
(g3
g4
Ntp1959
Rp1960
(dp1961
g8
g9
sg10
F1.5
sg11
VCSIRO Energy Centre
p1962
sg13
Nsg14
g15
sg16
g17
sg18
g9
sg19
g1958
sg20
(lp1963
g2
(g22
g4
Ntp1964
Rp1965
(dp1966
g26
g9
sg27
Nsg28
Nsg29
Nsbasg26
g30
sg31
g32
((lp1967
g1279
atp1968
Rp1969
sg37
VCSIRO
p1970
sg39
I2012
sg40
g2
(g41
g4
Ntp1971
Rp1972
(dp1973
g45
F-32.88347300399994
sg46
g9
sg47
F151.72745249100012
sbsbsVAUS0000439
p1974
g2
(g3
g4
Ntp1975
Rp1976
(dp1977
g8
g9
sg10
F0.67
sg11
VNewington Solar Suburb
p1978
sg13
Nsg14
g15
sg16
g17
sg18
g9
sg19
g1974
sg20
(lp1979
g2
(g22
g4
Ntp1980
Rp1981
(dp1982
g26
g9
sg27
Nsg28
Nsg29
Nsbasg26
g30
sg31
g32
((lp1983
g1279
atp1984
Rp1985
sg37
VPacific Power
p1986
sg39
I2012
sg40
g2
(g41
g4
Ntp1987
Rp1988
(dp1989
g45
F-33.841292099999976
sg46
g9
sg47
F151.0538161280001
sbsbsVAUS0000430
p1990
g2
(g3
g4
Ntp1991
Rp1992
(dp1993
g8
g9
sg10
F0.25
sg11
VQueen Victoria Market Solar Array
p1994
sg13
Nsg14
g15
sg16
g17
sg18
g9
sg19
g1990
sg20
(lp1995
g2
(g22
g4
Ntp1996
Rp1997
(dp1998
g26
g9
sg27
Nsg28
Nsg29
Nsbasg26
g30
sg31
g32
((lp1999
g1279
atp2000
Rp2001
sg37
VMelbourne City Council
p2002
sg39
I2012
sg40
g2
(g41
g4
Ntp2003
Rp2004
(dp2005
g45
F-37.80694397399998
sg46
g9
sg47
F144.9569437770001
sbsbsVAUS0000431
p2006
g2
(g3
g4
Ntp2007
Rp2008
(dp2009
g8
g9
sg10
F0.3
sg11
VBendigo Solar Park
p2010
sg13
Nsg14
g15
sg16
g17
sg18
g9
sg19
g2006
sg20
(lp2011
g2
(g22
g4
Ntp2012
Rp2013
(dp2014
g26
g9
sg27
Nsg28
Nsg29
Nsbasg26
g30
sg31
g32
((lp2015
g1279
atp2016
Rp2017
sg37
VCentral Victoria Solar City Consortium
p2018
sg39
I2012
sg40
g2
(g41
g4
Ntp2019
Rp2020
(dp2021
g45
F-36.67475241999995
sg46
g9
sg47
F144.3032389540001
sbsbsVAUS0000432
p2022
g2
(g3
g4
Ntp2023
Rp2024
(dp2025
g8
g9
sg10
F1.0
sg11
VAdelaide Showgrounds
p2026
sg13
Nsg14
g15
sg16
g17
sg18
g9
sg19
g2022
sg20
(lp2027
g2
(g22
g4
Ntp2028
Rp2029
(dp2030
g26
g9
sg27
Nsg28
Nsg29
Nsbasg26
g30
sg31
g32
((lp2031
g1279
atp2032
Rp2033
sg37
VAdelaide Showgrounds
p2034
sg39
I2012
sg40
g2
(g41
g4
Ntp2035
Rp2036
(dp2037
g45
F-34.94528525499993
sg46
g9
sg47
F138.58819351300008
sbsbsVAUS0000370
p2038
g2
(g3
g4
Ntp2039
Rp2040
(dp2041
g8
g9
sg10
F12.4
sg11
VKununurra
p2042
sg13
Nsg14
g15
sg16
g17
sg18
g9
sg19
g2038
sg20
(lp2043
g2
(g22
g4
Ntp2044
Rp2045
(dp2046
g26
g9
sg27
Nsg28
Nsg29
Nsbasg26
g30
sg31
g32
((lp2047
g269
atp2048
Rp2049
sg37
VHorizon Power
p2050
sg39
I2012
sg40
g2
(g41
g4
Ntp2051
Rp2052
(dp2053
g45
F-15.779556778999961
sg46
g9
sg47
F128.73946199400007
sbsbsVAUS0000434
p2054
g2
(g3
g4
Ntp2055
Rp2056
(dp2057
g8
g9
sg10
F0.34
sg11
VTownsville RSL Stadium Solar Array
p2058
sg13
Nsg14
g15
sg16
g17
sg18
g9
sg19
g2054
sg20
(lp2059
g2
(g22
g4
Ntp2060
Rp2061
(dp2062
g26
g9
sg27
Nsg28
Nsg29
Nsbasg26
g30
sg31
g32
((lp2063
g1279
atp2064
Rp2065
sg37
VTownsville RSL Stadium
p2066
sg39
I2012
sg40
g2
(g41
g4
Ntp2067
Rp2068
(dp2069
g45
F-19.307861025999955
sg46
g9
sg47
F146.8010542510001
sbsbsVAUS0000435
p2070
g2
(g3
g4
Ntp2071
Rp2072
(dp2073
g8
g9
sg10
F0.4
sg11
VFraser Coast Community Solar Farm
p2074
sg13
Nsg14
g15
sg16
g17
sg18
g9
sg19
g2070
sg20
(lp2075
g2
(g22
g4
Ntp2076
Rp2077
(dp2078
g26
g9
sg27
Nsg28
Nsg29
Nsbasg26
g30
sg31
g32
((lp2079
g1279
atp2080
Rp2081
sg37
VWide Bay Water Corporation
p2082
sg39
I2012
sg40
g2
(g41
g4
Ntp2083
Rp2084
(dp2085
g45
F-25.318398602999935
sg46
g9
sg47
F152.7901683220001
sbsbsVAUS0000436
p2086
g2
(g3
g4
Ntp2087
Rp2088
(dp2089
g8
g9
sg10
F0.22
sg11
VMetricon (Gold Coast) Stadium Solar Array
p2090
sg13
Nsg14
g15
sg16
g17
sg18
g9
sg19
g2086
sg20
(lp2091
g2
(g22
g4
Ntp2092
Rp2093
(dp2094
g26
g9
sg27
Nsg28
Nsg29
Nsbasg26
g30
sg31
g32
((lp2095
g1279
atp2096
Rp2097
sg37
VMetricon Stadium
p2098
sg39
I2012
sg40
g2
(g41
g4
Ntp2099
Rp2100
(dp2101
g45
F-28.00627412299997
sg46
g9
sg47
F153.36711828600005
sbsbsVAUS0000437
p2102
g2
(g3
g4
Ntp2103
Rp2104
(dp2105
g8
g9
sg10
F0.29
sg11
VCarnarvon Solar Farm
p2106
sg13
Nsg14
g15
sg16
g17
sg18
g9
sg19
g2102
sg20
(lp2107
g2
(g22
g4
Ntp2108
Rp2109
(dp2110
g26
g9
sg27
Nsg28
Nsg29
Nsbasg26
g30
sg31
g32
((lp2111
g1279
atp2112
Rp2113
sg37
VEMC Solar
p2114
sg39
I2012
sg40
g2
(g41
g4
Ntp2115
Rp2116
(dp2117
g45
F-24.897029118999967
sg46
g9
sg47
F113.6741161000001
sbsbsVAUS0000382
p2118
g2
(g3
g4
Ntp2119
Rp2120
(dp2121
g8
g9
sg10
F1.3
sg11
VBidyadanga
p2122
sg13
Nsg14
g15
sg16
g17
sg18
g9
sg19
g2118
sg20
(lp2123
g2
(g22
g4
Ntp2124
Rp2125
(dp2126
g26
g9
sg27
Nsg28
Nsg29
Nsbasg26
g30
sg31
g32
((lp2127
g269
atp2128
Rp2129
sg37
VEnergy Developments Ltd
p2130
sg39
I2012
sg40
g2
(g41
g4
Ntp2131
Rp2132
(dp2133
g45
F-18.68162717399997
sg46
g9
sg47
F121.78478093100011
sbsbsVAUS0000276
p2134
g2
(g3
g4
Ntp2135
Rp2136
(dp2137
g8
g9
sg10
F10.0
sg11
VGlennies Creek
p2138
sg13
Nsg14
g15
sg16
g17
sg18
g9
sg19
g2134
sg20
(lp2139
g2
(g22
g4
Ntp2140
Rp2141
(dp2142
g26
g9
sg27
Nsg28
Nsg29
Nsbasg26
g30
sg31
g32
((lp2143
g34
atp2144
Rp2145
sg37
VEnviroGen Pty Ltd
p2146
sg39
I2012
sg40
g2
(g41
g4
Ntp2147
Rp2148
(dp2149
g45
F-32.45984299999998
sg46
g9
sg47
F151.12862700000005
sbsbsVAUS0000380
p2150
g2
(g3
g4
Ntp2151
Rp2152
(dp2153
g8
g9
sg10
F0.7
sg11
VDjarindjin
p2154
sg13
Nsg14
g15
sg16
g17
sg18
g9
sg19
g2150
sg20
(lp2155
g2
(g22
g4
Ntp2156
Rp2157
(dp2158
g26
g9
sg27
Nsg28
Nsg29
Nsbasg26
g30
sg31
g32
((lp2159
g269
atp2160
Rp2161
sg37
VEnergy Developments Ltd
p2162
sg39
I2012
sg40
g2
(g41
g4
Ntp2163
Rp2164
(dp2165
g45
F-16.519907689999968
sg46
g9
sg47
F122.9035895080001
sbsbsVAUS0000381
p2166
g2
(g3
g4
Ntp2167
Rp2168
(dp2169
g8
g9
sg10
F0.7
sg11
VBeagle Bay
p2170
sg13
Nsg14
g15
sg16
g17
sg18
g9
sg19
g2166
sg20
(lp2171
g2
(g22
g4
Ntp2172
Rp2173
(dp2174
g26
g9
sg27
Nsg28
Nsg29
Nsbasg26
g30
sg31
g32
((lp2175
g269
atp2176
Rp2177
sg37
VEnergy Developments Ltd
p2178
sg39
I2012
sg40
g2
(g41
g4
Ntp2179
Rp2180
(dp2181
g45
F-16.993900064999934
sg46
g9
sg47
F122.65850864600009
sbsbsVAUS0000386
p2182
g2
(g3
g4
Ntp2183
Rp2184
(dp2185
g8
g9
sg10
F15.0
sg11
VCarnarvon
p2186
sg13
Nsg14
g15
sg16
g17
sg18
g9
sg19
g2182
sg20
(lp2187
g2
(g22
g4
Ntp2188
Rp2189
(dp2190
g26
g9
sg27
Nsg28
Nsg29
Nsbasg26
g30
sg31
g32
((lp2191
g34
atp2192
Rp2193
sg37
g9
sg39
I2012
sg40
g2
(g41
g4
Ntp2194
Rp2195
(dp2196
g45
F-24.86915967899995
sg46
g9
sg47
F113.67537540600006
sbsbsVAUS0000387
p2197
g2
(g3
g4
Ntp2198
Rp2199
(dp2200
g8
g9
sg10
F18.0
sg11
VMungullah
p2201
sg13
Nsg14
g15
sg16
g17
sg18
g9
sg19
g2197
sg20
(lp2202
g2
(g22
g4
Ntp2203
Rp2204
(dp2205
g26
g9
sg27
Nsg28
Nsg29
Nsbasg26
g30
sg31
g32
((lp2206
g34
atp2207
Rp2208
sg37
VHorizon Power
p2209
sg39
I2012
sg40
g2
(g41
g4
Ntp2210
Rp2211
(dp2212
g45
F-24.891051455999957
sg46
g9
sg47
F113.7095328040001
sbsbsVAUS0000384
p2213
g2
(g3
g4
Ntp2214
Rp2215
(dp2216
g8
g9
sg10
F1.3
sg11
VWiluna
p2217
sg13
Nsg14
g15
sg16
g17
sg18
g9
sg19
g2213
sg20
(lp2218
g2
(g22
g4
Ntp2219
Rp2220
(dp2221
g26
g9
sg27
Nsg28
Nsg29
Nsbasg26
g30
sg31
g32
((lp2222
g269
atp2223
Rp2224
sg37
VEnergy Developments
p2225
sg39
I2012
sg40
g2
(g41
g4
Ntp2226
Rp2227
(dp2228
g45
F-26.592159892999973
sg46
g9
sg47
F120.21850892600003
sbsbsVAUS0000277
p2229
g2
(g3
g4
Ntp2230
Rp2231
(dp2232
g8
g9
sg10
F29.0
sg11
VHunter
p2233
sg13
Nsg14
g15
sg16
g17
sg18
g9
sg19
g2229
sg20
(lp2234
g2
(g22
g4
Ntp2235
Rp2236
(dp2237
g26
g9
sg27
Nsg28
Nsg29
Nsbasg26
g30
sg31
g32
((lp2238
g269
atp2239
Rp2240
sg37
VInfratil Energy Australia Pty Ltd
p2241
sg39
I2012
sg40
g2
(g41
g4
Ntp2242
Rp2243
(dp2244
g45
F-32.83602099999996
sg46
g9
sg47
F151.4504710000001
sbsbsVAUS0000388
p2245
g2
(g3
g4
Ntp2246
Rp2247
(dp2248
g8
g9
sg10
F0.06
sg11
VExmouth Advanced Mini Wind Farm
p2249
sg13
Nsg14
g15
sg16
g17
sg18
g9
sg19
g2245
sg20
(lp2250
g2
(g22
g4
Ntp2251
Rp2252
(dp2253
g26
g9
sg27
Nsg28
Nsg29
Nsbasg26
g30
sg31
g32
((lp2254
g236
atp2255
Rp2256
sg37
g9
sg39
I2012
sg40
g2
(g41
g4
Ntp2257
Rp2258
(dp2259
g45
F-21.812631499999952
sg46
g9
sg47
F114.1335056480001
sbsbsVAUS0000389
p2260
g2
(g3
g4
Ntp2261
Rp2262
(dp2263
g8
g9
sg10
F120.0
sg11
VWorsley
p2264
sg13
Nsg14
g15
sg16
g17
sg18
g9
sg19
g2260
sg20
(lp2265
g2
(g22
g4
Ntp2266
Rp2267
(dp2268
g26
g9
sg27
Nsg28
Nsg29
Nsbasg26
g30
sg31
g32
((lp2269
g91
atp2270
Rp2271
sg37
VBHP
p2272
sg39
I2012
sg40
g2
(g41
g4
Ntp2273
Rp2274
(dp2275
g45
F-33.235493273999964
sg46
g9
sg47
F116.06879749400002
sbsbsVAUS0000265
p2276
g2
(g3
g4
Ntp2277
Rp2278
(dp2279
g8
g9
sg10
F2640.0
sg11
VBayswater
p2280
sg13
Nsg14
g15
sg16
g17
sg18
g9
sg19
g2276
sg20
(lp2281
g2
(g22
g4
Ntp2282
Rp2283
(dp2284
g26
g9
sg27
Nsg28
Nsg29
Nsbasg26
g30
sg31
g32
((lp2285
g91
atp2286
Rp2287
sg37
VMacquarie Generation
p2288
sg39
I2012
sg40
g2
(g41
g4
Ntp2289
Rp2290
(dp2291
g45
F-32.39526999999998
sg46
g9
sg47
F150.94913000000008
sbsbsVAUS0000264
p2292
g2
(g3
g4
Ntp2293
Rp2294
(dp2295
g8
g9
sg10
F59.7
sg11
VAppin (Mine)
p2296
sg13
Nsg14
g15
sg16
g17
sg18
g9
sg19
g2292
sg20
(lp2297
g2
(g22
g4
Ntp2298
Rp2299
(dp2300
g26
g9
sg27
Nsg28
Nsg29
Nsbasg26
g30
sg31
g32
((lp2301
g34
atp2302
Rp2303
sg37
VEnergy Developments CSM (NSW) Pty Ltd
p2304
sg39
I2012
sg40
g2
(g41
g4
Ntp2305
Rp2306
(dp2307
g45
F-34.20818499999996
sg46
g9
sg47
F150.77218100000005
sbsbsVAUS0000267
p2308
g2
(g3
g4
Ntp2309
Rp2310
(dp2311
g8
g9
sg10
F70.0
sg11
VBlowering
p2312
sg13
Nsg14
g15
sg16
g17
sg18
g9
sg19
g2308
sg20
(lp2313
g2
(g22
g4
Ntp2314
Rp2315
(dp2316
g26
g9
sg27
Nsg28
Nsg29
Nsbasg26
g30
sg31
g32
((lp2317
g74
atp2318
Rp2319
sg37
VSnowy Hydro Ltd
p2320
sg39
I2012
sg40
g2
(g41
g4
Ntp2321
Rp2322
(dp2323
g45
F-35.39860099999993
sg46
g9
sg47
F148.2462720000001
sbsbsVAUS0000266
p2324
g2
(g3
g4
Ntp2325
Rp2326
(dp2327
g8
g9
sg10
F80.0
sg11
VBendeela (Shoalhaven Scheme)
p2328
sg13
Nsg14
g15
sg16
g17
sg18
g9
sg19
g2324
sg20
(lp2329
g2
(g22
g4
Ntp2330
Rp2331
(dp2332
g26
g9
sg27
Nsg28
Nsg29
Nsbasg26
g30
sg31
g32
((lp2333
g74
atp2334
Rp2335
sg37
VOrigin Energy
p2336
sg39
I2012
sg40
g2
(g41
g4
Ntp2337
Rp2338
(dp2339
g45
F-34.73368999999997
sg46
g9
sg47
F150.46687000000009
sbsbsVAUS0000261
p2340
g2
(g3
g4
Ntp2341
Rp2342
(dp2343
g8
g9
sg10
F232.0
sg11
VChannel Island
p2344
sg13
Nsg14
g15
sg16
g17
sg18
g9
sg19
g2340
sg20
(lp2345
g2
(g22
g4
Ntp2346
Rp2347
(dp2348
g26
g9
sg27
Nsg28
Nsg29
Nsbasg26
g30
sg31
g32
((lp2349
g34
atp2350
Rp2351
sg37
VNT Power and Water
p2352
sg39
I2012
sg40
g2
(g41
g4
Ntp2353
Rp2354
(dp2355
g45
F-12.554992999999968
sg46
g9
sg47
F130.8665870000001
sbsbsVAUS0000149
p2356
g2
(g3
g4
Ntp2357
Rp2358
(dp2359
g8
g9
sg10
F385.0
sg11
VSwanbank E
p2360
sg13
Nsg14
g15
sg16
g17
sg18
g9
sg19
g2356
sg20
(lp2361
g2
(g22
g4
Ntp2362
Rp2363
(dp2364
g26
g9
sg27
Nsg28
Nsg29
Nsbasg26
g30
sg31
g32
((lp2365
g34
atp2366
Rp2367
sg37
VCS Energy
p2368
sg39
I2012
sg40
g2
(g41
g4
Ntp2369
Rp2370
(dp2371
g45
F-27.655373999999938
sg46
g9
sg47
F152.81793800000003
sbsbsVAUS0000263
p2372
g2
(g3
g4
Ntp2373
Rp2374
(dp2375
g8
g9
sg10
F30.0
sg11
VCondong Sugar Mill
p2376
sg13
Nsg14
g15
sg16
g17
sg18
g9
sg19
g2372
sg20
(lp2377
g2
(g22
g4
Ntp2378
Rp2379
(dp2380
g26
g9
sg27
Nsg28
Nsg29
Nsbasg26
g30
sg31
g32
((lp2381
g398
atp2382
Rp2383
sg37
VDelta Electricity
p2384
sg39
I2012
sg40
g2
(g41
g4
Ntp2385
Rp2386
(dp2387
g45
F-28.313801999999953
sg46
g9
sg47
F153.43411000000003
sbsbsVAUS0000262
p2388
g2
(g3
g4
Ntp2389
Rp2390
(dp2391
g8
g9
sg10
F19.0
sg11
VWarrego
p2392
sg13
Nsg14
g15
sg16
g17
sg18
g9
sg19
g2388
sg20
(lp2393
g2
(g22
g4
Ntp2394
Rp2395
(dp2396
g26
g9
sg27
Nsg28
Nsg29
Nsbasg26
g30
sg31
g32
((lp2397
g34
atp2398
Rp2399
sg37
g9
sg39
I2012
sg40
g2
(g41
g4
Ntp2400
Rp2401
(dp2402
g45
F-19.443392999999958
sg46
g9
sg47
F133.8235870000001
sbsbsVAUS0000144
p2403
g2
(g3
g4
Ntp2404
Rp2405
(dp2406
g8
g9
sg10
F100.0
sg11
VCethana
p2407
sg13
Nsg14
g15
sg16
g17
sg18
g9
sg19
g2403
sg20
(lp2408
g2
(g22
g4
Ntp2409
Rp2410
(dp2411
g26
g9
sg27
Nsg28
Nsg29
Nsbasg26
g30
sg31
g32
((lp2412
g74
atp2413
Rp2414
sg37
VHydro-Electric Corporation (Tasmania)
p2415
sg39
I2012
sg40
g2
(g41
g4
Ntp2416
Rp2417
(dp2418
g45
F-41.48023699999993
sg46
g9
sg47
F146.13484900000003
sbsbsVAUS0000145
p2419
g2
(g3
g4
Ntp2420
Rp2421
(dp2422
g8
g9
sg10
F10.5
sg11
VInkerman Sugar Mill
p2423
sg13
Nsg14
g15
sg16
g17
sg18
g9
sg19
g2419
sg20
(lp2424
g2
(g22
g4
Ntp2425
Rp2426
(dp2427
g26
g9
sg27
Nsg28
Nsg29
Nsbasg26
g30
sg31
g32
((lp2428
g398
atp2429
Rp2430
sg37
VCSR
p2431
sg39
I2012
sg40
g2
(g41
g4
Ntp2432
Rp2433
(dp2434
g45
F-19.642154999999946
sg46
g9
sg47
F147.40159100000005
sbsbsVAUS0000146
p2435
g2
(g3
g4
Ntp2436
Rp2437
(dp2438
g8
g9
sg10
F34.0
sg11
VMackay
p2439
sg13
Nsg14
g15
sg16
g17
sg18
g9
sg19
g2435
sg20
(lp2440
g2
(g22
g4
Ntp2441
Rp2442
(dp2443
g26
g9
sg27
Nsg28
Nsg29
Nsbasg26
g30
sg31
g32
((lp2444
g34
atp2445
Rp2446
sg37
VStanwell Corporation Ltd
p2447
sg39
I2012
sg40
g2
(g41
g4
Ntp2448
Rp2449
(dp2450
g45
F-21.14456599999994
sg46
g9
sg47
F149.1590970000001
sbsbsVAUS0000147
p2451
g2
(g3
g4
Ntp2452
Rp2453
(dp2454
g8
g9
sg10
F80.0
sg11
VRoma
p2455
sg13
Nsg14
g15
sg16
g17
sg18
g9
sg19
g2451
sg20
(lp2456
g2
(g22
g4
Ntp2457
Rp2458
(dp2459
g26
g9
sg27
Nsg28
Nsg29
Nsbasg26
g30
sg31
g32
((lp2460
g34
atp2461
Rp2462
sg37
VOrigin Energy
p2463
sg39
I2012
sg40
g2
(g41
g4
Ntp2464
Rp2465
(dp2466
g45
F-26.577200999999945
sg46
g9
sg47
F148.8401990000001
sbsbsVAUS0000269
p2467
g2
(g3
g4
Ntp2468
Rp2469
(dp2470
g8
g9
sg10
F5.4
sg11
VBrown Mountain
p2471
sg13
Nsg14
g15
sg16
g17
sg18
g9
sg19
g2467
sg20
(lp2472
g2
(g22
g4
Ntp2473
Rp2474
(dp2475
g26
g9
sg27
Nsg28
Nsg29
Nsbasg26
g30
sg31
g32
((lp2476
g74
atp2477
Rp2478
sg37
VEraring Energy
p2479
sg39
I2012
sg40
g2
(g41
g4
Ntp2480
Rp2481
(dp2482
g45
F-36.595144999999945
sg46
g9
sg47
F149.47410700000012
sbsbsVAUS0000141
p2483
g2
(g3
g4
Ntp2484
Rp2485
(dp2486
g8
g9
sg10
F238.0
sg11
VReece
p2487
sg13
Nsg14
g15
sg16
g17
sg18
g9
sg19
g2483
sg20
(lp2488
g2
(g22
g4
Ntp2489
Rp2490
(dp2491
g26
g9
sg27
Nsg28
Nsg29
Nsbasg26
g30
sg31
g32
((lp2492
g74
atp2493
Rp2494
sg37
VHydro-Electric Corporation (Tasmania)
p2495
sg39
I2012
sg40
g2
(g41
g4
Ntp2496
Rp2497
(dp2498
g45
F-41.723769999999945
sg46
g9
sg47
F145.1359480000001
sbsbsVAUS0000142
p2499
g2
(g3
g4
Ntp2500
Rp2501
(dp2502
g8
g9
sg10
F81.0
sg11
VMackintosh
p2503
sg13
Nsg14
g15
sg16
g17
sg18
g9
sg19
g2499
sg20
(lp2504
g2
(g22
g4
Ntp2505
Rp2506
(dp2507
g26
g9
sg27
Nsg28
Nsg29
Nsbasg26
g30
sg31
g32
((lp2508
g74
atp2509
Rp2510
sg37
VHydro-Electric Corporation (Tasmania)
p2511
sg39
I2012
sg40
g2
(g41
g4
Ntp2512
Rp2513
(dp2514
g45
F-41.69974999999994
sg46
g9
sg47
F145.6461190000001
sbsbsVAUS0000143
p2515
g2
(g3
g4
Ntp2516
Rp2517
(dp2518
g8
g9
sg10
F432.0
sg11
VGordon
p2519
sg13
Nsg14
g15
sg16
g17
sg18
g9
sg19
g2515
sg20
(lp2520
g2
(g22
g4
Ntp2521
Rp2522
(dp2523
g26
g9
sg27
Nsg28
Nsg29
Nsbasg26
g30
sg31
g32
((lp2524
g74
atp2525
Rp2526
sg37
VHydro-Electric Corporation (Tasmania)
p2527
sg39
I2012
sg40
g2
(g41
g4
Ntp2528
Rp2529
(dp2530
g45
F-42.73864199999997
sg46
g9
sg47
F145.98116500000003
sbsbsVAUS0000176
p2531
g2
(g3
g4
Ntp2532
Rp2533
(dp2534
g8
g9
sg10
F900.0
sg11
VCallide C
p2535
sg13
Nsg14
g15
sg16
g17
sg18
g9
sg19
g2531
sg20
(lp2536
g2
(g22
g4
Ntp2537
Rp2538
(dp2539
g26
g9
sg27
Nsg28
Nsg29
Nsbasg26
g30
sg31
g32
((lp2540
g91
atp2541
Rp2542
sg37
VCS Energy
p2543
sg39
I2012
sg40
g2
(g41
g4
Ntp2544
Rp2545
(dp2546
g45
F-24.344945999999936
sg46
g9
sg47
F150.61818100000005
sbsbsVAUS0000319
p2547
g2
(g3
g4
Ntp2548
Rp2549
(dp2550
g8
g9
sg10
F0.8
sg11
VUniversity of New South Wales
p2551
sg13
Nsg14
g15
sg16
g17
sg18
g9
sg19
g2547
sg20
(lp2552
g2
(g22
g4
Ntp2553
Rp2554
(dp2555
g26
g9
sg27
Nsg28
Nsg29
Nsbasg26
g30
sg31
g32
((lp2556
g34
atp2557
Rp2558
sg37
VCogent Energy
p2559
sg39
I2012
sg40
g2
(g41
g4
Ntp2560
Rp2561
(dp2562
g45
F-33.916704281999955
sg46
g9
sg47
F151.23535272300012
sbsbsVAUS0000318
p2563
g2
(g3
g4
Ntp2564
Rp2565
(dp2566
g8
g9
sg10
F1.5
sg11
VSt George Leagues Club
p2567
sg13
Nsg14
g15
sg16
g17
sg18
g9
sg19
g2563
sg20
(lp2568
g2
(g22
g4
Ntp2569
Rp2570
(dp2571
g26
g9
sg27
Nsg28
Nsg29
Nsbasg26
g30
sg31
g32
((lp2572
g269
atp2573
Rp2574
sg37
VSt George Leagues Club
p2575
sg39
I2012
sg40
g2
(g41
g4
Ntp2576
Rp2577
(dp2578
g45
F-33.97481738299996
sg46
g9
sg47
F151.1293810090001
sbsbsVAUS0000177
p2579
g2
(g3
g4
Ntp2580
Rp2581
(dp2582
g8
g9
sg10
F700.0
sg11
VCallide B
p2583
sg13
Nsg14
g15
sg16
g17
sg18
g9
sg19
g2579
sg20
(lp2584
g2
(g22
g4
Ntp2585
Rp2586
(dp2587
g26
g9
sg27
Nsg28
Nsg29
Nsbasg26
g30
sg31
g32
((lp2588
g91
atp2589
Rp2590
sg37
VCS Energy
p2591
sg39
I2012
sg40
g2
(g41
g4
Ntp2592
Rp2593
(dp2594
g45
F-24.344879999999932
sg46
g9
sg47
F150.61974900000007
sbsbsVAUS0000311
p2595
g2
(g3
g4
Ntp2596
Rp2597
(dp2598
g8
g9
sg10
F17.0
sg11
VProserpine Sugar Mill
p2599
sg13
Nsg14
g15
sg16
g17
sg18
g9
sg19
g2595
sg20
(lp2600
g2
(g22
g4
Ntp2601
Rp2602
(dp2603
g26
g9
sg27
Nsg28
Nsg29
Nsbasg26
g30
sg31
g32
((lp2604
g398
atp2605
Rp2606
sg37
VSucrogen
p2607
sg39
I2012
sg40
g2
(g41
g4
Ntp2608
Rp2609
(dp2610
g45
F-20.398544758999947
sg46
g9
sg47
F148.57971634900002
sbsbsVAUS0000310
p2611
g2
(g3
g4
Ntp2612
Rp2613
(dp2614
g8
g9
sg10
F21.4
sg11
VTully Sugar Mill
p2615
sg13
Nsg14
g15
sg16
g17
sg18
g9
sg19
g2611
sg20
(lp2616
g2
(g22
g4
Ntp2617
Rp2618
(dp2619
g26
g9
sg27
Nsg28
Nsg29
Nsbasg26
g30
sg31
g32
((lp2620
g398
atp2621
Rp2622
sg37
VCOFCO
p2623
sg39
I2012
sg40
g2
(g41
g4
Ntp2624
Rp2625
(dp2626
g45
F-17.937317647999976
sg46
g9
sg47
F145.92665248700007
sbsbsVAUS0000313
p2627
g2
(g3
g4
Ntp2628
Rp2629
(dp2630
g8
g9
sg10
F0.8
sg11
VSydney
p2631
sg13
Nsg14
g15
sg16
g17
sg18
g9
sg19
g2627
sg20
(lp2632
g2
(g22
g4
Ntp2633
Rp2634
(dp2635
g26
g9
sg27
Nsg28
Nsg29
Nsbasg26
g30
sg31
g32
((lp2636
g34
atp2637
Rp2638
sg37
VCogent Energy
p2639
sg39
I2012
sg40
g2
(g41
g4
Ntp2640
Rp2641
(dp2642
g45
F-33.87154700199994
sg46
g9
sg47
F151.20910002800008
sbsbsVAUS0000312
p2643
g2
(g3
g4
Ntp2644
Rp2645
(dp2646
g8
g9
sg10
F0.8
sg11
VNorth Sydney
p2647
sg13
Nsg14
g15
sg16
g17
sg18
g9
sg19
g2643
sg20
(lp2648
g2
(g22
g4
Ntp2649
Rp2650
(dp2651
g26
g9
sg27
Nsg28
Nsg29
Nsbasg26
g30
sg31
g32
((lp2652
g34
atp2653
Rp2654
sg37
VCogent Energy
p2655
sg39
I2012
sg40
g2
(g41
g4
Ntp2656
Rp2657
(dp2658
g45
F-33.83838156099995
sg46
g9
sg47
F151.20539424000003
sbsbsVAUS0000315
p2659
g2
(g3
g4
Ntp2660
Rp2661
(dp2662
g8
g9
sg10
F0.8
sg11
VBlackmores
p2663
sg13
Nsg14
g15
sg16
g17
sg18
g9
sg19
g2659
sg20
(lp2664
g2
(g22
g4
Ntp2665
Rp2666
(dp2667
g26
g9
sg27
Nsg28
Nsg29
Nsbasg26
g30
sg31
g32
((lp2668
g34
atp2669
Rp2670
sg37
VCogent Energy
p2671
sg39
I2012
sg40
g2
(g41
g4
Ntp2672
Rp2673
(dp2674
g45
F-33.67777002999998
sg46
g9
sg47
F151.29080465200002
sbsbsVAUS0000314
p2675
g2
(g3
g4
Ntp2676
Rp2677
(dp2678
g8
g9
sg10
F2.4
sg11
VNorth Sydney
p2679
sg13
Nsg14
g15
sg16
g17
sg18
g9
sg19
g2675
sg20
(lp2680
g2
(g22
g4
Ntp2681
Rp2682
(dp2683
g26
g9
sg27
Nsg28
Nsg29
Nsbasg26
g30
sg31
g32
((lp2684
g34
atp2685
Rp2686
sg37
VCogent Energy
p2687
sg39
I2012
sg40
g2
(g41
g4
Ntp2688
Rp2689
(dp2690
g45
F-33.83981188699994
sg46
g9
sg47
F151.20692819700002
sbsbsVAUS0000317
p2691
g2
(g3
g4
Ntp2692
Rp2693
(dp2694
g8
g9
sg10
F2.5
sg11
VRevesby Workers Club
p2695
sg13
Nsg14
g15
sg16
g17
sg18
g9
sg19
g2691
sg20
(lp2696
g2
(g22
g4
Ntp2697
Rp2698
(dp2699
g26
g9
sg27
Nsg28
Nsg29
Nsbasg26
g30
sg31
g32
((lp2700
g269
atp2701
Rp2702
sg37
VRevesby Workers Club
p2703
sg39
I2012
sg40
g2
(g41
g4
Ntp2704
Rp2705
(dp2706
g45
F-33.95343975199995
sg46
g9
sg47
F151.013733214
sbsbsVAUS0000316
p2707
g2
(g3
g4
Ntp2708
Rp2709
(dp2710
g8
g9
sg10
F3.2
sg11
VNine Network
p2711
sg13
Nsg14
g15
sg16
g17
sg18
g9
sg19
g2707
sg20
(lp2712
g2
(g22
g4
Ntp2713
Rp2714
(dp2715
g26
g9
sg27
Nsg28
Nsg29
Nsbasg26
g30
sg31
g32
((lp2716
g269
atp2717
Rp2718
sg37
VNine Network
p2719
sg39
I2012
sg40
g2
(g41
g4
Ntp2720
Rp2721
(dp2722
g45
F-33.81096412699998
sg46
g9
sg47
F151.1966227370001
sbsbsVAUS0000089
p2723
g2
(g3
g4
Ntp2724
Rp2725
(dp2726
g8
g9
sg10
F228.0
sg11
VJeeralang B
p2727
sg13
Nsg14
g15
sg16
g17
sg18
g9
sg19
g2723
sg20
(lp2728
g2
(g22
g4
Ntp2729
Rp2730
(dp2731
g26
g9
sg27
Nsg28
Nsg29
Nsbasg26
g30
sg31
g32
((lp2732
g34
atp2733
Rp2734
sg37
VIndustry Funds Management Nominees Ltd
p2735
sg39
I2012
sg40
g2
(g41
g4
Ntp2736
Rp2737
(dp2738
g45
F-38.274625999999955
sg46
g9
sg47
F146.42492300000004
sbsbsVAUS0000127
p2739
g2
(g3
g4
Ntp2740
Rp2741
(dp2742
g8
g9
sg10
F12.2
sg11
VButlers Gorge
p2743
sg13
Nsg14
g15
sg16
g17
sg18
g9
sg19
g2739
sg20
(lp2744
g2
(g22
g4
Ntp2745
Rp2746
(dp2747
g26
g9
sg27
Nsg28
Nsg29
Nsbasg26
g30
sg31
g32
((lp2748
g74
atp2749
Rp2750
sg37
VHydro-Electric Corporation (Tasmania)
p2751
sg39
I2012
sg40
g2
(g41
g4
Ntp2752
Rp2753
(dp2754
g45
F-42.26689799999997
sg46
g9
sg47
F146.2617580000001
sbsbsVAUS0000034
p2755
g2
(g3
g4
Ntp2756
Rp2757
(dp2758
g8
g9
sg10
F3.5
sg11
VMugga Lane
p2759
sg13
Nsg14
g15
sg16
g17
sg18
g9
sg19
g2755
sg20
(lp2760
g2
(g22
g4
Ntp2761
Rp2762
(dp2763
g26
g9
sg27
Nsg28
Nsg29
Nsbasg26
g30
sg31
g32
((lp2764
g318
atp2765
Rp2766
sg37
VEnergy Developments LFG (ACT) Pty Ltd
p2767
sg39
I2012
sg40
g2
(g41
g4
Ntp2768
Rp2769
(dp2770
g45
F-35.39530399999995
sg46
g9
sg47
F149.14582000000007
sbsbsVAUS0000035
p2771
g2
(g3
g4
Ntp2772
Rp2773
(dp2774
g8
g9
sg10
F4.12
sg11
VLucas Heights III
p2775
sg13
Nsg14
g15
sg16
g17
sg18
g9
sg19
g2771
sg20
(lp2776
g2
(g22
g4
Ntp2777
Rp2778
(dp2779
g26
g9
sg27
Nsg28
Nsg29
Nsbasg26
g30
sg31
g32
((lp2780
g318
atp2781
Rp2782
sg37
VEnergy Developments LFG (NSW) Pty Ltd
p2783
sg39
I2012
sg40
g2
(g41
g4
Ntp2784
Rp2785
(dp2786
g45
F-34.048145999999974
sg46
g9
sg47
F150.97388200000012
sbsbsVAUS0000036
p2787
g2
(g3
g4
Ntp2788
Rp2789
(dp2790
g8
g9
sg10
F11.33
sg11
VLucas Heights II
p2791
sg13
Nsg14
g15
sg16
g17
sg18
g9
sg19
g2787
sg20
(lp2792
g2
(g22
g4
Ntp2793
Rp2794
(dp2795
g26
g9
sg27
Nsg28
Nsg29
Nsbasg26
g30
sg31
g32
((lp2796
g318
atp2797
Rp2798
sg37
VEnergy Developments LFG (NSW) Pty Ltd
p2799
sg39
I2012
sg40
g2
(g41
g4
Ntp2800
Rp2801
(dp2802
g45
F-34.048145999999974
sg46
g9
sg47
F150.97388200000012
sbsbsVAUS0000037
p2803
g2
(g3
g4
Ntp2804
Rp2805
(dp2806
g8
g9
sg10
F5.39
sg11
VLucas Heights I
p2807
sg13
Nsg14
g15
sg16
g17
sg18
g9
sg19
g2803
sg20
(lp2808
g2
(g22
g4
Ntp2809
Rp2810
(dp2811
g26
g9
sg27
Nsg28
Nsg29
Nsbasg26
g30
sg31
g32
((lp2812
g318
atp2813
Rp2814
sg37
VEnergy Developments LFG (NSW) Pty Ltd
p2815
sg39
I2012
sg40
g2
(g41
g4
Ntp2816
Rp2817
(dp2818
g45
F-34.02930199999997
sg46
g9
sg47
F151.0020720000001
sbsbsVAUS0000030
p2819
g2
(g3
g4
Ntp2820
Rp2821
(dp2822
g8
g9
sg10
F1.0
sg11
VWest Nowra (Shoalhaven)
p2823
sg13
Nsg14
g15
sg16
g17
sg18
g9
sg19
g2819
sg20
(lp2824
g2
(g22
g4
Ntp2825
Rp2826
(dp2827
g26
g9
sg27
Nsg28
Nsg29
Nsbasg26
g30
sg31
g32
((lp2828
g318
atp2829
Rp2830
sg37
VAGL Energy Pty Ltd
p2831
sg39
I2012
sg40
g2
(g41
g4
Ntp2832
Rp2833
(dp2834
g45
F-34.88197799999995
sg46
g9
sg47
F150.55148500000007
sbsbsVAUS0000031
p2835
g2
(g3
g4
Ntp2836
Rp2837
(dp2838
g8
g9
sg10
F1500.0
sg11
VTumut 3
p2839
sg13
Nsg14
g15
sg16
g17
sg18
g9
sg19
g2835
sg20
(lp2840
g2
(g22
g4
Ntp2841
Rp2842
(dp2843
g26
g9
sg27
Nsg28
Nsg29
Nsbasg26
g30
sg31
g32
((lp2844
g74
atp2845
Rp2846
sg37
VSnowy Hydro Ltd
p2847
sg39
I2012
sg40
g2
(g41
g4
Ntp2848
Rp2849
(dp2850
g45
F-35.61121799999995
sg46
g9
sg47
F148.29168500000003
sbsbsVAUS0000032
p2851
g2
(g3
g4
Ntp2852
Rp2853
(dp2854
g8
g9
sg10
F95.8
sg11
VTrevallyn
p2855
sg13
Nsg14
g15
sg16
g17
sg18
g9
sg19
g2851
sg20
(lp2856
g2
(g22
g4
Ntp2857
Rp2858
(dp2859
g26
g9
sg27
Nsg28
Nsg29
Nsbasg26
g30
sg31
g32
((lp2860
g74
atp2861
Rp2862
sg37
VHydro-Electric Corporation (Tasmania)
p2863
sg39
I2012
sg40
g2
(g41
g4
Ntp2864
Rp2865
(dp2866
g45
F-41.423141999999984
sg46
g9
sg47
F147.11283000000003
sbsbsVAUS0000033
p2867
g2
(g3
g4
Ntp2868
Rp2869
(dp2870
g8
g9
sg10
F2.2
sg11
VSummerhill
p2871
sg13
Nsg14
g15
sg16
g17
sg18
g9
sg19
g2867
sg20
(lp2872
g2
(g22
g4
Ntp2873
Rp2874
(dp2875
g26
g9
sg27
Nsg28
Nsg29
Nsbasg26
g30
sg31
g32
((lp2876
g318
atp2877
Rp2878
sg37
VLMS Energy Generation Pty Ltd
p2879
sg39
I2012
sg40
g2
(g41
g4
Ntp2880
Rp2881
(dp2882
g45
F-32.88853299999994
sg46
g9
sg47
F151.64295400000003
sbsbsVAUS0000118
p2883
g2
(g3
g4
Ntp2884
Rp2885
(dp2886
g8
g9
sg10
F1.7
sg11
VTods Corner
p2887
sg13
Nsg14
g15
sg16
g17
sg18
g9
sg19
g2883
sg20
(lp2888
g2
(g22
g4
Ntp2889
Rp2890
(dp2891
g26
g9
sg27
Nsg28
Nsg29
Nsbasg26
g30
sg31
g32
((lp2892
g74
atp2893
Rp2894
sg37
VHydro-Electric Corporation (Tasmania)
p2895
sg39
I2012
sg40
g2
(g41
g4
Ntp2896
Rp2897
(dp2898
g45
F-41.97073199999994
sg46
g9
sg47
F146.79378500000007
sbsbsVAUS0000038
p2899
g2
(g3
g4
Ntp2900
Rp2901
(dp2902
g8
g9
sg10
F14.4
sg11
VJounama
p2903
sg13
Nsg14
g15
sg16
g17
sg18
g9
sg19
g2899
sg20
(lp2904
g2
(g22
g4
Ntp2905
Rp2906
(dp2907
g26
g9
sg27
Nsg28
Nsg29
Nsbasg26
g30
sg31
g32
((lp2908
g74
atp2909
Rp2910
sg37
VSnowy Hydro Ltd
p2911
sg39
I2012
sg40
g2
(g41
g4
Ntp2912
Rp2913
(dp2914
g45
F-35.56196499999993
sg46
g9
sg47
F148.305517
sbsbsVAUS0000039
p2915
g2
(g3
g4
Ntp2916
Rp2917
(dp2918
g8
g9
sg10
F2.3
sg11
VJacks Gully
p2919
sg13
Nsg14
g15
sg16
g17
sg18
g9
sg19
g2915
sg20
(lp2920
g2
(g22
g4
Ntp2921
Rp2922
(dp2923
g26
g9
sg27
Nsg28
Nsg29
Nsbasg26
g30
sg31
g32
((lp2924
g318
atp2925
Rp2926
sg37
VEnergy Developments LFG (NSW) Pty Ltd
p2927
sg39
I2012
sg40
g2
(g41
g4
Ntp2928
Rp2929
(dp2930
g45
F-34.07343999999995
sg46
g9
sg47
F150.74268900000004
sbsbsVAUS0000128
p2931
g2
(g3
g4
Ntp2932
Rp2933
(dp2934
g8
g9
sg10
F84.0
sg11
VTribute
p2935
sg13
Nsg14
g15
sg16
g17
sg18
g9
sg19
g2931
sg20
(lp2936
g2
(g22
g4
Ntp2937
Rp2938
(dp2939
g26
g9
sg27
Nsg28
Nsg29
Nsbasg26
g30
sg31
g32
((lp2940
g74
atp2941
Rp2942
sg37
VHydro-Electric Corporation (Tasmania)
p2943
sg39
I2012
sg40
g2
(g41
g4
Ntp2944
Rp2945
(dp2946
g45
F-41.811804999999936
sg46
g9
sg47
F145.65356700000007
sbsbsVAUS0000129
p2947
g2
(g3
g4
Ntp2948
Rp2949
(dp2950
g8
g9
sg10
F10.5
sg11
VRowallan
p2951
sg13
Nsg14
g15
sg16
g17
sg18
g9
sg19
g2947
sg20
(lp2952
g2
(g22
g4
Ntp2953
Rp2954
(dp2955
g26
g9
sg27
Nsg28
Nsg29
Nsbasg26
g30
sg31
g32
((lp2956
g74
atp2957
Rp2958
sg37
VHydro-Electric Corporation (Tasmania)
p2959
sg39
I2012
sg40
g2
(g41
g4
Ntp2960
Rp2961
(dp2962
g45
F-41.72952299999997
sg46
g9
sg47
F146.21759300000008
sbsbsVAUS0000113
p2963
g2
(g3
g4
Ntp2964
Rp2965
(dp2966
g8
g9
sg10
F2.0
sg11
VBallarat Base Hospital
p2967
sg13
Nsg14
g15
sg16
g17
sg18
g9
sg19
g2963
sg20
(lp2968
g2
(g22
g4
Ntp2969
Rp2970
(dp2971
g26
g9
sg27
Nsg28
Nsg29
Nsbasg26
g30
sg31
g32
((lp2972
g34
atp2973
Rp2974
sg37
VBallarat Base Hospital
p2975
sg39
I2012
sg40
g2
(g41
g4
Ntp2976
Rp2977
(dp2978
g45
F-37.55960699999997
sg46
g9
sg47
F143.84691800000007
sbsbsVAUS0000112
p2979
g2
(g3
g4
Ntp2980
Rp2981
(dp2982
g8
g9
sg10
F22.0
sg11
VCape Nelson North Wind Farm
p2983
sg13
Nsg14
g15
sg16
g17
sg18
g9
sg19
g2979
sg20
(lp2984
g2
(g22
g4
Ntp2985
Rp2986
(dp2987
g26
g9
sg27
Nsg28
Nsg29
Nsbasg26
g30
sg31
g32
((lp2988
g236
atp2989
Rp2990
sg37
VPacific Hydro Pty Ltd
p2991
sg39
I2012
sg40
g2
(g41
g4
Ntp2992
Rp2993
(dp2994
g45
F-38.367636999999945
sg46
g9
sg47
F141.5429590000001
sbsbsVAUS0000108
p2995
g2
(g3
g4
Ntp2996
Rp2997
(dp2998
g8
g9
sg10
F566.0
sg11
VMortlake
p2999
sg13
Nsg14
g15
sg16
g17
sg18
g9
sg19
g2995
sg20
(lp3000
g2
(g22
g4
Ntp3001
Rp3002
(dp3003
g26
g9
sg27
Nsg28
Nsg29
Nsbasg26
g30
sg31
g32
((lp3004
g34
atp3005
Rp3006
sg37
VOrigin Energy
p3007
sg39
I2012
sg40
g2
(g41
g4
Ntp3008
Rp3009
(dp3010
g45
F-38.063169321999965
sg46
g9
sg47
F142.6674789110001
sbsbsVAUS0000109
p3011
g2
(g3
g4
Ntp3012
Rp3013
(dp3014
g8
g9
sg10
F185.0
sg11
VDartmouth (Mount Beauty Hydro Scheme)
p3015
sg13
Nsg14
g15
sg16
g17
sg18
g9
sg19
g3011
sg20
(lp3016
g2
(g22
g4
Ntp3017
Rp3018
(dp3019
g26
g9
sg27
Nsg28
Nsg29
Nsbasg26
g30
sg31
g32
((lp3020
g74
atp3021
Rp3022
sg37
VAGL Energy Pty Ltd
p3023
sg39
I2012
sg40
g2
(g41
g4
Ntp3024
Rp3025
(dp3026
g45
F-36.55642899999998
sg46
g9
sg47
F147.5205800000001
sbsbsVAUS0000100
p3027
g2
(g3
g4
Ntp3028
Rp3029
(dp3030
g8
g9
sg10
F1480.0
sg11
VYallourn
p3031
sg13
Nsg14
g15
sg16
g17
sg18
g9
sg19
g3027
sg20
(lp3032
g2
(g22
g4
Ntp3033
Rp3034
(dp3035
g26
g9
sg27
Nsg28
Nsg29
Nsbasg26
g30
sg31
g32
((lp3036
g91
atp3037
Rp3038
sg37
VTRUenergy
p3039
sg39
I2012
sg40
g2
(g41
g4
Ntp3040
Rp3041
(dp3042
g45
F-38.17701499999998
sg46
g9
sg47
F146.34278300000005
sbsbsVAUS0000101
p3043
g2
(g3
g4
Ntp3044
Rp3045
(dp3046
g8
g9
sg10
F9.5
sg11
VYarrawonga
p3047
sg13
Nsg14
g15
sg16
g17
sg18
g9
sg19
g3043
sg20
(lp3048
g2
(g22
g4
Ntp3049
Rp3050
(dp3051
g26
g9
sg27
Nsg28
Nsg29
Nsbasg26
g30
sg31
g32
((lp3052
g74
atp3053
Rp3054
sg37
VAGL Energy Pty Ltd
p3055
sg39
I2012
sg40
g2
(g41
g4
Ntp3056
Rp3057
(dp3058
g45
F-36.009387999999944
sg46
g9
sg47
F145.9994660000001
sbsbsVAUS0000102
p3059
g2
(g3
g4
Ntp3060
Rp3061
(dp3062
g8
g9
sg10
F140.0
sg11
VBogong (Mount Beauty Hydro Scheme)
p3063
sg13
Nsg14
g15
sg16
g17
sg18
g9
sg19
g3059
sg20
(lp3064
g2
(g22
g4
Ntp3065
Rp3066
(dp3067
g26
g9
sg27
Nsg28
Nsg29
Nsbasg26
g30
sg31
g32
((lp3068
g74
atp3069
Rp3070
sg37
VAGL Energy Pty Ltd
p3071
sg39
I2012
sg40
g2
(g41
g4
Ntp3072
Rp3073
(dp3074
g45
F-36.80546099999998
sg46
g9
sg47
F147.2280340000001
sbsbsVAUS0000103
p3075
g2
(g3
g4
Ntp3076
Rp3077
(dp3078
g8
g9
sg10
F29.0
sg11
VClover
p3079
sg13
Nsg14
g15
sg16
g17
sg18
g9
sg19
g3075
sg20
(lp3080
g2
(g22
g4
Ntp3081
Rp3082
(dp3083
g26
g9
sg27
Nsg28
Nsg29
Nsbasg26
g30
sg31
g32
((lp3084
g74
atp3085
Rp3086
sg37
VAGL Energy Pty Ltd
p3087
sg39
I2012
sg40
g2
(g41
g4
Ntp3088
Rp3089
(dp3090
g45
F-36.78528099999994
sg46
g9
sg47
F147.2204660000001
sbsbsVAUS0000104
p3091
g2
(g3
g4
Ntp3092
Rp3093
(dp3094
g8
g9
sg10
F150.0
sg11
VMcKay Creek (Mount Beauty Hydro Scheme)
p3095
sg13
Nsg14
g15
sg16
g17
sg18
g9
sg19
g3091
sg20
(lp3096
g2
(g22
g4
Ntp3097
Rp3098
(dp3099
g26
g9
sg27
Nsg28
Nsg29
Nsbasg26
g30
sg31
g32
((lp3100
g74
atp3101
Rp3102
sg37
VAGL Energy Pty Ltd
p3103
sg39
I2012
sg40
g2
(g41
g4
Ntp3104
Rp3105
(dp3106
g45
F-36.858393999999976
sg46
g9
sg47
F147.23454200000003
sbsbsVAUS0000105
p3107
g2
(g3
g4
Ntp3108
Rp3109
(dp3110
g8
g9
sg10
F60.0
sg11
VWest Kiewa (Mount Beauty Hydro Scheme)
p3111
sg13
Nsg14
g15
sg16
g17
sg18
g9
sg19
g3107
sg20
(lp3112
g2
(g22
g4
Ntp3113
Rp3114
(dp3115
g26
g9
sg27
Nsg28
Nsg29
Nsbasg26
g30
sg31
g32
((lp3116
g74
atp3117
Rp3118
sg37
VAGL Energy Pty Ltd
p3119
sg39
I2012
sg40
g2
(g41
g4
Ntp3120
Rp3121
(dp3122
g45
F-36.76006599999994
sg46
g9
sg47
F147.18604800000003
sbsbsVAUS0000106
p3123
g2
(g3
g4
Ntp3124
Rp3125
(dp3126
g8
g9
sg10
F552.0
sg11
VMurray 2
p3127
sg13
Nsg14
g15
sg16
g17
sg18
g9
sg19
g3123
sg20
(lp3128
g2
(g22
g4
Ntp3129
Rp3130
(dp3131
g26
g9
sg27
Nsg28
Nsg29
Nsbasg26
g30
sg31
g32
((lp3132
g74
atp3133
Rp3134
sg37
VSnowy Hydro Ltd
p3135
sg39
I2012
sg40
g2
(g41
g4
Ntp3136
Rp3137
(dp3138
g45
F-36.242343999999946
sg46
g9
sg47
F148.13624700000003
sbsbsVAUS0000107
p3139
g2
(g3
g4
Ntp3140
Rp3141
(dp3142
g8
g9
sg10
F950.0
sg11
VMurray 1
p3143
sg13
Nsg14
g15
sg16
g17
sg18
g9
sg19
g3139
sg20
(lp3144
g2
(g22
g4
Ntp3145
Rp3146
(dp3147
g26
g9
sg27
Nsg28
Nsg29
Nsbasg26
g30
sg31
g32
((lp3148
g74
atp3149
Rp3150
sg37
VSnowy Hydro Ltd
p3151
sg39
I2012
sg40
g2
(g41
g4
Ntp3152
Rp3153
(dp3154
g45
F-36.24671299999994
sg46
g9
sg47
F148.19009500000004
sbsbsVAUS0000463
p3155
g2
(g3
g4
Ntp3156
Rp3157
(dp3158
g8
g9
sg10
F0.01
sg11
VErnabella
p3159
sg13
Nsg14
g15
sg16
g17
sg18
g9
sg19
g3155
sg20
(lp3160
g2
(g22
g4
Ntp3161
Rp3162
(dp3163
g26
g9
sg27
Nsg28
Nsg29
Nsbasg26
g30
sg31
g32
((lp3164
g269
atp3165
Rp3166
sg37
VAnanga Pitjantjatjara Council
p3167
sg39
I2012
sg40
g2
(g41
g4
Ntp3168
Rp3169
(dp3170
g45
F-26.277960621999966
sg46
g9
sg47
F132.1313709970001
sbsbsVAUS0000462
p3171
g2
(g3
g4
Ntp3172
Rp3173
(dp3174
g8
g9
sg10
F120.0
sg11
VCape Lambert
p3175
sg13
Nsg14
g15
sg16
g17
sg18
g9
sg19
g3171
sg20
(lp3176
g2
(g22
g4
Ntp3177
Rp3178
(dp3179
g26
g9
sg27
Nsg28
Nsg29
Nsbasg26
g30
sg31
g32
((lp3180
g34
atp3181
Rp3182
sg37
VRio Tinto Australia Pty Ltd
p3183
sg39
I2014
sg40
g2
(g41
g4
Ntp3184
Rp3185
(dp3186
g45
F-20.648770635999938
sg46
g9
sg47
F117.14073131500004
sbsbsVAUS0000461
p3187
g2
(g3
g4
Ntp3188
Rp3189
(dp3190
g8
g9
sg10
F33.0
sg11
VBulwer Island
p3191
sg13
Nsg14
g15
sg16
g17
sg18
g9
sg19
g3187
sg20
(lp3192
g2
(g22
g4
Ntp3193
Rp3194
(dp3195
g26
g9
sg27
Nsg28
Nsg29
Nsbasg26
g30
sg31
g32
((lp3196
g34
atp3197
Rp3198
sg37
VATCO and Origin Energy
p3199
sg39
Nsg40
g2
(g41
g4
Ntp3200
Rp3201
(dp3202
g45
F-27.40357955299993
sg46
g9
sg47
F153.13628579200008
sbsbsVAUS0000460
p3203
g2
(g3
g4
Ntp3204
Rp3205
(dp3206
g8
g9
sg10
F60.0
sg11
VLeichhardt
p3207
sg13
Nsg14
g15
sg16
g17
sg18
g9
sg19
g3203
sg20
(lp3208
g2
(g22
g4
Ntp3209
Rp3210
(dp3211
g26
g9
sg27
Nsg28
Nsg29
Nsbasg26
g30
sg31
g32
((lp3212
g34
atp3213
Rp3214
sg37
VAPA Group and AGL Energy Ltd
p3215
sg39
Nsg40
g2
(g41
g4
Ntp3216
Rp3217
(dp3218
g45
F-20.783335197999975
sg46
g9
sg47
F139.48622070400006
sbsbsVAUS0000467
p3219
g2
(g3
g4
Ntp3220
Rp3221
(dp3222
g8
g9
sg10
F0.13
sg11
VWindorah
p3223
sg13
Nsg14
g15
sg16
g17
sg18
g9
sg19
g3219
sg20
(lp3224
g2
(g22
g4
Ntp3225
Rp3226
(dp3227
g26
g9
sg27
Nsg28
Nsg29
Nsbasg26
g30
sg31
g32
((lp3228
g1279
atp3229
Rp3230
sg37
VErgon Energy
p3231
sg39
I2014
sg40
g2
(g41
g4
Ntp3232
Rp3233
(dp3234
g45
F-25.412664425999935
sg46
g9
sg47
F142.66076150300012
sbsbsVAUS0000466
p3235
g2
(g3
g4
Ntp3236
Rp3237
(dp3238
g8
g9
sg10
F0.29
sg11
VLajamanu
p3239
sg13
Nsg14
g15
sg16
g17
sg18
g9
sg19
g3235
sg20
(lp3240
g2
(g22
g4
Ntp3241
Rp3242
(dp3243
g26
g9
sg27
Nsg28
Nsg29
Nsbasg26
g30
sg31
g32
((lp3244
g1279
atp3245
Rp3246
sg37
VPower and Water Corporation
p3247
sg39
I2014
sg40
g2
(g41
g4
Ntp3248
Rp3249
(dp3250
g45
F-18.32650366699994
sg46
g9
sg47
F130.62948965300006
sbsbsVAUS0000465
p3251
g2
(g3
g4
Ntp3252
Rp3253
(dp3254
g8
g9
sg10
F0.24
sg11
VYuendumu
p3255
sg13
Nsg14
g15
sg16
g17
sg18
g9
sg19
g3251
sg20
(lp3256
g2
(g22
g4
Ntp3257
Rp3258
(dp3259
g26
g9
sg27
Nsg28
Nsg29
Nsbasg26
g30
sg31
g32
((lp3260
g1279
atp3261
Rp3262
sg37
VPower and Water Corporation
p3263
sg39
I2014
sg40
g2
(g41
g4
Ntp3264
Rp3265
(dp3266
g45
F-22.242590623999945
sg46
g9
sg47
F131.79314572300007
sbsbsVAUS0000464
p3267
g2
(g3
g4
Ntp3268
Rp3269
(dp3270
g8
g9
sg10
F0.35
sg11
VUmuwa
p3271
sg13
Nsg14
g15
sg16
g17
sg18
g9
sg19
g3267
sg20
(lp3272
g2
(g22
g4
Ntp3273
Rp3274
(dp3275
g26
g9
sg27
Nsg28
Nsg29
Nsbasg26
g30
sg31
g32
((lp3276
g1279
atp3277
Rp3278
sg37
VSilex Systems
p3279
sg39
I2012
sg40
g2
(g41
g4
Ntp3280
Rp3281
(dp3282
g45
F-26.47355590099994
sg46
g9
sg47
F132.01465681700006
sbsbsVAUS0000469
p3283
g2
(g3
g4
Ntp3284
Rp3285
(dp3286
g8
g9
sg10
F0.24
sg11
VAlice Springs Airport
p3287
sg13
Nsg14
g15
sg16
g17
sg18
g9
sg19
g3283
sg20
(lp3288
g2
(g22
g4
Ntp3289
Rp3290
(dp3291
g26
g9
sg27
Nsg28
Nsg29
Nsbasg26
g30
sg31
g32
((lp3292
g1279
atp3293
Rp3294
sg37
VAlice Springs Airport
p3295
sg39
I2014
sg40
g2
(g41
g4
Ntp3296
Rp3297
(dp3298
g45
F-23.796569829999953
sg46
g9
sg47
F133.89712081200003
sbsbsVAUS0000468
p3299
g2
(g3
g4
Ntp3300
Rp3301
(dp3302
g8
g9
sg10
F0.3
sg11
VDoubleTree by Hilton Hotel
p3303
sg13
Nsg14
g15
sg16
g17
sg18
g9
sg19
g3299
sg20
(lp3304
g2
(g22
g4
Ntp3305
Rp3306
(dp3307
g26
g9
sg27
Nsg28
Nsg29
Nsbasg26
g30
sg31
g32
((lp3308
g1279
atp3309
Rp3310
sg37
VDoubleTree by Hilton Hotel (was Alice Springs Crowne Plaza)
p3311
sg39
I2014
sg40
g2
(g41
g4
Ntp3312
Rp3313
(dp3314
g45
F-23.714967607999938
sg46
g9
sg47
F133.87945391000005
sbsbsVAUS0000355
p3315
g2
(g3
g4
Ntp3316
Rp3317
(dp3318
g8
g9
sg10
F3.2
sg11
VHenderson
p3319
sg13
Nsg14
g15
sg16
g17
sg18
g9
sg19
g3315
sg20
(lp3320
g2
(g22
g4
Ntp3321
Rp3322
(dp3323
g26
g9
sg27
Nsg28
Nsg29
Nsbasg26
g30
sg31
g32
((lp3324
g318
atp3325
Rp3326
sg37
VWaste Gas Resources
p3327
sg39
I2012
sg40
g2
(g41
g4
Ntp3328
Rp3329
(dp3330
g45
F-32.16502101899994
sg46
g9
sg47
F115.80080012300004
sbsbsVAUS0000354
p3331
g2
(g3
g4
Ntp3332
Rp3333
(dp3334
g8
g9
sg10
F1.8
sg11
VWoodman Point
p3335
sg13
Nsg14
g15
sg16
g17
sg18
g9
sg19
g3331
sg20
(lp3336
g2
(g22
g4
Ntp3337
Rp3338
(dp3339
g26
g9
sg27
Nsg28
Nsg29
Nsbasg26
g30
sg31
g32
((lp3340
g318
atp3341
Rp3342
sg37
VWater Corporation
p3343
sg39
I2012
sg40
g2
(g41
g4
Ntp3344
Rp3345
(dp3346
g45
F-32.14241985999996
sg46
g9
sg47
F115.77130495800009
sbsbsVAUS0000357
p3347
g2
(g3
g4
Ntp3348
Rp3349
(dp3350
g8
g9
sg10
F1.3
sg11
VMandurah
p3351
sg13
Nsg14
g15
sg16
g17
sg18
g9
sg19
g3347
sg20
(lp3352
g2
(g22
g4
Ntp3353
Rp3354
(dp3355
g26
g9
sg27
Nsg28
Nsg29
Nsbasg26
g30
sg31
g32
((lp3356
g318
atp3357
Rp3358
sg37
g9
sg39
I2012
sg40
g2
(g41
g4
Ntp3359
Rp3360
(dp3361
g45
F-32.50791826999995
sg46
g9
sg47
F115.75895724000009
sbsbsVAUS0000356
p3362
g2
(g3
g4
Ntp3363
Rp3364
(dp3365
g8
g9
sg10
F4.65
sg11
VTamala Park
p3366
sg13
Nsg14
g15
sg16
g17
sg18
g9
sg19
g3362
sg20
(lp3367
g2
(g22
g4
Ntp3368
Rp3369
(dp3370
g26
g9
sg27
Nsg28
Nsg29
Nsbasg26
g30
sg31
g32
((lp3371
g318
atp3372
Rp3373
sg37
VLandfill Gas and Power Pty Ltd
p3374
sg39
I2012
sg40
g2
(g41
g4
Ntp3375
Rp3376
(dp3377
g45
F-31.707786128999942
sg46
g9
sg47
F115.72664485300004
sbsbsVAUS0000218
p3378
g2
(g3
g4
Ntp3379
Rp3380
(dp3381
g8
g9
sg10
F180.0
sg11
VYurralyi Maya (Karratha Seven Mile)
p3382
sg13
Nsg14
g15
sg16
g17
sg18
g9
sg19
g3378
sg20
(lp3383
g2
(g22
g4
Ntp3384
Rp3385
(dp3386
g26
g9
sg27
Nsg28
Nsg29
Nsbasg26
g30
sg31
g32
((lp3387
g34
atp3388
Rp3389
sg37
VRio Tinto Australia Pty Ltd
p3390
sg39
I2012
sg40
g2
(g41
g4
Ntp3391
Rp3392
(dp3393
g45
F-20.761999999999944
sg46
g9
sg47
F116.74200000000008
sbsbsVAUS0000219
p3394
g2
(g3
g4
Ntp3395
Rp3396
(dp3397
g8
g9
sg10
F30.6
sg11
VLaverton (Granny Smith Gold Mine)
p3398
sg13
Nsg14
g15
sg16
g17
sg18
g9
sg19
g3394
sg20
(lp3399
g2
(g22
g4
Ntp3400
Rp3401
(dp3402
g26
g9
sg27
Nsg28
Nsg29
Nsbasg26
g30
sg31
g32
((lp3403
g269
atp3404
Rp3405
sg37
VBarrick Gold of Australia
p3406
sg39
I2012
sg40
g2
(g41
g4
Ntp3407
Rp3408
(dp3409
g45
F-28.80964899999998
sg46
g9
sg47
F122.41502900000012
sbsbsVAUS0000353
p3410
g2
(g3
g4
Ntp3411
Rp3412
(dp3413
g8
g9
sg10
F1.6
sg11
VDenham Diesel Backup
p3414
sg13
Nsg14
g15
sg16
g17
sg18
g9
sg19
g3410
sg20
(lp3415
g2
(g22
g4
Ntp3416
Rp3417
(dp3418
g26
g9
sg27
Nsg28
Nsg29
Nsbasg26
g30
sg31
g32
((lp3419
g269
atp3420
Rp3421
sg37
VVerve Energy
p3422
sg39
I2012
sg40
g2
(g41
g4
Ntp3423
Rp3424
(dp3425
g45
F-25.916724838999983
sg46
g9
sg47
F113.5339545280001
sbsbsVAUS0000352
p3426
g2
(g3
g4
Ntp3427
Rp3428
(dp3429
g8
g9
sg10
F0.92
sg11
VDenham Wind Turbines
p3430
sg13
Nsg14
g15
sg16
g17
sg18
g9
sg19
g3426
sg20
(lp3431
g2
(g22
g4
Ntp3432
Rp3433
(dp3434
g26
g9
sg27
Nsg28
Nsg29
Nsbasg26
g30
sg31
g32
((lp3435
g236
atp3436
Rp3437
sg37
VVerve Energy
p3438
sg39
I2012
sg40
g2
(g41
g4
Ntp3439
Rp3440
(dp3441
g45
F-25.91152386799996
sg46
g9
sg47
F113.54931095000006
sbsbsVAUS0000214
p3442
g2
(g3
g4
Ntp3443
Rp3444
(dp3445
g8
g9
sg10
F400.0
sg11
VMuja C
p3446
sg13
Nsg14
g15
sg16
g17
sg18
g9
sg19
g3442
sg20
(lp3447
g2
(g22
g4
Ntp3448
Rp3449
(dp3450
g26
g9
sg27
Nsg28
Nsg29
Nsbasg26
g30
sg31
g32
((lp3451
g91
atp3452
Rp3453
sg37
VVerve Energy
p3454
sg39
I2012
sg40
g2
(g41
g4
Ntp3455
Rp3456
(dp3457
g45
F-33.445810999999935
sg46
g9
sg47
F116.30601200000001
sbsbsVAUS0000215
p3458
g2
(g3
g4
Ntp3459
Rp3460
(dp3461
g8
g9
sg10
F454.0
sg11
VMuja D
p3462
sg13
Nsg14
g15
sg16
g17
sg18
g9
sg19
g3458
sg20
(lp3463
g2
(g22
g4
Ntp3464
Rp3465
(dp3466
g26
g9
sg27
Nsg28
Nsg29
Nsbasg26
g30
sg31
g32
((lp3467
g91
atp3468
Rp3469
sg37
VVerve Energy
p3470
sg39
I2012
sg40
g2
(g41
g4
Ntp3471
Rp3472
(dp3473
g45
F-33.44615999999996
sg46
g9
sg47
F116.30721300000005
sbsbsVAUS0000216
p3474
g2
(g3
g4
Ntp3475
Rp3476
(dp3477
g8
g9
sg10
F112.0
sg11
VMungarra
p3478
sg13
Nsg14
g15
sg16
g17
sg18
g9
sg19
g3474
sg20
(lp3479
g2
(g22
g4
Ntp3480
Rp3481
(dp3482
g26
g9
sg27
Nsg28
Nsg29
Nsbasg26
g30
sg31
g32
((lp3483
g34
atp3484
Rp3485
sg37
VVerve Energy
p3486
sg39
I2012
sg40
g2
(g41
g4
Ntp3487
Rp3488
(dp3489
g45
F-28.889321999999936
sg46
g9
sg47
F115.1179380000001
sbsbsVAUS0000217
p3490
g2
(g3
g4
Ntp3491
Rp3492
(dp3493
g8
g9
sg10
F106.0
sg11
VWorsley Cogeneration
p3494
sg13
Nsg14
g15
sg16
g17
sg18
g9
sg19
g3490
sg20
(lp3495
g2
(g22
g4
Ntp3496
Rp3497
(dp3498
g26
g9
sg27
Nsg28
Nsg29
Nsbasg26
g30
sg31
g32
((lp3499
g34
atp3500
Rp3501
sg37
VWorsley Alumina Pty Ltd
p3502
sg39
I2012
sg40
g2
(g41
g4
Ntp3503
Rp3504
(dp3505
g45
F-33.23654589699993
sg46
g9
sg47
F116.06373772800009
sbsbsVAUS0000210
p3506
g2
(g3
g4
Ntp3507
Rp3508
(dp3509
g8
g9
sg10
F42.0
sg11
VKambalda
p3510
sg13
Nsg14
g15
sg16
g17
sg18
g9
sg19
g3506
sg20
(lp3511
g2
(g22
g4
Ntp3512
Rp3513
(dp3514
g26
g9
sg27
Nsg28
Nsg29
Nsbasg26
g30
sg31
g32
((lp3515
g34
atp3516
Rp3517
sg37
VSouthern Cross Energy
p3518
sg39
I2012
sg40
g2
(g41
g4
Ntp3519
Rp3520
(dp3521
g45
F-31.191934793999962
sg46
g9
sg47
F121.67408425000008
sbsbsVAUS0000211
p3522
g2
(g3
g4
Ntp3523
Rp3524
(dp3525
g8
g9
sg10
F310.0
sg11
VKemerton
p3526
sg13
Nsg14
g15
sg16
g17
sg18
g9
sg19
g3522
sg20
(lp3527
g2
(g22
g4
Ntp3528
Rp3529
(dp3530
g26
g9
sg27
Nsg28
Nsg29
Nsbasg26
g30
sg31
g32
((lp3531
g34
atp3532
Rp3533
sg37
VTransfield Services Infrastructure Fund
p3534
sg39
I2012
sg40
g2
(g41
g4
Ntp3535
Rp3536
(dp3537
g45
F-33.16324999999995
sg46
g9
sg47
F115.78054000000009
sbsbsVAUS0000212
p3538
g2
(g3
g4
Ntp3539
Rp3540
(dp3541
g8
g9
sg10
F59.0
sg11
VLeinster Nickel Mine
p3542
sg13
Nsg14
g15
sg16
g17
sg18
g9
sg19
g3538
sg20
(lp3543
g2
(g22
g4
Ntp3544
Rp3545
(dp3546
g26
g9
sg27
Nsg28
Nsg29
Nsbasg26
g30
sg31
g32
((lp3547
g34
atp3548
Rp3549
sg37
VSouthern Cross Energy
p3550
sg39
I2012
sg40
g2
(g41
g4
Ntp3551
Rp3552
(dp3553
g45
F-27.814121499999942
sg46
g9
sg47
F120.69899650000002
sbsbsVAUS0000213
p3554
g2
(g3
g4
Ntp3555
Rp3556
(dp3557
g8
g9
sg10
F112.0
sg11
VMount Keith Nickel Mine
p3558
sg13
Nsg14
g15
sg16
g17
sg18
g9
sg19
g3554
sg20
(lp3559
g2
(g22
g4
Ntp3560
Rp3561
(dp3562
g26
g9
sg27
Nsg28
Nsg29
Nsbasg26
g30
sg31
g32
((lp3563
g34
atp3564
Rp3565
sg37
VSouthern Cross Energy
p3566
sg39
I2012
sg40
g2
(g41
g4
Ntp3567
Rp3568
(dp3569
g45
F-27.214582999999948
sg46
g9
sg47
F120.54797900000005
sbsbsVAUS0000070
p3570
g2
(g3
g4
Ntp3571
Rp3572
(dp3573
g8
g9
sg10
F3.3
sg11
VTi Tree Bioenergy
p3574
sg13
Nsg14
g15
sg16
g17
sg18
g9
sg19
g3570
sg20
(lp3575
g2
(g22
g4
Ntp3576
Rp3577
(dp3578
g26
g9
sg27
Nsg28
Nsg29
Nsbasg26
g30
sg31
g32
((lp3579
g318
atp3580
Rp3581
sg37
VVeolia Environmental Services (Aust) Pty Ltd
p3582
sg39
I2012
sg40
g2
(g41
g4
Ntp3583
Rp3584
(dp3585
g45
F-27.680163999999934
sg46
g9
sg47
F152.65929500000004
sbsbsVAUS0000071
p3586
g2
(g3
g4
Ntp3587
Rp3588
(dp3589
g8
g9
sg10
F4.12
sg11
VSpringvale
p3590
sg13
Nsg14
g15
sg16
g17
sg18
g9
sg19
g3586
sg20
(lp3591
g2
(g22
g4
Ntp3592
Rp3593
(dp3594
g26
g9
sg27
Nsg28
Nsg29
Nsbasg26
g30
sg31
g32
((lp3595
g318
atp3596
Rp3597
sg37
VEnergy Developments LFG (Victoria) Pty Ltd
p3598
sg39
I2012
sg40
g2
(g41
g4
Ntp3599
Rp3600
(dp3601
g45
F-37.973296999999945
sg46
g9
sg47
F145.1396350000001
sbsbsVAUS0000072
p3602
g2
(g3
g4
Ntp3603
Rp3604
(dp3605
g8
g9
sg10
F1.0
sg11
VRoghan Road
p3606
sg13
Nsg14
g15
sg16
g17
sg18
g9
sg19
g3602
sg20
(lp3607
g2
(g22
g4
Ntp3608
Rp3609
(dp3610
g26
g9
sg27
Nsg28
Nsg29
Nsbasg26
g30
sg31
g32
((lp3611
g318
atp3612
Rp3613
sg37
VEnergy Developments LFG (Qld) Pty Ltd
p3614
sg39
I2012
sg40
g2
(g41
g4
Ntp3615
Rp3616
(dp3617
g45
F-27.33876799999996
sg46
g9
sg47
F153.03435000000002
sbsbsVAUS0000073
p3618
g2
(g3
g4
Ntp3619
Rp3620
(dp3621
g8
g9
sg10
F4.2
sg11
VRochedale
p3622
sg13
Nsg14
g15
sg16
g17
sg18
g9
sg19
g3618
sg20
(lp3623
g2
(g22
g4
Ntp3624
Rp3625
(dp3626
g26
g9
sg27
Nsg28
Nsg29
Nsbasg26
g30
sg31
g32
((lp3627
g318
atp3628
Rp3629
sg37
VLMS Energy Generation Pty Ltd
p3630
sg39
I2012
sg40
g2
(g41
g4
Ntp3631
Rp3632
(dp3633
g45
F-27.559116999999958
sg46
g9
sg47
F153.12363400000004
sbsbsVAUS0000074
p3634
g2
(g3
g4
Ntp3635
Rp3636
(dp3637
g8
g9
sg10
F14.0
sg11
VPlane Creek Sugar Mill
p3638
sg13
Nsg14
g15
sg16
g17
sg18
g9
sg19
g3634
sg20
(lp3639
g2
(g22
g4
Ntp3640
Rp3641
(dp3642
g26
g9
sg27
Nsg28
Nsg29
Nsbasg26
g30
sg31
g32
((lp3643
g398
atp3644
Rp3645
sg37
VSucrogen (Plane Creek Mill) Pty Ltd
p3646
sg39
I2012
sg40
g2
(g41
g4
Ntp3647
Rp3648
(dp3649
g45
F-21.428222999999946
sg46
g9
sg47
F149.21591200000012
sbsbsVAUS0000075
p3650
g2
(g3
g4
Ntp3651
Rp3652
(dp3653
g8
g9
sg10
F1000.0
sg11
VLoy Yang B
p3654
sg13
Nsg14
g15
sg16
g17
sg18
g9
sg19
g3650
sg20
(lp3655
g2
(g22
g4
Ntp3656
Rp3657
(dp3658
g26
g9
sg27
Nsg28
Nsg29
Nsbasg26
g30
sg31
g32
((lp3659
g91
atp3660
Rp3661
sg37
VIPM Australia Limited
p3662
sg39
I2012
sg40
g2
(g41
g4
Ntp3663
Rp3664
(dp3665
g45
F-38.25644699999998
sg46
g9
sg47
F146.5863700000001
sbsbsVAUS0000076
p3666
g2
(g3
g4
Ntp3667
Rp3668
(dp3669
g8
g9
sg10
F58.0
sg11
VHume
p3670
sg13
Nsg14
g15
sg16
g17
sg18
g9
sg19
g3666
sg20
(lp3671
g2
(g22
g4
Ntp3672
Rp3673
(dp3674
g26
g9
sg27
Nsg28
Nsg29
Nsbasg26
g30
sg31
g32
((lp3675
g74
atp3676
Rp3677
sg37
VEraring Energy
p3678
sg39
I2012
sg40
g2
(g41
g4
Ntp3679
Rp3680
(dp3681
g45
F-36.10661899999997
sg46
g9
sg47
F147.03262200000006
sbsbsVAUS0000077
p3682
g2
(g3
g4
Ntp3683
Rp3684
(dp3685
g8
g9
sg10
F6.7
sg11
VHallam Road
p3686
sg13
Nsg14
g15
sg16
g17
sg18
g9
sg19
g3682
sg20
(lp3687
g2
(g22
g4
Ntp3688
Rp3689
(dp3690
g26
g9
sg27
Nsg28
Nsg29
Nsbasg26
g30
sg31
g32
((lp3691
g318
atp3692
Rp3693
sg37
VLMS Energy Generation Pty Ltd
p3694
sg39
I2012
sg40
g2
(g41
g4
Ntp3695
Rp3696
(dp3697
g45
F-38.053342999999984
sg46
g9
sg47
F145.26985600000012
sbsbsVAUS0000078
p3698
g2
(g3
g4
Ntp3699
Rp3700
(dp3701
g8
g9
sg10
F2.2
sg11
VBrowns Plains
p3702
sg13
Nsg14
g15
sg16
g17
sg18
g9
sg19
g3698
sg20
(lp3703
g2
(g22
g4
Ntp3704
Rp3705
(dp3706
g26
g9
sg27
Nsg28
Nsg29
Nsbasg26
g30
sg31
g32
((lp3707
g318
atp3708
Rp3709
sg37
VEnergy Developments LFG (Qld) Pty Ltd
p3710
sg39
I2012
sg40
g2
(g41
g4
Ntp3711
Rp3712
(dp3713
g45
F-27.67213099999998
sg46
g9
sg47
F153.06634600000007
sbsbsVAUS0000079
p3714
g2
(g3
g4
Ntp3715
Rp3716
(dp3717
g8
g9
sg10
F2.8
sg11
VBrooklyn
p3718
sg13
Nsg14
g15
sg16
g17
sg18
g9
sg19
g3714
sg20
(lp3719
g2
(g22
g4
Ntp3720
Rp3721
(dp3722
g26
g9
sg27
Nsg28
Nsg29
Nsbasg26
g30
sg31
g32
((lp3723
g318
atp3724
Rp3725
sg37
VEnergy Developments LFG (Victoria) Pty Ltd
p3726
sg39
I2012
sg40
g2
(g41
g4
Ntp3727
Rp3728
(dp3729
g45
F-37.81796699999995
sg46
g9
sg47
F144.83187600000008
sbsbsVAUS0000238
p3730
g2
(g3
g4
Ntp3731
Rp3732
(dp3733
g8
g9
sg10
F73.5
sg11
VPort Lincoln
p3734
sg13
Nsg14
g15
sg16
g17
sg18
g9
sg19
g3730
sg20
(lp3735
g2
(g22
g4
Ntp3736
Rp3737
(dp3738
g26
g9
sg27
Nsg28
Nsg29
Nsbasg26
g30
sg31
g32
((lp3739
g269
atp3740
Rp3741
sg37
VSynergen Power
p3742
sg39
I2012
sg40
g2
(g41
g4
Ntp3743
Rp3744
(dp3745
g45
F-34.700189999999964
sg46
g9
sg47
F135.80472800000007
sbsbsVAUS0000330
p3746
g2
(g3
g4
Ntp3747
Rp3748
(dp3749
g8
g9
sg10
F4.0
sg11
VCanning Vale
p3750
sg13
Nsg14
g15
sg16
g17
sg18
g9
sg19
g3746
sg20
(lp3751
g2
(g22
g4
Ntp3752
Rp3753
(dp3754
g26
g9
sg27
Nsg28
Nsg29
Nsbasg26
g30
sg31
g32
((lp3755
g318
atp3756
Rp3757
sg37
VLandfill Gas and Power Pty Ltd
p3758
sg39
I2012
sg40
g2
(g41
g4
Ntp3759
Rp3760
(dp3761
g45
F-32.073898749999955
sg46
g9
sg47
F115.89140569100005
sbsbsVAUS0000416
p3762
g2
(g3
g4
Ntp3763
Rp3764
(dp3765
g8
g9
sg10
F150.0
sg11
VBuronga
p3766
sg13
Nsg14
g15
sg16
g17
sg18
g9
sg19
g3762
sg20
(lp3767
g2
(g22
g4
Ntp3768
Rp3769
(dp3770
g26
g9
sg27
Nsg28
Nsg29
Nsbasg26
g30
sg31
g32
((lp3771
g34
atp3772
Rp3773
sg37
VInternational Power Pty Ltd
p3774
sg39
I2012
sg40
g2
(g41
g4
Ntp3775
Rp3776
(dp3777
g45
F-34.10134192299995
sg46
g9
sg47
F142.26166023300004
sbsbsVAUS0000417
p3778
g2
(g3
g4
Ntp3779
Rp3780
(dp3781
g8
g9
sg10
F420.0
sg11
VMacarthur Wind Farm
p3782
sg13
Nsg14
g15
sg16
g17
sg18
g9
sg19
g3778
sg20
(lp3783
g2
(g22
g4
Ntp3784
Rp3785
(dp3786
g26
g9
sg27
Nsg28
Nsg29
Nsbasg26
g30
sg31
g32
((lp3787
g236
atp3788
Rp3789
sg37
VAGL Energy Pty Ltd
p3790
sg39
I2012
sg40
g2
(g41
g4
Ntp3791
Rp3792
(dp3793
g45
F-38.00752684299994
sg46
g9
sg47
F142.18651013700003
sbsbsVAUS0000429
p3794
g2
(g3
g4
Ntp3795
Rp3796
(dp3797
g8
g9
sg10
F0.18
sg11
VMonash University (Clayton Campus) Solar Array
p3798
sg13
Nsg14
g15
sg16
g17
sg18
g9
sg19
g3794
sg20
(lp3799
g2
(g22
g4
Ntp3800
Rp3801
(dp3802
g26
g9
sg27
Nsg28
Nsg29
Nsbasg26
g30
sg31
g32
((lp3803
g1279
atp3804
Rp3805
sg37
VMonash University
p3806
sg39
I2012
sg40
g2
(g41
g4
Ntp3807
Rp3808
(dp3809
g45
F-37.91178734799996
sg46
g9
sg47
F145.13299610500007
sbsbsVAUS0000428
p3810
g2
(g3
g4
Ntp3811
Rp3812
(dp3813
g8
g9
sg10
F0.14
sg11
VBridgewater Solar
p3814
sg13
Nsg14
g15
sg16
g17
sg18
g9
sg19
g3810
sg20
(lp3815
g2
(g22
g4
Ntp3816
Rp3817
(dp3818
g26
g9
sg27
Nsg28
Nsg29
Nsbasg26
g30
sg31
g32
((lp3819
g1279
atp3820
Rp3821
sg37
VSilex Systems
p3822
sg39
I2012
sg40
g2
(g41
g4
Ntp3823
Rp3824
(dp3825
g45
F-36.61349914099998
sg46
g9
sg47
F143.9528805340001
sbsbsVAUS0000427
p3826
g2
(g3
g4
Ntp3827
Rp3828
(dp3829
g8
g9
sg10
F0.24
sg11
VTulla Calder Interchange Solar Array
p3830
sg13
Nsg14
g15
sg16
g17
sg18
g9
sg19
g3826
sg20
(lp3831
g2
(g22
g4
Ntp3832
Rp3833
(dp3834
g26
g9
sg27
Nsg28
Nsg29
Nsbasg26
g30
sg31
g32
((lp3835
g1279
atp3836
Rp3837
sg37
VTullamarine Calder Alliance
p3838
sg39
I2012
sg40
g2
(g41
g4
Ntp3839
Rp3840
(dp3841
g45
F-37.73527874299998
sg46
g9
sg47
F144.894816826
sbsbsVAUS0000426
p3842
g2
(g3
g4
Ntp3843
Rp3844
(dp3845
g8
g9
sg10
F2.37
sg11
VPerth Zoo
p3846
sg13
Nsg14
g15
sg16
g17
sg18
g9
sg19
g3842
sg20
(lp3847
g2
(g22
g4
Ntp3848
Rp3849
(dp3850
g26
g9
sg27
Nsg28
Nsg29
Nsbasg26
g30
sg31
g32
((lp3851
g1279
atp3852
Rp3853
sg37
VPerth Zoo
p3854
sg39
I2012
sg40
g2
(g41
g4
Ntp3855
Rp3856
(dp3857
g45
F-31.976662782999938
sg46
g9
sg47
F115.85478006900007
sbsbsVAUS0000425
p3858
g2
(g3
g4
Ntp3859
Rp3860
(dp3861
g8
g9
sg10
F1.2
sg11
VUniversity of Queensland (St Lucia Campus) Solar Array
p3862
sg13
Nsg14
g15
sg16
g17
sg18
g9
sg19
g3858
sg20
(lp3863
g2
(g22
g4
Ntp3864
Rp3865
(dp3866
g26
g9
sg27
Nsg28
Nsg29
Nsbasg26
g30
sg31
g32
((lp3867
g1279
atp3868
Rp3869
sg37
VUniversity of Queensland
p3870
sg39
I2012
sg40
g2
(g41
g4
Ntp3871
Rp3872
(dp3873
g45
F-27.494958560999976
sg46
g9
sg47
F153.01013752400002
sbsbsVAUS0000424
p3874
g2
(g3
g4
Ntp3875
Rp3876
(dp3877
g8
g9
sg10
F20.9
sg11
VMcArthur River Mine
p3878
sg13
Nsg14
g15
sg16
g17
sg18
g9
sg19
g3874
sg20
(lp3879
g2
(g22
g4
Ntp3880
Rp3881
(dp3882
g26
g9
sg27
Nsg28
Nsg29
Nsbasg26
g30
sg31
g32
((lp3883
g34
atp3884
Rp3885
sg37
VEnergy Developments Ltd
p3886
sg39
I2012
sg40
g2
(g41
g4
Ntp3887
Rp3888
(dp3889
g45
F-16.433498250999946
sg46
g9
sg47
F136.09345945200005
sbsbsVAUS0000230
p3890
g2
(g3
g4
Ntp3891
Rp3892
(dp3893
g8
g9
sg10
F159.0
sg11
VTelfer Gold Mine
p3894
sg13
Nsg14
g15
sg16
g17
sg18
g9
sg19
g3890
sg20
(lp3895
g2
(g22
g4
Ntp3896
Rp3897
(dp3898
g26
g9
sg27
Nsg28
Nsg29
Nsbasg26
g30
sg31
g32
((lp3899
g34
atp3900
Rp3901
sg37
VNewcrest Mining Ltd
p3902
sg39
I2012
sg40
g2
(g41
g4
Ntp3903
Rp3904
(dp3905
g45
F-21.712910999999963
sg46
g9
sg47
F122.20910300000003
sbsbsVAUS0000421
p3906
g2
(g3
g4
Ntp3907
Rp3908
(dp3909
g8
g9
sg10
F0.24
sg11
VKings Canyon
p3910
sg13
Nsg14
g15
sg16
g17
sg18
g9
sg19
g3906
sg20
(lp3911
g2
(g22
g4
Ntp3912
Rp3913
(dp3914
g26
g9
sg27
Nsg28
Nsg29
Nsbasg26
g30
sg31
g32
((lp3915
g1279
atp3916
Rp3917
sg37
VPower and Water Corporation
p3918
sg39
I2012
sg40
g2
(g41
g4
Ntp3919
Rp3920
(dp3921
g45
F-24.25091958799993
sg46
g9
sg47
F131.50064981900005
sbsbsVAUS0000420
p3922
g2
(g3
g4
Ntp3923
Rp3924
(dp3925
g8
g9
sg10
F168.0
sg11
VMusselroe
p3926
sg13
Nsg14
g15
sg16
g17
sg18
g9
sg19
g3922
sg20
(lp3927
g2
(g22
g4
Ntp3928
Rp3929
(dp3930
g26
g9
sg27
Nsg28
Nsg29
Nsbasg26
g30
sg31
g32
((lp3931
g236
atp3932
Rp3933
sg37
VHydro Tasmania Wind Operations Pty Ltd
p3934
sg39
I2013
sg40
g2
(g41
g4
Ntp3935
Rp3936
(dp3937
g45
F-40.779757995999944
sg46
g9
sg47
F148.00975916900006
sbsbsVAUS0000258
p3938
g2
(g3
g4
Ntp3939
Rp3940
(dp3941
g8
g9
sg10
F34.76
sg11
VPine Creek
p3942
sg13
Nsg14
g15
sg16
g17
sg18
g9
sg19
g3938
sg20
(lp3943
g2
(g22
g4
Ntp3944
Rp3945
(dp3946
g26
g9
sg27
Nsg28
Nsg29
Nsbasg26
g30
sg31
g32
((lp3947
g34
atp3948
Rp3949
sg37
VNGD (NT) / Cosmo Power
p3950
sg39
I2012
sg40
g2
(g41
g4
Ntp3951
Rp3952
(dp3953
g45
F-13.785609999999963
sg46
g9
sg47
F131.86236200000008
sbsbsVAUS0000259
p3954
g2
(g3
g4
Ntp3955
Rp3956
(dp3957
g8
g9
sg10
F21.0
sg11
VKatherine
p3958
sg13
Nsg14
g15
sg16
g17
sg18
g9
sg19
g3954
sg20
(lp3959
g2
(g22
g4
Ntp3960
Rp3961
(dp3962
g26
g9
sg27
Nsg28
Nsg29
Nsbasg26
g30
sg31
g32
((lp3963
g34
atp3964
Rp3965
sg37
VNT Power and Water
p3966
sg39
I2012
sg40
g2
(g41
g4
Ntp3967
Rp3968
(dp3969
g45
F-14.458692999999926
sg46
g9
sg47
F132.24450600000011
sbsbsVAUS0000393
p3970
g2
(g3
g4
Ntp3971
Rp3972
(dp3973
g8
g9
sg10
F120.0
sg11
VMuja A
p3974
sg13
Nsg14
g15
sg16
g17
sg18
g9
sg19
g3970
sg20
(lp3975
g2
(g22
g4
Ntp3976
Rp3977
(dp3978
g26
g9
sg27
Nsg28
Nsg29
Nsbasg26
g30
sg31
g32
((lp3979
g91
atp3980
Rp3981
sg37
VVerve Energy
p3982
sg39
I2012
sg40
g2
(g41
g4
Ntp3983
Rp3984
(dp3985
g45
F-33.44667107299995
sg46
g9
sg47
F116.30810859200005
sbsbsVAUS0000231
p3986
g2
(g3
g4
Ntp3987
Rp3988
(dp3989
g8
g9
sg10
F4.0
sg11
VAmcor Gawler
p3990
sg13
Nsg14
g15
sg16
g17
sg18
g9
sg19
g3986
sg20
(lp3991
g2
(g22
g4
Ntp3992
Rp3993
(dp3994
g26
g9
sg27
Nsg28
Nsg29
Nsbasg26
g30
sg31
g32
((lp3995
g269
atp3996
Rp3997
sg37
VEnergy Response
p3998
sg39
I2012
sg40
g2
(g41
g4
Ntp3999
Rp4000
(dp4001
g45
F-34.55085699999995
sg46
g9
sg47
F138.76586400000008
sbsbsVAUS0000395
p4002
g2
(g3
g4
Ntp4003
Rp4004
(dp4005
g8
g9
sg10
F200.0
sg11
VBen Lomond
p4006
sg13
Nsg14
g15
sg16
g17
sg18
g9
sg19
g4002
sg20
(lp4007
g2
(g22
g4
Ntp4008
Rp4009
(dp4010
g26
g9
sg27
Nsg28
Nsg29
Nsbasg26
g30
sg31
g32
((lp4011
g236
atp4012
Rp4013
sg37
VAGL Energy
p4014
sg39
I2012
sg40
g2
(g41
g4
Ntp4015
Rp4016
(dp4017
g45
F-29.962256424999964
sg46
g9
sg47
F151.65852993400006
sbsbsVAUS0000394
p4018
g2
(g3
g4
Ntp4019
Rp4020
(dp4021
g8
g9
sg10
F270.0
sg11
VBoco Rock
p4022
sg13
Nsg14
g15
sg16
g17
sg18
g9
sg19
g4018
sg20
(lp4023
g2
(g22
g4
Ntp4024
Rp4025
(dp4026
g26
g9
sg27
Nsg28
Nsg29
Nsbasg26
g30
sg31
g32
((lp4027
g236
atp4028
Rp4029
sg37
VBoco Rock Wind Farm Pty Ltd
p4030
sg39
I2012
sg40
g2
(g41
g4
Ntp4031
Rp4032
(dp4033
g45
F-36.591414215999976
sg46
g9
sg47
F149.12967511600004
sbsbsVAUS0000397
p4034
g2
(g3
g4
Ntp4035
Rp4036
(dp4037
g8
g9
sg10
F320.0
sg11
VBamarang
p4038
sg13
Nsg14
g15
sg16
g17
sg18
g9
sg19
g4034
sg20
(lp4039
g2
(g22
g4
Ntp4040
Rp4041
(dp4042
g26
g9
sg27
Nsg28
Nsg29
Nsbasg26
g30
sg31
g32
((lp4043
g34
atp4044
Rp4045
sg37
VInfratil Energy Australia Pty Ltd
p4046
sg39
I2012
sg40
g2
(g41
g4
Ntp4047
Rp4048
(dp4049
g45
F-34.902981058999956
sg46
g9
sg47
F150.52582206400007
sbsbsVAUS0000396
p4050
g2
(g3
g4
Ntp4051
Rp4052
(dp4053
g8
g9
sg10
F600.0
sg11
VBannaby
p4054
sg13
Nsg14
g15
sg16
g17
sg18
g9
sg19
g4050
sg20
(lp4055
g2
(g22
g4
Ntp4056
Rp4057
(dp4058
g26
g9
sg27
Nsg28
Nsg29
Nsbasg26
g30
sg31
g32
((lp4059
g34
atp4060
Rp4061
sg37
VSnowy Hydro Ltd
p4062
sg39
I2012
sg40
g2
(g41
g4
Ntp4063
Rp4064
(dp4065
g45
F-34.43176223299997
sg46
g9
sg47
F150.05305831200008
sbsbsVAUS0000250
p4066
g2
(g3
g4
Ntp4067
Rp4068
(dp4069
g8
g9
sg10
F228.3
sg11
VHallett
p4070
sg13
Nsg14
g15
sg16
g17
sg18
g9
sg19
g4066
sg20
(lp4071
g2
(g22
g4
Ntp4072
Rp4073
(dp4074
g26
g9
sg27
Nsg28
Nsg29
Nsbasg26
g30
sg31
g32
((lp4075
g34
atp4076
Rp4077
sg37
VTRUenergy
p4078
sg39
I2012
sg40
g2
(g41
g4
Ntp4079
Rp4080
(dp4081
g45
F-33.34865199999996
sg46
g9
sg47
F138.75165900000002
sbsbsVAUS0000251
p4082
g2
(g3
g4
Ntp4083
Rp4084
(dp4085
g8
g9
sg10
F10.0
sg11
VBerrimah
p4086
sg13
Nsg14
g15
sg16
g17
sg18
g9
sg19
g4082
sg20
(lp4087
g2
(g22
g4
Ntp4088
Rp4089
(dp4090
g26
g9
sg27
Nsg28
Nsg29
Nsbasg26
g30
sg31
g32
((lp4091
g34
atp4092
Rp4093
sg37
VNT Power and Water
p4094
sg39
I2012
sg40
g2
(g41
g4
Ntp4095
Rp4096
(dp4097
g45
F-12.426175999999941
sg46
g9
sg47
F130.91947600000003
sbsbsVAUS0000252
p4098
g2
(g3
g4
Ntp4099
Rp4100
(dp4101
g8
g9
sg10
F1.1
sg11
VLandfill Management Services Shoal Bay
p4102
sg13
Nsg14
g15
sg16
g17
sg18
g9
sg19
g4098
sg20
(lp4103
g2
(g22
g4
Ntp4104
Rp4105
(dp4106
g26
g9
sg27
Nsg28
Nsg29
Nsbasg26
g30
sg31
g32
((lp4107
g318
atp4108
Rp4109
sg37
VLMS Energy Generation Pty Ltd
p4110
sg39
I2012
sg40
g2
(g41
g4
Ntp4111
Rp4112
(dp4113
g45
F-12.389173999999969
sg46
g9
sg47
F130.92540800000006
sbsbsVAUS0000253
p4114
g2
(g3
g4
Ntp4115
Rp4116
(dp4117
g8
g9
sg10
F18.2
sg11
VTennant Creek
p4118
sg13
Nsg14
g15
sg16
g17
sg18
g9
sg19
g4114
sg20
(lp4119
g2
(g22
g4
Ntp4120
Rp4121
(dp4122
g26
g9
sg27
Nsg28
Nsg29
Nsbasg26
g30
sg31
g32
((lp4123
g34
atp4124
Rp4125
sg37
VNT Power and Water
p4126
sg39
I2012
sg40
g2
(g41
g4
Ntp4127
Rp4128
(dp4129
g45
F-19.65492999999998
sg46
g9
sg47
F134.17528500000003
sbsbsVAUS0000254
p4130
g2
(g3
g4
Ntp4131
Rp4132
(dp4133
g8
g9
sg10
F59.6
sg11
VRon Goodin
p4134
sg13
Nsg14
g15
sg16
g17
sg18
g9
sg19
g4130
sg20
(lp4135
g2
(g22
g4
Ntp4136
Rp4137
(dp4138
g26
g9
sg27
Nsg28
Nsg29
Nsbasg26
g30
sg31
g32
((lp4139
g34
atp4140
Rp4141
sg37
VNT Power and Water
p4142
sg39
I2012
sg40
g2
(g41
g4
Ntp4143
Rp4144
(dp4145
g45
F-23.709108999999955
sg46
g9
sg47
F133.8911750000001
sbsbsVAUS0000255
p4146
g2
(g3
g4
Ntp4147
Rp4148
(dp4149
g8
g9
sg10
F36.7
sg11
VOwen Springs
p4150
sg13
Nsg14
g15
sg16
g17
sg18
g9
sg19
g4146
sg20
(lp4151
g2
(g22
g4
Ntp4152
Rp4153
(dp4154
g26
g9
sg27
Nsg28
Nsg29
Nsbasg26
g30
sg31
g32
((lp4155
g34
atp4156
Rp4157
sg37
VNT Power and Water
p4158
sg39
I2012
sg40
g2
(g41
g4
Ntp4159
Rp4160
(dp4161
g45
F-23.863610999999935
sg46
g9
sg47
F133.82548700000007
sbsbsVAUS0000256
p4162
g2
(g3
g4
Ntp4163
Rp4164
(dp4165
g8
g9
sg10
F8.5
sg11
VBrewer
p4166
sg13
Nsg14
g15
sg16
g17
sg18
g9
sg19
g4162
sg20
(lp4167
g2
(g22
g4
Ntp4168
Rp4169
(dp4170
g26
g9
sg27
Nsg28
Nsg29
Nsbasg26
g30
sg31
g32
((lp4171
g34
atp4172
Rp4173
sg37
VCentral Energy Power
p4174
sg39
I2012
sg40
g2
(g41
g4
Ntp4175
Rp4176
(dp4177
g45
F-23.88169799999997
sg46
g9
sg47
F133.82814300000007
sbsbsVAUS0000257
p4178
g2
(g3
g4
Ntp4179
Rp4180
(dp4181
g8
g9
sg10
F4.5
sg11
VYulara
p4182
sg13
Nsg14
g15
sg16
g17
sg18
g9
sg19
g4178
sg20
(lp4183
g2
(g22
g4
Ntp4184
Rp4185
(dp4186
g26
g9
sg27
Nsg28
Nsg29
Nsbasg26
g30
sg31
g32
((lp4187
g34
atp4188
Rp4189
sg37
VNT Power and Water
p4190
sg39
I2012
sg40
g2
(g41
g4
Ntp4191
Rp4192
(dp4193
g45
F-25.232312999999976
sg46
g9
sg47
F130.9911810000001
sbsbsVAUS0000153
p4194
g2
(g3
g4
Ntp4195
Rp4196
(dp4197
g8
g9
sg10
F519.0
sg11
VBraemar 2
p4198
sg13
Nsg14
g15
sg16
g17
sg18
g9
sg19
g4194
sg20
(lp4199
g2
(g22
g4
Ntp4200
Rp4201
(dp4202
g26
g9
sg27
Nsg28
Nsg29
Nsbasg26
g30
sg31
g32
((lp4203
g34
atp4204
Rp4205
sg37
VArrow Energy
p4206
sg39
I2013
sg40
g2
(g41
g4
Ntp4207
Rp4208
(dp4209
g45
F-27.112811267999973
sg46
g9
sg47
F150.90487826100002
sbsbsVAUS0000152
p4210
g2
(g3
g4
Ntp4211
Rp4212
(dp4213
g8
g9
sg10
F504.0
sg11
VBraemar 1
p4214
sg13
Nsg14
g15
sg16
g17
sg18
g9
sg19
g4210
sg20
(lp4215
g2
(g22
g4
Ntp4216
Rp4217
(dp4218
g26
g9
sg27
Nsg28
Nsg29
Nsbasg26
g30
sg31
g32
((lp4219
g34
atp4220
Rp4221
sg37
VAlinta Energy
p4222
sg39
I2012
sg40
g2
(g41
g4
Ntp4223
Rp4224
(dp4225
g45
F-27.11093399999993
sg46
g9
sg47
F150.90533700000003
sbsbsVAUS0000151
p4226
g2
(g3
g4
Ntp4227
Rp4228
(dp4229
g8
g9
sg10
F66.0
sg11
VBarron Gorge
p4230
sg13
Nsg14
g15
sg16
g17
sg18
g9
sg19
g4226
sg20
(lp4231
g2
(g22
g4
Ntp4232
Rp4233
(dp4234
g26
g9
sg27
Nsg28
Nsg29
Nsbasg26
g30
sg31
g32
((lp4235
g74
atp4236
Rp4237
sg37
VStanwell Corporation Ltd
p4238
sg39
I2012
sg40
g2
(g41
g4
Ntp4239
Rp4240
(dp4241
g45
F-16.850198999999975
sg46
g9
sg47
F145.64649500000007
sbsbsVAUS0000099
p4242
g2
(g3
g4
Ntp4243
Rp4244
(dp4245
g8
g9
sg10
F1.8
sg11
VLake William Hovell
p4246
sg13
Nsg14
g15
sg16
g17
sg18
g9
sg19
g4242
sg20
(lp4247
g2
(g22
g4
Ntp4248
Rp4249
(dp4250
g26
g9
sg27
Nsg28
Nsg29
Nsbasg26
g30
sg31
g32
((lp4251
g74
atp4252
Rp4253
sg37
VPacific Hydro Investments Pty Ltd
p4254
sg39
I2012
sg40
g2
(g41
g4
Ntp4255
Rp4256
(dp4257
g45
F-36.91317699999996
sg46
g9
sg47
F146.3915720000001
sbsbsVAUS0000157
p4258
g2
(g3
g4
Ntp4259
Rp4260
(dp4261
g8
g9
sg10
F31.8
sg11
VGerman Creek
p4262
sg13
Nsg14
g15
sg16
g17
sg18
g9
sg19
g4258
sg20
(lp4263
g2
(g22
g4
Ntp4264
Rp4265
(dp4266
g26
g9
sg27
Nsg28
Nsg29
Nsbasg26
g30
sg31
g32
((lp4267
g34
atp4268
Rp4269
sg37
VEnergy Developments CSM (Qld) Pty Ltd
p4270
sg39
I2012
sg40
g2
(g41
g4
Ntp4271
Rp4272
(dp4273
g45
F-22.928146999999967
sg46
g9
sg47
F148.55149700000004
sbsbsVAUS0000156
p4274
g2
(g3
g4
Ntp4275
Rp4276
(dp4277
g8
g9
sg10
F644.0
sg11
VDarling Downs
p4278
sg13
Nsg14
g15
sg16
g17
sg18
g9
sg19
g4274
sg20
(lp4279
g2
(g22
g4
Ntp4280
Rp4281
(dp4282
g26
g9
sg27
Nsg28
Nsg29
Nsbasg26
g30
sg31
g32
((lp4283
g34
atp4284
Rp4285
sg37
VOrigin Energy
p4286
sg39
I2012
sg40
g2
(g41
g4
Ntp4287
Rp4288
(dp4289
g45
F-27.116891412999962
sg46
g9
sg47
F150.89421701800006
sbsbsVAUS0000155
p4290
g2
(g3
g4
Ntp4291
Rp4292
(dp4293
g8
g9
sg10
F30.0
sg11
VDaandine
p4294
sg13
Nsg14
g15
sg16
g17
sg18
g9
sg19
g4290
sg20
(lp4295
g2
(g22
g4
Ntp4296
Rp4297
(dp4298
g26
g9
sg27
Nsg28
Nsg29
Nsbasg26
g30
sg31
g32
((lp4299
g34
atp4300
Rp4301
sg37
VEnergy Infrastructure Investments Pty Ltd
p4302
sg39
I2012
sg40
g2
(g41
g4
Ntp4303
Rp4304
(dp4305
g45
F-27.08631996699995
sg46
g9
sg47
F150.94300545900012
sbsbsVAUS0000154
p4306
g2
(g3
g4
Ntp4307
Rp4308
(dp4309
g8
g9
sg10
F144.0
sg11
VCondamine A
p4310
sg13
Nsg14
g15
sg16
g17
sg18
g9
sg19
g4306
sg20
(lp4311
g2
(g22
g4
Ntp4312
Rp4313
(dp4314
g26
g9
sg27
Nsg28
Nsg29
Nsbasg26
g30
sg31
g32
((lp4315
g34
atp4316
Rp4317
sg37
VQueensland Gas Company
p4318
sg39
I2012
sg40
g2
(g41
g4
Ntp4319
Rp4320
(dp4321
g45
F-26.668222211999932
sg46
g9
sg47
F150.27001446500003
sbsbsVAUS0000092
p4322
g2
(g3
g4
Ntp4323
Rp4324
(dp4325
g8
g9
sg10
F2180.0
sg11
VLoy Yang A
p4326
sg13
Nsg14
g15
sg16
g17
sg18
g9
sg19
g4322
sg20
(lp4327
g2
(g22
g4
Ntp4328
Rp4329
(dp4330
g26
g9
sg27
Nsg28
Nsg29
Nsbasg26
g30
sg31
g32
((lp4331
g91
atp4332
Rp4333
sg37
VGEAC Great Energy Alliance Corporation
p4334
sg39
I2012
sg40
g2
(g41
g4
Ntp4335
Rp4336
(dp4337
g45
F-38.25359999999995
sg46
g9
sg47
F146.5745690000001
sbsbsVAUS0000093
p4338
g2
(g3
g4
Ntp4339
Rp4340
(dp4341
g8
g9
sg10
F0.8
sg11
VMornington
p4342
sg13
Nsg14
g15
sg16
g17
sg18
g9
sg19
g4338
sg20
(lp4343
g2
(g22
g4
Ntp4344
Rp4345
(dp4346
g26
g9
sg27
Nsg28
Nsg29
Nsbasg26
g30
sg31
g32
((lp4347
g318
atp4348
Rp4349
sg37
VLMS Generation Pty Ltd
p4350
sg39
I2012
sg40
g2
(g41
g4
Ntp4351
Rp4352
(dp4353
g45
F-38.39163099999996
sg46
g9
sg47
F144.85532200000011
sbsbsVAUS0000090
p4354
g2
(g3
g4
Ntp4355
Rp4356
(dp4357
g8
g9
sg10
F312.0
sg11
VLaverton North
p4358
sg13
Nsg14
g15
sg16
g17
sg18
g9
sg19
g4354
sg20
(lp4359
g2
(g22
g4
Ntp4360
Rp4361
(dp4362
g26
g9
sg27
Nsg28
Nsg29
Nsbasg26
g30
sg31
g32
((lp4363
g34
atp4364
Rp4365
sg37
VSnowy Hydro Ltd
p4366
sg39
I2012
sg40
g2
(g41
g4
Ntp4367
Rp4368
(dp4369
g45
F-37.841579999999965
sg46
g9
sg47
F144.78871100000003
sbsbsVAUS0000091
p4370
g2
(g3
g4
Ntp4371
Rp4372
(dp4373
g8
g9
sg10
F31.8
sg11
VLongford
p4374
sg13
Nsg14
g15
sg16
g17
sg18
g9
sg19
g4370
sg20
(lp4375
g2
(g22
g4
Ntp4376
Rp4377
(dp4378
g26
g9
sg27
Nsg28
Nsg29
Nsbasg26
g30
sg31
g32
((lp4379
g34
atp4380
Rp4381
sg37
VTRUenergy
p4382
sg39
I2012
sg40
g2
(g41
g4
Ntp4383
Rp4384
(dp4385
g45
F-38.16399999999993
sg46
g9
sg47
F147.0870000000001
sbsbsVAUS0000096
p4386
g2
(g3
g4
Ntp4387
Rp4388
(dp4389
g8
g9
sg10
F160.0
sg11
VSomerton
p4390
sg13
Nsg14
g15
sg16
g17
sg18
g9
sg19
g4386
sg20
(lp4391
g2
(g22
g4
Ntp4392
Rp4393
(dp4394
g26
g9
sg27
Nsg28
Nsg29
Nsbasg26
g30
sg31
g32
((lp4395
g34
atp4396
Rp4397
sg37
VAGL Energy Pty Ltd
p4398
sg39
I2012
sg40
g2
(g41
g4
Ntp4399
Rp4400
(dp4401
g45
F-37.63182199999994
sg46
g9
sg47
F144.95307700000012
sbsbsVAUS0000097
p4402
g2
(g3
g4
Ntp4403
Rp4404
(dp4405
g8
g9
sg10
F5.9
sg11
VSymex Port Melbourne
p4406
sg13
Nsg14
g15
sg16
g17
sg18
g9
sg19
g4402
sg20
(lp4407
g2
(g22
g4
Ntp4408
Rp4409
(dp4410
g26
g9
sg27
Nsg28
Nsg29
Nsbasg26
g30
sg31
g32
((lp4411
g34
atp4412
Rp4413
sg37
VSymex Holding Ltd
p4414
sg39
I2012
sg40
g2
(g41
g4
Ntp4415
Rp4416
(dp4417
g45
F-37.829793999999936
sg46
g9
sg47
F144.94436500000006
sbsbsVAUS0000094
p4418
g2
(g3
g4
Ntp4419
Rp4420
(dp4421
g8
g9
sg10
F500.0
sg11
VNewport
p4422
sg13
Nsg14
g15
sg16
g17
sg18
g9
sg19
g4418
sg20
(lp4423
g2
(g22
g4
Ntp4424
Rp4425
(dp4426
g26
g9
sg27
Nsg28
Nsg29
Nsbasg26
g30
sg31
g32
((lp4427
g34
atp4428
Rp4429
sg37
VIndustry Funds Management
p4430
sg39
I2012
sg40
g2
(g41
g4
Ntp4431
Rp4432
(dp4433
g45
F-37.84146199999998
sg46
g9
sg47
F144.89419700000008
sbsbsVAUS0000095
p4434
g2
(g3
g4
Ntp4435
Rp4436
(dp4437
g8
g9
sg10
F9.6
sg11
VRubicon
p4438
sg13
Nsg14
g15
sg16
g17
sg18
g9
sg19
g4434
sg20
(lp4439
g2
(g22
g4
Ntp4440
Rp4441
(dp4442
g26
g9
sg27
Nsg28
Nsg29
Nsbasg26
g30
sg31
g32
((lp4443
g74
atp4444
Rp4445
sg37
VAGL Energy Pty Ltd
p4446
sg39
I2012
sg40
g2
(g41
g4
Ntp4447
Rp4448
(dp4449
g45
F-37.327219999999954
sg46
g9
sg47
F145.86052000000007
sbsbsVAUS0000418
p4450
g2
(g3
g4
Ntp4451
Rp4452
(dp4453
g8
g9
sg10
F1.6
sg11
VGlenorchy
p4454
sg13
Nsg14
g15
sg16
g17
sg18
g9
sg19
g4450
sg20
(lp4455
g2
(g22
g4
Ntp4456
Rp4457
(dp4458
g26
g9
sg27
Nsg28
Nsg29
Nsbasg26
g30
sg31
g32
((lp4459
g318
atp4460
Rp4461
sg37
VAGL Energy Pty Ltd
p4462
sg39
I2012
sg40
g2
(g41
g4
Ntp4463
Rp4464
(dp4465
g45
F-42.84146316999994
sg46
g9
sg47
F147.25504660000001
sbsbsVAUS0000419
p4466
g2
(g3
g4
Ntp4467
Rp4468
(dp4469
g8
g9
sg10
F1.0
sg11
VHobart
p4470
sg13
Nsg14
g15
sg16
g17
sg18
g9
sg19
g4466
sg20
(lp4471
g2
(g22
g4
Ntp4472
Rp4473
(dp4474
g26
g9
sg27
Nsg28
Nsg29
Nsbasg26
g30
sg31
g32
((lp4475
g318
atp4476
Rp4477
sg37
VAGL Energy Pty Ltd
p4478
sg39
I2012
sg40
g2
(g41
g4
Ntp4479
Rp4480
(dp4481
g45
F-42.88825951299998
sg46
g9
sg47
F147.28882975800002
sbsbsVAUS0000458
p4482
g2
(g3
g4
Ntp4483
Rp4484
(dp4485
g8
g9
sg10
F125.0
sg11
VSolomon Iron Ore Mine
p4486
sg13
Nsg14
g15
sg16
g17
sg18
g9
sg19
g4482
sg20
(lp4487
g2
(g22
g4
Ntp4488
Rp4489
(dp4490
g26
g9
sg27
Nsg28
Nsg29
Nsbasg26
g30
sg31
g32
((lp4491
g34
atp4492
Rp4493
sg37
g9
sg39
Nsg40
g2
(g41
g4
Ntp4494
Rp4495
(dp4496
g45
F-22.158138793999967
sg46
g9
sg47
F117.98486380600002
sbsbsVAUS0000459
p4497
g2
(g3
g4
Ntp4498
Rp4499
(dp4500
g8
g9
sg10
F242.0
sg11
VDiamantina
p4501
sg13
Nsg14
g15
sg16
g17
sg18
g9
sg19
g4497
sg20
(lp4502
g2
(g22
g4
Ntp4503
Rp4504
(dp4505
g26
g9
sg27
Nsg28
Nsg29
Nsbasg26
g30
sg31
g32
((lp4506
g34
atp4507
Rp4508
sg37
VAPA Group and AGL Energy Ltd
p4509
sg39
Nsg40
g2
(g41
g4
Ntp4510
Rp4511
(dp4512
g45
F-20.78374957699998
sg46
g9
sg47
F139.48326740100003
sbsbsVAUS0000452
p4513
g2
(g3
g4
Ntp4514
Rp4515
(dp4516
g8
g9
sg10
F40.0
sg11
VCannington Mine
p4517
sg13
Nsg14
g15
sg16
g17
sg18
g9
sg19
g4513
sg20
(lp4518
g2
(g22
g4
Ntp4519
Rp4520
(dp4521
g26
g9
sg27
Nsg28
Nsg29
Nsbasg26
g30
sg31
g32
((lp4522
g34
atp4523
Rp4524
sg37
VBHP Billiton
p4525
sg39
Nsg40
g2
(g41
g4
Ntp4526
Rp4527
(dp4528
g45
F-21.86013328799993
sg46
g9
sg47
F140.91576749900003
sbsbsVAUS0000453
p4529
g2
(g3
g4
Ntp4530
Rp4531
(dp4532
g8
g9
sg10
F94.5
sg11
VHallett 1 Brown Hill  Wind Farm
p4533
sg13
Nsg14
g15
sg16
g17
sg18
g9
sg19
g4529
sg20
(lp4534
g2
(g22
g4
Ntp4535
Rp4536
(dp4537
g26
g9
sg27
Nsg28
Nsg29
Nsbasg26
g30
sg31
g32
((lp4538
g236
atp4539
Rp4540
sg37
VAGL Energy Pty Ltd
p4541
sg39
I2012
sg40
g2
(g41
g4
Ntp4542
Rp4543
(dp4544
g45
F-33.39496020399997
sg46
g9
sg47
F138.7299433710001
sbsbsVAUS0000450
p4545
g2
(g3
g4
Ntp4546
Rp4547
(dp4548
g8
g9
sg10
F82.0
sg11
VMerredin
p4549
sg13
Nsg14
g15
sg16
g17
sg18
g9
sg19
g4545
sg20
(lp4550
g2
(g22
g4
Ntp4551
Rp4552
(dp4553
g26
g9
sg27
Nsg28
Nsg29
Nsbasg26
g30
sg31
g32
((lp4554
g34
atp4555
Rp4556
sg37
g9
sg39
Nsg40
g2
(g41
g4
Ntp4557
Rp4558
(dp4559
g45
F-31.542313845999956
sg46
g9
sg47
F118.22699785900011
sbsbsVAUS0000451
p4560
g2
(g3
g4
Ntp4561
Rp4562
(dp4563
g8
g9
sg10
F86.0
sg11
VWest Angelas Mine
p4564
sg13
Nsg14
g15
sg16
g17
sg18
g9
sg19
g4560
sg20
(lp4565
g2
(g22
g4
Ntp4566
Rp4567
(dp4568
g26
g9
sg27
Nsg28
Nsg29
Nsbasg26
g30
sg31
g32
((lp4569
g34
atp4570
Rp4571
sg37
VRio Tinto
p4572
sg39
Nsg40
g2
(g41
g4
Ntp4573
Rp4574
(dp4575
g45
F-23.154648546999965
sg46
g9
sg47
F118.72452167400002
sbsbsVAUS0000456
p4576
g2
(g3
g4
Ntp4577
Rp4578
(dp4579
g8
g9
sg10
F98.7
sg11
VSnowtown Wind Farm Stage 2
p4580
sg13
Nsg14
g15
sg16
g17
sg18
g9
sg19
g4576
sg20
(lp4581
g2
(g22
g4
Ntp4582
Rp4583
(dp4584
g26
g9
sg27
Nsg28
Nsg29
Nsbasg26
g30
sg31
g32
((lp4585
g236
atp4586
Rp4587
sg37
VTrustPower Ltd
p4588
sg39
I2012
sg40
g2
(g41
g4
Ntp4589
Rp4590
(dp4591
g45
F-33.83008204299995
sg46
g9
sg47
F138.11841139700005
sbsbsVAUS0000201
p4592
g2
(g3
g4
Ntp4593
Rp4594
(dp4595
g8
g9
sg10
F280.0
sg11
VPinjarra Bauxite Mine and Alumina Refinery
p4596
sg13
Nsg14
g15
sg16
g17
sg18
g9
sg19
g4592
sg20
(lp4597
g2
(g22
g4
Ntp4598
Rp4599
(dp4600
g26
g9
sg27
Nsg28
Nsg29
Nsbasg26
g30
sg31
g32
((lp4601
g34
atp4602
Rp4603
sg37
VAlinta Energy
p4604
sg39
I2012
sg40
g2
(g41
g4
Ntp4605
Rp4606
(dp4607
g45
F-32.647302999999965
sg46
g9
sg47
F115.94689400000004
sbsbsVAUS0000454
p4608
g2
(g3
g4
Ntp4609
Rp4610
(dp4611
g8
g9
sg10
F94.5
sg11
VHallett 5 The Bluff  Wind Farm
p4612
sg13
Nsg14
g15
sg16
g17
sg18
g9
sg19
g4608
sg20
(lp4613
g2
(g22
g4
Ntp4614
Rp4615
(dp4616
g26
g9
sg27
Nsg28
Nsg29
Nsbasg26
g30
sg31
g32
((lp4617
g236
atp4618
Rp4619
sg37
VAGL Energy Pty Ltd
p4620
sg39
I2012
sg40
g2
(g41
g4
Ntp4621
Rp4622
(dp4623
g45
F-33.385546259999956
sg46
g9
sg47
F138.79283152200003
sbsbsVAUS0000422
p4624
g2
(g3
g4
Ntp4625
Rp4626
(dp4627
g8
g9
sg10
F100.0
sg11
VBodangora Wind Farm
p4628
sg13
Nsg14
g15
sg16
g17
sg18
g9
sg19
g4624
sg20
(lp4629
g2
(g22
g4
Ntp4630
Rp4631
(dp4632
g26
g9
sg27
Nsg28
Nsg29
Nsbasg26
g30
sg31
g32
((lp4633
g236
atp4634
Rp4635
sg37
VInfigen Energy
p4636
sg39
I2012
sg40
g2
(g41
g4
Ntp4637
Rp4638
(dp4639
g45
F-32.41367217299995
sg46
g9
sg47
F149.05896359300004
sbsbsVAUS0000200
p4640
g2
(g3
g4
Ntp4641
Rp4642
(dp4643
g8
g9
sg10
F584.0
sg11
VPinjar
p4644
sg13
Nsg14
g15
sg16
g17
sg18
g9
sg19
g4640
sg20
(lp4645
g2
(g22
g4
Ntp4646
Rp4647
(dp4648
g26
g9
sg27
Nsg28
Nsg29
Nsbasg26
g30
sg31
g32
((lp4649
g34
atp4650
Rp4651
sg37
VVerve Energy
p4652
sg39
I2012
sg40
g2
(g41
g4
Ntp4653
Rp4654
(dp4655
g45
F-31.557681354999943
sg46
g9
sg47
F115.82041110400007
sbsbsVAUS0000328
p4656
g2
(g3
g4
Ntp4657
Rp4658
(dp4659
g8
g9
sg10
F1.0
sg11
VShenton Park WMRC Project
p4660
sg13
Nsg14
g15
sg16
g17
sg18
g9
sg19
g4656
sg20
(lp4661
g2
(g22
g4
Ntp4662
Rp4663
(dp4664
g26
g9
sg27
Nsg28
Nsg29
Nsbasg26
g30
sg31
g32
((lp4665
g318
atp4666
Rp4667
sg37
VAnaeCo Ltd
p4668
sg39
I2012
sg40
g2
(g41
g4
Ntp4669
Rp4670
(dp4671
g45
F-31.957666655999958
sg46
g9
sg47
F115.79244349800001
sbsbsVAUS0000329
p4672
g2
(g3
g4
Ntp4673
Rp4674
(dp4675
g8
g9
sg10
F1.3
sg11
VKalamunda
p4676
sg13
Nsg14
g15
sg16
g17
sg18
g9
sg19
g4672
sg20
(lp4677
g2
(g22
g4
Ntp4678
Rp4679
(dp4680
g26
g9
sg27
Nsg28
Nsg29
Nsbasg26
g30
sg31
g32
((lp4681
g269
atp4682
Rp4683
sg37
VLandfill Gas and Power Pty Ltd
p4684
sg39
I2012
sg40
g2
(g41
g4
Ntp4685
Rp4686
(dp4687
g45
F-31.976778615999933
sg46
g9
sg47
F115.99879332700004
sbsbsVAUS0000324
p4688
g2
(g3
g4
Ntp4689
Rp4690
(dp4691
g8
g9
sg10
F36.0
sg11
VCloudbreak
p4692
sg13
Nsg14
g15
sg16
g17
sg18
g9
sg19
g4688
sg20
(lp4693
g2
(g22
g4
Ntp4694
Rp4695
(dp4696
g26
g9
sg27
Nsg28
Nsg29
Nsbasg26
g30
sg31
g32
((lp4697
g269
atp4698
Rp4699
sg37
VContract Power
p4700
sg39
I2012
sg40
g2
(g41
g4
Ntp4701
Rp4702
(dp4703
g45
F-22.324710271999948
sg46
g9
sg47
F119.40401695100002
sbsbsVAUS0000325
p4704
g2
(g3
g4
Ntp4705
Rp4706
(dp4707
g8
g9
sg10
F84.0
sg11
VPort Hedland
p4708
sg13
Nsg14
g15
sg16
g17
sg18
g9
sg19
g4704
sg20
(lp4709
g2
(g22
g4
Ntp4710
Rp4711
(dp4712
g26
g9
sg27
Nsg28
Nsg29
Nsbasg26
g30
sg31
g32
((lp4713
g34
atp4714
Rp4715
sg37
VAlinta Energy
p4716
sg39
I2012
sg40
g2
(g41
g4
Ntp4717
Rp4718
(dp4719
g45
F-20.378178960999946
sg46
g9
sg47
F118.53837434500008
sbsbsVAUS0000326
p4720
g2
(g3
g4
Ntp4721
Rp4722
(dp4723
g8
g9
sg10
F1.1
sg11
VNoranda
p4724
sg13
Nsg14
g15
sg16
g17
sg18
g9
sg19
g4720
sg20
(lp4725
g2
(g22
g4
Ntp4726
Rp4727
(dp4728
g26
g9
sg27
Nsg28
Nsg29
Nsbasg26
g30
sg31
g32
((lp4729
g318
atp4730
Rp4731
sg37
VLMS Energy Generation Pty Ltd
p4732
sg39
I2012
sg40
g2
(g41
g4
Ntp4733
Rp4734
(dp4735
g45
F-31.86538940199995
sg46
g9
sg47
F115.87732708800002
sbsbsVAUS0000327
p4736
g2
(g3
g4
Ntp4737
Rp4738
(dp4739
g8
g9
sg10
F3.65
sg11
VRed Hill
p4740
sg13
Nsg14
g15
sg16
g17
sg18
g9
sg19
g4736
sg20
(lp4741
g2
(g22
g4
Ntp4742
Rp4743
(dp4744
g26
g9
sg27
Nsg28
Nsg29
Nsbasg26
g30
sg31
g32
((lp4745
g318
atp4746
Rp4747
sg37
VLandfill Gas and Power Pty Ltd
p4748
sg39
I2012
sg40
g2
(g41
g4
Ntp4749
Rp4750
(dp4751
g45
F-31.83165058299994
sg46
g9
sg47
F116.09923967700001
sbsbsVAUS0000320
p4752
g2
(g3
g4
Ntp4753
Rp4754
(dp4755
g8
g9
sg10
F9.0
sg11
VNorseman Mine
p4756
sg13
Nsg14
g15
sg16
g17
sg18
g9
sg19
g4752
sg20
(lp4757
g2
(g22
g4
Ntp4758
Rp4759
(dp4760
g26
g9
sg27
Nsg28
Nsg29
Nsbasg26
g30
sg31
g32
((lp4761
g269
atp4762
Rp4763
sg37
g9
sg39
I2012
sg40
g2
(g41
g4
Ntp4764
Rp4765
(dp4766
g45
F-32.19626480499994
sg46
g9
sg47
F121.79433384300012
sbsbsVAUS0000321
p4767
g2
(g3
g4
Ntp4768
Rp4769
(dp4770
g8
g9
sg10
F11.7
sg11
VDarlot Gold Mine
p4771
sg13
Nsg14
g15
sg16
g17
sg18
g9
sg19
g4767
sg20
(lp4772
g2
(g22
g4
Ntp4773
Rp4774
(dp4775
g26
g9
sg27
Nsg28
Nsg29
Nsbasg26
g30
sg31
g32
((lp4776
g34
atp4777
Rp4778
sg37
VBarrick Gold
p4779
sg39
I2012
sg40
g2
(g41
g4
Ntp4780
Rp4781
(dp4782
g45
F-27.897207160999983
sg46
g9
sg47
F121.26976610500003
sbsbsVAUS0000322
p4783
g2
(g3
g4
Ntp4784
Rp4785
(dp4786
g8
g9
sg10
F23.7
sg11
VWindimurra Vanadium Mine
p4787
sg13
Nsg14
g15
sg16
g17
sg18
g9
sg19
g4783
sg20
(lp4788
g2
(g22
g4
Ntp4789
Rp4790
(dp4791
g26
g9
sg27
Nsg28
Nsg29
Nsbasg26
g30
sg31
g32
((lp4792
g34
atp4793
Rp4794
sg37
VAtlantic Ltd
p4795
sg39
I2012
sg40
g2
(g41
g4
Ntp4796
Rp4797
(dp4798
g45
F-28.29331302099996
sg46
g9
sg47
F118.53714696400004
sbsbsVAUS0000323
p4799
g2
(g3
g4
Ntp4800
Rp4801
(dp4802
g8
g9
sg10
F0.6
sg11
VRottnest Island Wind Turbine
p4803
sg13
Nsg14
g15
sg16
g17
sg18
g9
sg19
g4799
sg20
(lp4804
g2
(g22
g4
Ntp4805
Rp4806
(dp4807
g26
g9
sg27
Nsg28
Nsg29
Nsbasg26
g30
sg31
g32
((lp4808
g236
atp4809
Rp4810
sg37
VVerve Energy
p4811
sg39
I2012
sg40
g2
(g41
g4
Ntp4812
Rp4813
(dp4814
g45
F-31.993751991999943
sg46
g9
sg47
F115.52891392800007
sbsbsVAUS0000391
p4815
g2
(g3
g4
Ntp4816
Rp4817
(dp4818
g8
g9
sg10
F2.03
sg11
VEsperance Wind Farm Ten Mile Lagoon
p4819
sg13
Nsg14
g15
sg16
g17
sg18
g9
sg19
g4815
sg20
(lp4820
g2
(g22
g4
Ntp4821
Rp4822
(dp4823
g26
g9
sg27
Nsg28
Nsg29
Nsbasg26
g30
sg31
g32
((lp4824
g236
atp4825
Rp4826
sg37
VVerve Energy
p4827
sg39
I2012
sg40
g2
(g41
g4
Ntp4828
Rp4829
(dp4830
g45
F-33.88016906299998
sg46
g9
sg47
F121.76903887500009
sbsbsVAUS0000390
p4831
g2
(g3
g4
Ntp4832
Rp4833
(dp4834
g8
g9
sg10
F0.02
sg11
VKalbarri PV System
p4835
sg13
Nsg14
g15
sg16
g17
sg18
g9
sg19
g4831
sg20
(lp4836
g2
(g22
g4
Ntp4837
Rp4838
(dp4839
g26
g9
sg27
Nsg28
Nsg29
Nsbasg26
g30
sg31
g32
((lp4840
g1279
atp4841
Rp4842
sg37
VVerve Energy
p4843
sg39
I2012
sg40
g2
(g41
g4
Ntp4844
Rp4845
(dp4846
g45
F-27.71524694699997
sg46
g9
sg47
F114.16969177900012
sbsbsVAUS0000392
p4847
g2
(g3
g4
Ntp4848
Rp4849
(dp4850
g8
g9
sg10
F120.0
sg11
VMuja B
p4851
sg13
Nsg14
g15
sg16
g17
sg18
g9
sg19
g4847
sg20
(lp4852
g2
(g22
g4
Ntp4853
Rp4854
(dp4855
g26
g9
sg27
Nsg28
Nsg29
Nsbasg26
g30
sg31
g32
((lp4856
g91
atp4857
Rp4858
sg37
VVerve Energy
p4859
sg39
I2012
sg40
g2
(g41
g4
Ntp4860
Rp4861
(dp4862
g45
F-33.446806831999936
sg46
g9
sg47
F116.30871950900007
sbsbsVAUS0000209
p4863
g2
(g3
g4
Ntp4864
Rp4865
(dp4866
g8
g9
sg10
F37.0
sg11
VKalgoorlie Nickel Smelter
p4867
sg13
Nsg14
g15
sg16
g17
sg18
g9
sg19
g4863
sg20
(lp4868
g2
(g22
g4
Ntp4869
Rp4870
(dp4871
g26
g9
sg27
Nsg28
Nsg29
Nsbasg26
g30
sg31
g32
((lp4872
g34
atp4873
Rp4874
sg37
VSouthern Cross Energy
p4875
sg39
I2012
sg40
g2
(g41
g4
Ntp4876
Rp4877
(dp4878
g45
F-30.87366899999995
sg46
g9
sg47
F121.48418800000002
sbsbsVAUS0000208
p4879
g2
(g3
g4
Ntp4880
Rp4881
(dp4882
g8
g9
sg10
F340.0
sg11
VCollie A
p4883
sg13
Nsg14
g15
sg16
g17
sg18
g9
sg19
g4879
sg20
(lp4884
g2
(g22
g4
Ntp4885
Rp4886
(dp4887
g26
g9
sg27
Nsg28
Nsg29
Nsbasg26
g30
sg31
g32
((lp4888
g91
atp4889
Rp4890
sg37
VVerve Energy
p4891
sg39
I2012
sg40
g2
(g41
g4
Ntp4892
Rp4893
(dp4894
g45
F-33.34218099999998
sg46
g9
sg47
F116.261165
sbsbsVAUS0000399
p4895
g2
(g3
g4
Ntp4896
Rp4897
(dp4898
g8
g9
sg10
F2.1
sg11
VBankstown Sports Club
p4899
sg13
Nsg14
g15
sg16
g17
sg18
g9
sg19
g4895
sg20
(lp4900
g2
(g22
g4
Ntp4901
Rp4902
(dp4903
g26
g9
sg27
Nsg28
Nsg29
Nsbasg26
g30
sg31
g32
((lp4904
g269
atp4905
Rp4906
sg37
VBankstown Sports Club
p4907
sg39
I2012
sg40
g2
(g41
g4
Ntp4908
Rp4909
(dp4910
g45
F-33.919699597999966
sg46
g9
sg47
F151.03324363800004
sbsbsVAUS0000398
p4911
g2
(g3
g4
Ntp4912
Rp4913
(dp4914
g8
g9
sg10
F200.0
sg11
VBango Wind Farm
p4915
sg13
Nsg14
g15
sg16
g17
sg18
g9
sg19
g4911
sg20
(lp4916
g2
(g22
g4
Ntp4917
Rp4918
(dp4919
g26
g9
sg27
Nsg28
Nsg29
Nsbasg26
g30
sg31
g32
((lp4920
g236
atp4921
Rp4922
sg37
VBango Wind Farm Pty Ltd
p4923
sg39
I2012
sg40
g2
(g41
g4
Ntp4924
Rp4925
(dp4926
g45
F-34.60577781699993
sg46
g9
sg47
F148.86955733900004
sbsbsVAUS0000050
p4927
g2
(g3
g4
Ntp4928
Rp4929
(dp4930
g8
g9
sg10
F111.0
sg11
VWaterloo Wind Farm
p4931
sg13
Nsg14
g15
sg16
g17
sg18
g9
sg19
g4927
sg20
(lp4932
g2
(g22
g4
Ntp4933
Rp4934
(dp4935
g26
g9
sg27
Nsg28
Nsg29
Nsbasg26
g30
sg31
g32
((lp4936
g236
atp4937
Rp4938
sg37
VTRUenergy
p4939
sg39
I2012
sg40
g2
(g41
g4
Ntp4940
Rp4941
(dp4942
g45
F-34.000357623999946
sg46
g9
sg47
F138.91531889200007
sbsbsVAUS0000180
p4943
g2
(g3
g4
Ntp4944
Rp4945
(dp4946
g8
g9
sg10
F39.6
sg11
VBroome
p4947
sg13
Nsg14
g15
sg16
g17
sg18
g9
sg19
g4943
sg20
(lp4948
g2
(g22
g4
Ntp4949
Rp4950
(dp4951
g26
g9
sg27
Nsg28
Nsg29
Nsbasg26
g30
sg31
g32
((lp4952
g34
atp4953
Rp4954
sg37
VEnergy Developments Ltd
p4955
sg39
I2012
sg40
g2
(g41
g4
Ntp4956
Rp4957
(dp4958
g45
F-17.981026999999926
sg46
g9
sg47
F122.20460200000002
sbsbsVAUS0000181
p4959
g2
(g3
g4
Ntp4960
Rp4961
(dp4962
g8
g9
sg10
F240.0
sg11
VBurrup Peninsula (Karratha Gas Plant)
p4963
sg13
Nsg14
g15
sg16
g17
sg18
g9
sg19
g4959
sg20
(lp4964
g2
(g22
g4
Ntp4965
Rp4966
(dp4967
g26
g9
sg27
Nsg28
Nsg29
Nsbasg26
g30
sg31
g32
((lp4968
g34
atp4969
Rp4970
sg37
VWoodside Pty Ltd
p4971
sg39
I2012
sg40
g2
(g41
g4
Ntp4972
Rp4973
(dp4974
g45
F-20.62864899999994
sg46
g9
sg47
F116.78214700000001
sbsbsVAUS0000182
p4975
g2
(g3
g4
Ntp4976
Rp4977
(dp4978
g8
g9
sg10
F160.0
sg11
VBurrup Peninsula (Pluto Phase 1)
p4979
sg13
Nsg14
g15
sg16
g17
sg18
g9
sg19
g4975
sg20
(lp4980
g2
(g22
g4
Ntp4981
Rp4982
(dp4983
g26
g9
sg27
Nsg28
Nsg29
Nsbasg26
g30
sg31
g32
((lp4984
g34
atp4985
Rp4986
sg37
VWoodside Pty Ltd
p4987
sg39
I2012
sg40
g2
(g41
g4
Ntp4988
Rp4989
(dp4990
g45
F-20.59367999999995
sg46
g9
sg47
F116.78015000000005
sbsbsVAUS0000183
p4991
g2
(g3
g4
Ntp4992
Rp4993
(dp4994
g8
g9
sg10
F240.0
sg11
VCockburn
p4995
sg13
Nsg14
g15
sg16
g17
sg18
g9
sg19
g4991
sg20
(lp4996
g2
(g22
g4
Ntp4997
Rp4998
(dp4999
g26
g9
sg27
Nsg28
Nsg29
Nsbasg26
g30
sg31
g32
((lp5000
g34
atp5001
Rp5002
sg37
VVerve Energy
p5003
sg39
I2012
sg40
g2
(g41
g4
Ntp5004
Rp5005
(dp5006
g45
F-32.20011899999997
sg46
g9
sg47
F115.77367900000002
sbsbsVAUS0000184
p5007
g2
(g3
g4
Ntp5008
Rp5009
(dp5010
g8
g9
sg10
F416.0
sg11
VCollie (Bluewaters)
p5011
sg13
Nsg14
g15
sg16
g17
sg18
g9
sg19
g5007
sg20
(lp5012
g2
(g22
g4
Ntp5013
Rp5014
(dp5015
g26
g9
sg27
Nsg28
Nsg29
Nsbasg26
g30
sg31
g32
((lp5016
g91
atp5017
Rp5018
sg37
VGriffin Energy
p5019
sg39
I2012
sg40
g2
(g41
g4
Ntp5020
Rp5021
(dp5022
g45
F-33.33099999999996
sg46
g9
sg47
F116.22900000000004
sbsbsVAUS0000185
p5023
g2
(g3
g4
Ntp5024
Rp5025
(dp5026
g8
g9
sg10
F120.0
sg11
VDampier
p5027
sg13
Nsg14
g15
sg16
g17
sg18
g9
sg19
g5023
sg20
(lp5028
g2
(g22
g4
Ntp5029
Rp5030
(dp5031
g26
g9
sg27
Nsg28
Nsg29
Nsbasg26
g30
sg31
g32
((lp5032
g34
atp5033
Rp5034
sg37
VRio Tinto Australia Pty Ltd
p5035
sg39
I2012
sg40
g2
(g41
g4
Ntp5036
Rp5037
(dp5038
g45
F-20.64798499999995
sg46
g9
sg47
F116.72190400000011
sbsbsVAUS0000186
p5039
g2
(g3
g4
Ntp5040
Rp5041
(dp5042
g8
g9
sg10
F39.0
sg11
VEsperance
p5043
sg13
Nsg14
g15
sg16
g17
sg18
g9
sg19
g5039
sg20
(lp5044
g2
(g22
g4
Ntp5045
Rp5046
(dp5047
g26
g9
sg27
Nsg28
Nsg29
Nsbasg26
g30
sg31
g32
((lp5048
g34
atp5049
Rp5050
sg37
VInfrastructure Capital Group
p5051
sg39
I2012
sg40
g2
(g41
g4
Ntp5052
Rp5053
(dp5054
g45
F-33.87619999999998
sg46
g9
sg47
F121.89980000000003
sbsbsVAUS0000187
p5055
g2
(g3
g4
Ntp5056
Rp5057
(dp5058
g8
g9
sg10
F21.0
sg11
VGeraldton
p5059
sg13
Nsg14
g15
sg16
g17
sg18
g9
sg19
g5055
sg20
(lp5060
g2
(g22
g4
Ntp5061
Rp5062
(dp5063
g26
g9
sg27
Nsg28
Nsg29
Nsbasg26
g30
sg31
g32
((lp5064
g34
atp5065
Rp5066
sg37
VVerve Energy
p5067
sg39
I2012
sg40
g2
(g41
g4
Ntp5068
Rp5069
(dp5070
g45
F-28.77010699999994
sg46
g9
sg47
F114.64848200000006
sbsbsVAUS0000188
p5071
g2
(g3
g4
Ntp5072
Rp5073
(dp5074
g8
g9
sg10
F110.0
sg11
VKalgoorlie (Parkeston)
p5075
sg13
Nsg14
g15
sg16
g17
sg18
g9
sg19
g5071
sg20
(lp5076
g2
(g22
g4
Ntp5077
Rp5078
(dp5079
g26
g9
sg27
Nsg28
Nsg29
Nsbasg26
g30
sg31
g32
((lp5080
g34
atp5081
Rp5082
sg37
VNewmount Australia / Transalta
p5083
sg39
I2012
sg40
g2
(g41
g4
Ntp5084
Rp5085
(dp5086
g45
F-30.737809999999968
sg46
g9
sg47
F121.50654300000008
sbsbsVAUS0000189
p5087
g2
(g3
g4
Ntp5088
Rp5089
(dp5090
g8
g9
sg10
F86.0
sg11
VKarratha
p5091
sg13
Nsg14
g15
sg16
g17
sg18
g9
sg19
g5087
sg20
(lp5092
g2
(g22
g4
Ntp5093
Rp5094
(dp5095
g26
g9
sg27
Nsg28
Nsg29
Nsbasg26
g30
sg31
g32
((lp5096
g34
atp5097
Rp5098
sg37
VATCO Power
p5099
sg39
I2012
sg40
g2
(g41
g4
Ntp5100
Rp5101
(dp5102
g45
F-20.762566999999933
sg46
g9
sg47
F116.83747300000005
sbsbsVAUS0000021
p5103
g2
(g3
g4
Ntp5104
Rp5105
(dp5106
g8
g9
sg10
F1.1
sg11
VJindabyne Dam Mini Hydro
p5107
sg13
Nsg14
g15
sg16
g17
sg18
g9
sg19
g5103
sg20
(lp5108
g2
(g22
g4
Ntp5109
Rp5110
(dp5111
g26
g9
sg27
Nsg28
Nsg29
Nsbasg26
g30
sg31
g32
((lp5112
g74
atp5113
Rp5114
sg37
VSnowy Hydro Ltd
p5115
sg39
I2012
sg40
g2
(g41
g4
Ntp5116
Rp5117
(dp5118
g45
F-36.435149999999965
sg46
g9
sg47
F148.6332500000001
sbsbsVAUS0000020
p5119
g2
(g3
g4
Ntp5120
Rp5121
(dp5122
g8
g9
sg10
F30.0
sg11
VYambuk Wind Farm
p5123
sg13
Nsg14
g15
sg16
g17
sg18
g9
sg19
g5119
sg20
(lp5124
g2
(g22
g4
Ntp5125
Rp5126
(dp5127
g26
g9
sg27
Nsg28
Nsg29
Nsbasg26
g30
sg31
g32
((lp5128
g236
atp5129
Rp5130
sg37
VEnergy Pacific (Victoria) Pty Ltd
p5131
sg39
I2012
sg40
g2
(g41
g4
Ntp5132
Rp5133
(dp5134
g45
F-38.30835520699998
sg46
g9
sg47
F142.0100325850001
sbsbsVAUS0000027
p5135
g2
(g3
g4
Ntp5136
Rp5137
(dp5138
g8
g9
sg10
F9.9
sg11
VBlayney Wind Farm
p5139
sg13
Nsg14
g15
sg16
g17
sg18
g9
sg19
g5135
sg20
(lp5140
g2
(g22
g4
Ntp5141
Rp5142
(dp5143
g26
g9
sg27
Nsg28
Nsg29
Nsbasg26
g30
sg31
g32
((lp5144
g236
atp5145
Rp5146
sg37
VEraring Energy
p5147
sg39
I2012
sg40
g2
(g41
g4
Ntp5148
Rp5149
(dp5150
g45
F-33.62188999999995
sg46
g9
sg47
F149.19821000000002
sbsbsVAUS0000026
p5151
g2
(g3
g4
Ntp5152
Rp5153
(dp5154
g8
g9
sg10
F20.0
sg11
VWyangala A
p5155
sg13
Nsg14
g15
sg16
g17
sg18
g9
sg19
g5151
sg20
(lp5156
g2
(g22
g4
Ntp5157
Rp5158
(dp5159
g26
g9
sg27
Nsg28
Nsg29
Nsbasg26
g30
sg31
g32
((lp5160
g74
atp5161
Rp5162
sg37
VCountry Energy
p5163
sg39
I2012
sg40
g2
(g41
g4
Ntp5164
Rp5165
(dp5166
g45
F-33.980988999999965
sg46
g9
sg47
F148.94730600000003
sbsbsVAUS0000025
p5167
g2
(g3
g4
Ntp5168
Rp5169
(dp5170
g8
g9
sg10
F56.7
sg11
VClements Gap Wind Farm
p5171
sg13
Nsg14
g15
sg16
g17
sg18
g9
sg19
g5167
sg20
(lp5172
g2
(g22
g4
Ntp5173
Rp5174
(dp5175
g26
g9
sg27
Nsg28
Nsg29
Nsbasg26
g30
sg31
g32
((lp5176
g236
atp5177
Rp5178
sg37
VPacific Hydro Pty Ltd
p5179
sg39
I2012
sg40
g2
(g41
g4
Ntp5180
Rp5181
(dp5182
g45
F-33.508567708999976
sg46
g9
sg47
F138.11917519200006
sbsbsVAUS0000024
p5183
g2
(g3
g4
Ntp5184
Rp5185
(dp5186
g8
g9
sg10
F132.3
sg11
VHallett 4 North Brown Hill  Wind Farm
p5187
sg13
Nsg14
g15
sg16
g17
sg18
g9
sg19
g5183
sg20
(lp5188
g2
(g22
g4
Ntp5189
Rp5190
(dp5191
g26
g9
sg27
Nsg28
Nsg29
Nsbasg26
g30
sg31
g32
((lp5192
g236
atp5193
Rp5194
sg37
VAGL Energy Pty Ltd
p5195
sg39
I2012
sg40
g2
(g41
g4
Ntp5196
Rp5197
(dp5198
g45
F-33.30925994199998
sg46
g9
sg47
F138.72959554200008
sbsbsVAUS0000051
p5199
g2
(g3
g4
Ntp5200
Rp5201
(dp5202
g8
g9
sg10
F12.0
sg11
VWindy Hill Wind Farm
p5203
sg13
Nsg14
g15
sg16
g17
sg18
g9
sg19
g5199
sg20
(lp5204
g2
(g22
g4
Ntp5205
Rp5206
(dp5207
g26
g9
sg27
Nsg28
Nsg29
Nsbasg26
g30
sg31
g32
((lp5208
g236
atp5209
Rp5210
sg37
VRATCH-Australia
p5211
sg39
I2012
sg40
g2
(g41
g4
Ntp5212
Rp5213
(dp5214
g45
F-17.592199999999934
sg46
g9
sg47
F145.53060000000005
sbsbsVAUS0000098
p5215
g2
(g3
g4
Ntp5216
Rp5217
(dp5218
g8
g9
sg10
F300.0
sg11
VValley (Peaking Facility)
p5219
sg13
Nsg14
g15
sg16
g17
sg18
g9
sg19
g5215
sg20
(lp5220
g2
(g22
g4
Ntp5221
Rp5222
(dp5223
g26
g9
sg27
Nsg28
Nsg29
Nsbasg26
g30
sg31
g32
((lp5224
g34
atp5225
Rp5226
sg37
VSnowy Hydro Ltd
p5227
sg39
I2012
sg40
g2
(g41
g4
Ntp5228
Rp5229
(dp5230
g45
F-38.25362199999995
sg46
g9
sg47
F146.5891660000001
sbsbsVAUS0000150
p5231
g2
(g3
g4
Ntp5232
Rp5233
(dp5234
g8
g9
sg10
F500.0
sg11
VWivenhoe Hydroelectric
p5235
sg13
Nsg14
g15
sg16
g17
sg18
g9
sg19
g5231
sg20
(lp5236
g2
(g22
g4
Ntp5237
Rp5238
(dp5239
g26
g9
sg27
Nsg28
Nsg29
Nsbasg26
g30
sg31
g32
((lp5240
g74
atp5241
Rp5242
sg37
VCS Energy
p5243
sg39
I2012
sg40
g2
(g41
g4
Ntp5244
Rp5245
(dp5246
g45
F-27.372220999999968
sg46
g9
sg47
F152.6320280000001
sbsbsVAUS0000159
p5247
g2
(g3
g4
Ntp5248
Rp5249
(dp5250
g8
g9
sg10
F25.0
sg11
VIsis Central Sugar Mill
p5251
sg13
Nsg14
g15
sg16
g17
sg18
g9
sg19
g5247
sg20
(lp5252
g2
(g22
g4
Ntp5253
Rp5254
(dp5255
g26
g9
sg27
Nsg28
Nsg29
Nsbasg26
g30
sg31
g32
((lp5256
g398
atp5257
Rp5258
sg37
VAGL Energy Pty Ltd
p5259
sg39
I2012
sg40
g2
(g41
g4
Ntp5260
Rp5261
(dp5262
g45
F-25.19398599999994
sg46
g9
sg47
F152.20855600000004
sbsbsVAUS0000294
p5263
g2
(g3
g4
Ntp5264
Rp5265
(dp5266
g8
g9
sg10
F664.0
sg11
VUranquinty
p5267
sg13
Nsg14
g15
sg16
g17
sg18
g9
sg19
g5263
sg20
(lp5268
g2
(g22
g4
Ntp5269
Rp5270
(dp5271
g26
g9
sg27
Nsg28
Nsg29
Nsbasg26
g30
sg31
g32
((lp5272
g34
atp5273
Rp5274
sg37
VOrigin Energy
p5275
sg39
I2012
sg40
g2
(g41
g4
Ntp5276
Rp5277
(dp5278
g45
F-35.17939499999994
sg46
g9
sg47
F147.2156920000001
sbsbsVAUS0000295
p5279
g2
(g3
g4
Ntp5280
Rp5281
(dp5282
g8
g9
sg10
F1320.0
sg11
VVales Point B
p5283
sg13
Nsg14
g15
sg16
g17
sg18
g9
sg19
g5279
sg20
(lp5284
g2
(g22
g4
Ntp5285
Rp5286
(dp5287
g26
g9
sg27
Nsg28
Nsg29
Nsbasg26
g30
sg31
g32
((lp5288
g91
atp5289
Rp5290
sg37
VDelta Electricity
p5291
sg39
I2012
sg40
g2
(g41
g4
Ntp5292
Rp5293
(dp5294
g45
F-33.16074499999996
sg46
g9
sg47
F151.5431460000001
sbsbsVAUS0000296
p5295
g2
(g3
g4
Ntp5296
Rp5297
(dp5298
g8
g9
sg10
F1000.0
sg11
VWallerawang C
p5299
sg13
Nsg14
g15
sg16
g17
sg18
g9
sg19
g5295
sg20
(lp5300
g2
(g22
g4
Ntp5301
Rp5302
(dp5303
g26
g9
sg27
Nsg28
Nsg29
Nsbasg26
g30
sg31
g32
((lp5304
g91
atp5305
Rp5306
sg37
VTRUenergy
p5307
sg39
I2012
sg40
g2
(g41
g4
Ntp5308
Rp5309
(dp5310
g45
F-33.40282399999995
sg46
g9
sg47
F150.08334500000012
sbsbsVAUS0000297
p5311
g2
(g3
g4
Ntp5312
Rp5313
(dp5314
g8
g9
sg10
F50.0
sg11
VWarragamba
p5315
sg13
Nsg14
g15
sg16
g17
sg18
g9
sg19
g5311
sg20
(lp5316
g2
(g22
g4
Ntp5317
Rp5318
(dp5319
g26
g9
sg27
Nsg28
Nsg29
Nsbasg26
g30
sg31
g32
((lp5320
g74
atp5321
Rp5322
sg37
VEraring Energy
p5323
sg39
I2012
sg40
g2
(g41
g4
Ntp5324
Rp5325
(dp5326
g45
F-33.88324199999994
sg46
g9
sg47
F150.59654100000012
sbsbsVAUS0000290
p5327
g2
(g3
g4
Ntp5328
Rp5329
(dp5330
g8
g9
sg10
F810.0
sg11
VTomago Aluminium Smelter
p5331
sg13
Nsg14
g15
sg16
g17
sg18
g9
sg19
g5327
sg20
(lp5332
g2
(g22
g4
Ntp5333
Rp5334
(dp5335
g26
g9
sg27
Nsg28
Nsg29
Nsbasg26
g30
sg31
g32
((lp5336
g34
atp5337
Rp5338
sg37
VTomago Aluminium
p5339
sg39
I2012
sg40
g2
(g41
g4
Ntp5340
Rp5341
(dp5342
g45
F-32.821650999999974
sg46
g9
sg47
F151.7178090000001
sbsbsVAUS0000291
p5343
g2
(g3
g4
Ntp5344
Rp5345
(dp5346
g8
g9
sg10
F41.2
sg11
VTower Mine
p5347
sg13
Nsg14
g15
sg16
g17
sg18
g9
sg19
g5343
sg20
(lp5348
g2
(g22
g4
Ntp5349
Rp5350
(dp5351
g26
g9
sg27
Nsg28
Nsg29
Nsbasg26
g30
sg31
g32
((lp5352
g34
atp5353
Rp5354
sg37
VEnergy Developments Ltd
p5355
sg39
I2012
sg40
g2
(g41
g4
Ntp5356
Rp5357
(dp5358
g45
F-34.22069199999993
sg46
g9
sg47
F150.7179410000001
sbsbsVAUS0000292
p5359
g2
(g3
g4
Ntp5360
Rp5361
(dp5362
g8
g9
sg10
F384.0
sg11
VTumut 1 (Upper Tumut)
p5363
sg13
Nsg14
g15
sg16
g17
sg18
g9
sg19
g5359
sg20
(lp5364
g2
(g22
g4
Ntp5365
Rp5366
(dp5367
g26
g9
sg27
Nsg28
Nsg29
Nsbasg26
g30
sg31
g32
((lp5368
g74
atp5369
Rp5370
sg37
VSnowy Hydro Ltd
p5371
sg39
I2012
sg40
g2
(g41
g4
Ntp5372
Rp5373
(dp5374
g45
F-35.95172899999994
sg46
g9
sg47
F148.36371000000008
sbsbsVAUS0000293
p5375
g2
(g3
g4
Ntp5376
Rp5377
(dp5378
g8
g9
sg10
F336.0
sg11
VTumut 2 (Upper Tumut)
p5379
sg13
Nsg14
g15
sg16
g17
sg18
g9
sg19
g5375
sg20
(lp5380
g2
(g22
g4
Ntp5381
Rp5382
(dp5383
g26
g9
sg27
Nsg28
Nsg29
Nsbasg26
g30
sg31
g32
((lp5384
g74
atp5385
Rp5386
sg37
VSnowy Hydro Ltd
p5387
sg39
I2012
sg40
g2
(g41
g4
Ntp5388
Rp5389
(dp5390
g45
F-35.881290999999976
sg46
g9
sg47
F148.36725200000012
sbsbsVAUS0000117
p5391
g2
(g3
g4
Ntp5392
Rp5393
(dp5394
g8
g9
sg10
F125.0
sg11
VTungatinah
p5395
sg13
Nsg14
g15
sg16
g17
sg18
g9
sg19
g5391
sg20
(lp5396
g2
(g22
g4
Ntp5397
Rp5398
(dp5399
g26
g9
sg27
Nsg28
Nsg29
Nsbasg26
g30
sg31
g32
((lp5400
g74
atp5401
Rp5402
sg37
VHydro-Electric Corporation (Tasmania)
p5403
sg39
I2012
sg40
g2
(g41
g4
Ntp5404
Rp5405
(dp5406
g45
F-42.29667099999995
sg46
g9
sg47
F146.456543
sbsbsVAUS0000116
p5407
g2
(g3
g4
Ntp5408
Rp5409
(dp5410
g8
g9
sg10
F38.3
sg11
VWayatinah
p5411
sg13
Nsg14
g15
sg16
g17
sg18
g9
sg19
g5407
sg20
(lp5412
g2
(g22
g4
Ntp5413
Rp5414
(dp5415
g26
g9
sg27
Nsg28
Nsg29
Nsbasg26
g30
sg31
g32
((lp5416
g74
atp5417
Rp5418
sg37
VHydro-Electric Corporation (Tasmania)
p5419
sg39
I2012
sg40
g2
(g41
g4
Ntp5420
Rp5421
(dp5422
g45
F-42.427175999999974
sg46
g9
sg47
F146.53470900000002
sbsbsVAUS0000115
p5423
g2
(g3
g4
Ntp5424
Rp5425
(dp5426
g8
g9
sg10
F2.2
sg11
VRemount
p5427
sg13
Nsg14
g15
sg16
g17
sg18
g9
sg19
g5423
sg20
(lp5428
g2
(g22
g4
Ntp5429
Rp5430
(dp5431
g26
g9
sg27
Nsg28
Nsg29
Nsbasg26
g30
sg31
g32
((lp5432
g318
atp5433
Rp5434
sg37
VLMS Energy Generation Pty Ltd
p5435
sg39
I2012
sg40
g2
(g41
g4
Ntp5436
Rp5437
(dp5438
g45
F-41.39504899999997
sg46
g9
sg47
F147.15542500000004
sbsbsVAUS0000114
p5439
g2
(g3
g4
Ntp5440
Rp5441
(dp5442
g8
g9
sg10
F150.0
sg11
VAnglesea
p5443
sg13
Nsg14
g15
sg16
g17
sg18
g9
sg19
g5439
sg20
(lp5444
g2
(g22
g4
Ntp5445
Rp5446
(dp5447
g26
g9
sg27
Nsg28
Nsg29
Nsbasg26
g30
sg31
g32
((lp5448
g91
atp5449
Rp5450
sg37
VAlcoa of Australia Ltd
p5451
sg39
I2012
sg40
g2
(g41
g4
Ntp5452
Rp5453
(dp5454
g45
F-38.38605599999994
sg46
g9
sg47
F144.18278900000007
sbsbsVAUS0000298
p5455
g2
(g3
g4
Ntp5456
Rp5457
(dp5458
g8
g9
sg10
F1.0
sg11
VWest Illawarra Leagues Club
p5459
sg13
Nsg14
g15
sg16
g17
sg18
g9
sg19
g5455
sg20
(lp5460
g2
(g22
g4
Ntp5461
Rp5462
(dp5463
g26
g9
sg27
Nsg28
Nsg29
Nsbasg26
g30
sg31
g32
((lp5464
g269
atp5465
Rp5466
sg37
VWest Illawarra Leagues Club
p5467
sg39
I2012
sg40
g2
(g41
g4
Ntp5468
Rp5469
(dp5470
g45
F-34.45153699999997
sg46
g9
sg47
F150.84290700000008
sbsbsVAUS0000299
p5471
g2
(g3
g4
Ntp5472
Rp5473
(dp5474
g8
g9
sg10
F1.3
sg11
VWestern Suburbs Leagues Club (Campbelltown)
p5475
sg13
Nsg14
g15
sg16
g17
sg18
g9
sg19
g5471
sg20
(lp5476
g2
(g22
g4
Ntp5477
Rp5478
(dp5479
g26
g9
sg27
Nsg28
Nsg29
Nsbasg26
g30
sg31
g32
((lp5480
g269
atp5481
Rp5482
sg37
VWestern Suburbs Leagues Club (Campbelltown)
p5483
sg39
I2012
sg40
g2
(g41
g4
Ntp5484
Rp5485
(dp5486
g45
F-34.05132599999996
sg46
g9
sg47
F150.8328600000001
sbsbsVAUS0000111
p5487
g2
(g3
g4
Ntp5488
Rp5489
(dp5490
g8
g9
sg10
F44.0
sg11
VCape Nelson South Wind Farm
p5491
sg13
Nsg14
g15
sg16
g17
sg18
g9
sg19
g5487
sg20
(lp5492
g2
(g22
g4
Ntp5493
Rp5494
(dp5495
g26
g9
sg27
Nsg28
Nsg29
Nsbasg26
g30
sg31
g32
((lp5496
g236
atp5497
Rp5498
sg37
VPacific Hydro Pty Ltd
p5499
sg39
I2012
sg40
g2
(g41
g4
Ntp5500
Rp5501
(dp5502
g45
F-38.41199999999998
sg46
g9
sg47
F141.54300000000012
sbsbsVAUS0000110
p5503
g2
(g3
g4
Ntp5504
Rp5505
(dp5506
g8
g9
sg10
F54.0
sg11
VCape Sir William Grant Wind Farm
p5507
sg13
Nsg14
g15
sg16
g17
sg18
g9
sg19
g5503
sg20
(lp5508
g2
(g22
g4
Ntp5509
Rp5510
(dp5511
g26
g9
sg27
Nsg28
Nsg29
Nsbasg26
g30
sg31
g32
((lp5512
g236
atp5513
Rp5514
sg37
VPacific Hydro Pty Ltd
p5515
sg39
I2012
sg40
g2
(g41
g4
Ntp5516
Rp5517
(dp5518
g45
F-38.39759299999997
sg46
g9
sg47
F141.62085000000002
sbsbsVAUS0000368
p5519
g2
(g3
g4
Ntp5520
Rp5521
(dp5522
g8
g9
sg10
F3.69
sg11
VHalls Creek
p5523
sg13
Nsg14
g15
sg16
g17
sg18
g9
sg19
g5519
sg20
(lp5524
g2
(g22
g4
Ntp5525
Rp5526
(dp5527
g26
g9
sg27
Nsg28
Nsg29
Nsbasg26
g30
sg31
g32
((lp5528
g34
atp5529
Rp5530
sg37
VEnergy Developments Ltd
p5531
sg39
I2012
sg40
g2
(g41
g4
Ntp5532
Rp5533
(dp5534
g45
F-18.232751479999934
sg46
g9
sg47
F127.66189702200006
sbsbsVAUS0000369
p5535
g2
(g3
g4
Ntp5536
Rp5537
(dp5538
g8
g9
sg10
F1.3
sg11
VWarmun
p5539
sg13
Nsg14
g15
sg16
g17
sg18
g9
sg19
g5535
sg20
(lp5540
g2
(g22
g4
Ntp5541
Rp5542
(dp5543
g26
g9
sg27
Nsg28
Nsg29
Nsbasg26
g30
sg31
g32
((lp5544
g269
atp5545
Rp5546
sg37
VEnergy Developments Ltd
p5547
sg39
I2012
sg40
g2
(g41
g4
Ntp5548
Rp5549
(dp5550
g45
F-17.025883502999932
sg46
g9
sg47
F128.21131963900007
sbsbsVAUS0000414
p5551
g2
(g3
g4
Ntp5552
Rp5553
(dp5554
g8
g9
sg10
F1.04
sg11
VCamballin
p5555
sg13
Nsg14
g15
sg16
g17
sg18
g9
sg19
g5551
sg20
(lp5556
g2
(g22
g4
Ntp5557
Rp5558
(dp5559
g26
g9
sg27
Nsg28
Nsg29
Nsbasg26
g30
sg31
g32
((lp5560
g34
atp5561
Rp5562
sg37
VEnergy Developments Ltd
p5563
sg39
I2012
sg40
g2
(g41
g4
Ntp5564
Rp5565
(dp5566
g45
F-18.027757491999978
sg46
g9
sg47
F124.16208514900006
sbsbsVAUS0000415
p5567
g2
(g3
g4
Ntp5568
Rp5569
(dp5570
g8
g9
sg10
F16.5
sg11
VCawse Nickel Mine
p5571
sg13
Nsg14
g15
sg16
g17
sg18
g9
sg19
g5567
sg20
(lp5572
g2
(g22
g4
Ntp5573
Rp5574
(dp5575
g26
g9
sg27
Nsg28
Nsg29
Nsbasg26
g30
sg31
g32
((lp5576
g34
atp5577
Rp5578
sg37
g9
sg39
I2012
sg40
g2
(g41
g4
Ntp5579
Rp5580
(dp5581
g45
F-30.380805807999934
sg46
g9
sg47
F121.16348091600003
sbsbsVAUS0000412
p5582
g2
(g3
g4
Ntp5583
Rp5584
(dp5585
g8
g9
sg10
F1.3
sg11
VHopetoun Diesel Backup
p5586
sg13
Nsg14
g15
sg16
g17
sg18
g9
sg19
g5582
sg20
(lp5587
g2
(g22
g4
Ntp5588
Rp5589
(dp5590
g26
g9
sg27
Nsg28
Nsg29
Nsbasg26
g30
sg31
g32
((lp5591
g269
atp5592
Rp5593
sg37
VVerve Energy
p5594
sg39
I2012
sg40
g2
(g41
g4
Ntp5595
Rp5596
(dp5597
g45
F-33.90504892299998
sg46
g9
sg47
F120.12993402100005
sbsbsVAUS0000413
p5598
g2
(g3
g4
Ntp5599
Rp5600
(dp5601
g8
g9
sg10
F1.2
sg11
VHopetoun Wind Turbines
p5602
sg13
Nsg14
g15
sg16
g17
sg18
g9
sg19
g5598
sg20
(lp5603
g2
(g22
g4
Ntp5604
Rp5605
(dp5606
g26
g9
sg27
Nsg28
Nsg29
Nsbasg26
g30
sg31
g32
((lp5607
g236
atp5608
Rp5609
sg37
VVerve Energy
p5610
sg39
I2012
sg40
g2
(g41
g4
Ntp5611
Rp5612
(dp5613
g45
F-33.90776359299997
sg46
g9
sg47
F120.1296811840001
sbsbsVAUS0000410
p5614
g2
(g3
g4
Ntp5615
Rp5616
(dp5617
g8
g9
sg10
F0.3
sg11
VMenzies
p5618
sg13
Nsg14
g15
sg16
g17
sg18
g9
sg19
g5614
sg20
(lp5619
g2
(g22
g4
Ntp5620
Rp5621
(dp5622
g26
g9
sg27
Nsg28
Nsg29
Nsbasg26
g30
sg31
g32
((lp5623
g269
atp5624
Rp5625
sg37
g9
sg39
I2012
sg40
g2
(g41
g4
Ntp5626
Rp5627
(dp5628
g45
F-29.690601898999944
sg46
g9
sg47
F121.0251779460001
sbsbsVAUS0000411
p5629
g2
(g3
g4
Ntp5630
Rp5631
(dp5632
g8
g9
sg10
F3.6
sg11
VOnslow
p5633
sg13
Nsg14
g15
sg16
g17
sg18
g9
sg19
g5629
sg20
(lp5634
g2
(g22
g4
Ntp5635
Rp5636
(dp5637
g26
g9
sg27
Nsg28
Nsg29
Nsbasg26
g30
sg31
g32
((lp5638
g34
atp5639
Rp5640
sg37
g9
sg39
I2012
sg40
g2
(g41
g4
Ntp5641
Rp5642
(dp5643
g45
F-21.65822155199993
sg46
g9
sg47
F115.09902478800007
sbsbsVAUS0000360
p5644
g2
(g3
g4
Ntp5645
Rp5646
(dp5647
g8
g9
sg10
F0.8
sg11
VCue
p5648
sg13
Nsg14
g15
sg16
g17
sg18
g9
sg19
g5644
sg20
(lp5649
g2
(g22
g4
Ntp5650
Rp5651
(dp5652
g26
g9
sg27
Nsg28
Nsg29
Nsbasg26
g30
sg31
g32
((lp5653
g269
atp5654
Rp5655
sg37
VEnergy Developments
p5656
sg39
I2012
sg40
g2
(g41
g4
Ntp5657
Rp5658
(dp5659
g45
F-27.421247747999928
sg46
g9
sg47
F117.88948432200004
sbsbsVAUS0000361
p5660
g2
(g3
g4
Ntp5661
Rp5662
(dp5663
g8
g9
sg10
F0.4
sg11
VSandstone
p5664
sg13
Nsg14
g15
sg16
g17
sg18
g9
sg19
g5660
sg20
(lp5665
g2
(g22
g4
Ntp5666
Rp5667
(dp5668
g26
g9
sg27
Nsg28
Nsg29
Nsbasg26
g30
sg31
g32
((lp5669
g269
atp5670
Rp5671
sg37
VEnergy Developments
p5672
sg39
I2012
sg40
g2
(g41
g4
Ntp5673
Rp5674
(dp5675
g45
F-27.985269348999964
sg46
g9
sg47
F119.29495929900008
sbsbsVAUS0000362
p5676
g2
(g3
g4
Ntp5677
Rp5678
(dp5679
g8
g9
sg10
F0.2
sg11
VNullagine Solar Farm
p5680
sg13
Nsg14
g15
sg16
g17
sg18
g9
sg19
g5676
sg20
(lp5681
g2
(g22
g4
Ntp5682
Rp5683
(dp5684
g26
g9
sg27
Nsg28
Nsg29
Nsbasg26
g30
sg31
g32
((lp5685
g1279
atp5686
Rp5687
sg37
VHorizon Power
p5688
sg39
I2012
sg40
g2
(g41
g4
Ntp5689
Rp5690
(dp5691
g45
F-21.87950110099996
sg46
g9
sg47
F120.11172335900005
sbsbsVAUS0000363
p5692
g2
(g3
g4
Ntp5693
Rp5694
(dp5695
g8
g9
sg10
F0.96
sg11
VNullagine Diesel Backup
p5696
sg13
Nsg14
g15
sg16
g17
sg18
g9
sg19
g5692
sg20
(lp5697
g2
(g22
g4
Ntp5698
Rp5699
(dp5700
g26
g9
sg27
Nsg28
Nsg29
Nsbasg26
g30
sg31
g32
((lp5701
g269
atp5702
Rp5703
sg37
VHorizon Power
p5704
sg39
I2012
sg40
g2
(g41
g4
Ntp5705
Rp5706
(dp5707
g45
F-21.87944414599997
sg46
g9
sg47
F120.112862457
sbsbsVAUS0000364
p5708
g2
(g3
g4
Ntp5709
Rp5710
(dp5711
g8
g9
sg10
F0.3
sg11
VMarble Bar Solar Farm
p5712
sg13
Nsg14
g15
sg16
g17
sg18
g9
sg19
g5708
sg20
(lp5713
g2
(g22
g4
Ntp5714
Rp5715
(dp5716
g26
g9
sg27
Nsg28
Nsg29
Nsbasg26
g30
sg31
g32
((lp5717
g1279
atp5718
Rp5719
sg37
VHorizon Power
p5720
sg39
I2012
sg40
g2
(g41
g4
Ntp5721
Rp5722
(dp5723
g45
F-21.164344633999974
sg46
g9
sg47
F119.7412000060001
sbsbsVAUS0000365
p5724
g2
(g3
g4
Ntp5725
Rp5726
(dp5727
g8
g9
sg10
F1.28
sg11
VMarble Bar Diesel Backup
p5728
sg13
Nsg14
g15
sg16
g17
sg18
g9
sg19
g5724
sg20
(lp5729
g2
(g22
g4
Ntp5730
Rp5731
(dp5732
g26
g9
sg27
Nsg28
Nsg29
Nsbasg26
g30
sg31
g32
((lp5733
g269
atp5734
Rp5735
sg37
VHorizon Power
p5736
sg39
I2012
sg40
g2
(g41
g4
Ntp5737
Rp5738
(dp5739
g45
F-21.164922926999964
sg46
g9
sg47
F119.74185150000005
sbsbsVAUS0000366
p5740
g2
(g3
g4
Ntp5741
Rp5742
(dp5743
g8
g9
sg10
F12.53
sg11
VDerby
p5744
sg13
Nsg14
g15
sg16
g17
sg18
g9
sg19
g5740
sg20
(lp5745
g2
(g22
g4
Ntp5746
Rp5747
(dp5748
g26
g9
sg27
Nsg28
Nsg29
Nsbasg26
g30
sg31
g32
((lp5749
g34
atp5750
Rp5751
sg37
VEnergy Developments Ltd
p5752
sg39
I2012
sg40
g2
(g41
g4
Ntp5753
Rp5754
(dp5755
g45
F-17.31414106999995
sg46
g9
sg47
F123.64414998000007
sbsbsVAUS0000367
p5756
g2
(g3
g4
Ntp5757
Rp5758
(dp5759
g8
g9
sg10
F4.06
sg11
VFitzroy Crossing
p5760
sg13
Nsg14
g15
sg16
g17
sg18
g9
sg19
g5756
sg20
(lp5761
g2
(g22
g4
Ntp5762
Rp5763
(dp5764
g26
g9
sg27
Nsg28
Nsg29
Nsbasg26
g30
sg31
g32
((lp5765
g34
atp5766
Rp5767
sg37
VEnergy Developments Ltd
p5768
sg39
I2012
sg40
g2
(g41
g4
Ntp5769
Rp5770
(dp5771
g45
F-18.195575047999967
sg46
g9
sg47
F125.55971118500008
sbsbsVAUS0000203
p5772
g2
(g3
g4
Ntp5773
Rp5774
(dp5775
g8
g9
sg10
F98.0
sg11
VWagerup Bauxite Mine and Alumina Refinery
p5776
sg13
Nsg14
g15
sg16
g17
sg18
g9
sg19
g5772
sg20
(lp5777
g2
(g22
g4
Ntp5778
Rp5779
(dp5780
g26
g9
sg27
Nsg28
Nsg29
Nsbasg26
g30
sg31
g32
((lp5781
g34
atp5782
Rp5783
sg37
VAlcoa of Australia Ltd
p5784
sg39
I2012
sg40
g2
(g41
g4
Ntp5785
Rp5786
(dp5787
g45
F-32.91449499999993
sg46
g9
sg47
F115.91699500000004
sbsbsVAUS0000202
p5788
g2
(g3
g4
Ntp5789
Rp5790
(dp5791
g8
g9
sg10
F56.0
sg11
VRavensthorpe
p5792
sg13
Nsg14
g15
sg16
g17
sg18
g9
sg19
g5788
sg20
(lp5793
g2
(g22
g4
Ntp5794
Rp5795
(dp5796
g26
g9
sg27
Nsg28
Nsg29
Nsbasg26
g30
sg31
g32
((lp5797
g269
atp5798
Rp5799
sg37
VFirst Quantum Minerals
p5800
sg39
I2012
sg40
g2
(g41
g4
Ntp5801
Rp5802
(dp5803
g45
F-33.60999999999996
sg46
g9
sg47
F120.36000000000001
sbsbsVAUS0000168
p5804
g2
(g3
g4
Ntp5805
Rp5806
(dp5807
g8
g9
sg10
F1460.0
sg11
VStanwell
p5808
sg13
Nsg14
g15
sg16
g17
sg18
g9
sg19
g5804
sg20
(lp5809
g2
(g22
g4
Ntp5810
Rp5811
(dp5812
g26
g9
sg27
Nsg28
Nsg29
Nsbasg26
g30
sg31
g32
((lp5813
g91
atp5814
Rp5815
sg37
VStanwell Corporation Ltd
p5816
sg39
I2012
sg40
g2
(g41
g4
Ntp5817
Rp5818
(dp5819
g45
F-23.50971999999996
sg46
g9
sg47
F150.31946600000003
sbsbsVAUS0000169
p5820
g2
(g3
g4
Ntp5821
Rp5822
(dp5823
g8
g9
sg10
F15.0
sg11
VTarong
p5824
sg13
Nsg14
g15
sg16
g17
sg18
g9
sg19
g5820
sg20
(lp5825
g2
(g22
g4
Ntp5826
Rp5827
(dp5828
g26
g9
sg27
Nsg28
Nsg29
Nsbasg26
g30
sg31
g32
((lp5829
g269
atp5830
Rp5831
sg37
VTarong Energy Corporation
p5832
sg39
I2012
sg40
g2
(g41
g4
Ntp5833
Rp5834
(dp5835
g45
F-26.785766999999964
sg46
g9
sg47
F151.91716400000007
sbsbsVAUS0000207
p5836
g2
(g3
g4
Ntp5837
Rp5838
(dp5839
g8
g9
sg10
F1.9
sg11
VMount Magnet
p5840
sg13
Nsg14
g15
sg16
g17
sg18
g9
sg19
g5836
sg20
(lp5841
g2
(g22
g4
Ntp5842
Rp5843
(dp5844
g26
g9
sg27
Nsg28
Nsg29
Nsbasg26
g30
sg31
g32
((lp5845
g34
atp5846
Rp5847
sg37
g9
sg39
I2012
sg40
g2
(g41
g4
Ntp5848
Rp5849
(dp5850
g45
F-28.087084337999954
sg46
g9
sg47
F117.83271097700003
sbsbsVAUS0000206
p5851
g2
(g3
g4
Ntp5852
Rp5853
(dp5854
g8
g9
sg10
F126.0
sg11
VPort Hedland
p5855
sg13
Nsg14
g15
sg16
g17
sg18
g9
sg19
g5851
sg20
(lp5856
g2
(g22
g4
Ntp5857
Rp5858
(dp5859
g26
g9
sg27
Nsg28
Nsg29
Nsbasg26
g30
sg31
g32
((lp5860
g34
atp5861
Rp5862
sg37
VAlinta Energy
p5863
sg39
I2012
sg40
g2
(g41
g4
Ntp5864
Rp5865
(dp5866
g45
F-20.42829999999998
sg46
g9
sg47
F118.54980000000012
sbsbsVAUS0000205
p5867
g2
(g3
g4
Ntp5868
Rp5869
(dp5870
g8
g9
sg10
F60.0
sg11
VWest Kalgoorlie
p5871
sg13
Nsg14
g15
sg16
g17
sg18
g9
sg19
g5867
sg20
(lp5872
g2
(g22
g4
Ntp5873
Rp5874
(dp5875
g26
g9
sg27
Nsg28
Nsg29
Nsbasg26
g30
sg31
g32
((lp5876
g269
atp5877
Rp5878
sg37
VVerve Energy
p5879
sg39
I2012
sg40
g2
(g41
g4
Ntp5880
Rp5881
(dp5882
g45
F-30.78063499999996
sg46
g9
sg47
F121.42335500000002
sbsbsVAUS0000204
p5883
g2
(g3
g4
Ntp5884
Rp5885
(dp5886
g8
g9
sg10
F380.0
sg11
VWagerup
p5887
sg13
Nsg14
g15
sg16
g17
sg18
g9
sg19
g5883
sg20
(lp5888
g2
(g22
g4
Ntp5889
Rp5890
(dp5891
g26
g9
sg27
Nsg28
Nsg29
Nsbasg26
g30
sg31
g32
((lp5892
g34
atp5893
Rp5894
sg37
VAlinta Energy
p5895
sg39
I2012
sg40
g2
(g41
g4
Ntp5896
Rp5897
(dp5898
g45
F-32.916016999999954
sg46
g9
sg47
F115.91864700000008
sbsbsVAUS0000162
p5899
g2
(g3
g4
Ntp5900
Rp5901
(dp5902
g8
g9
sg10
F744.0
sg11
VKogan Creek
p5903
sg13
Nsg14
g15
sg16
g17
sg18
g9
sg19
g5899
sg20
(lp5904
g2
(g22
g4
Ntp5905
Rp5906
(dp5907
g26
g9
sg27
Nsg28
Nsg29
Nsbasg26
g30
sg31
g32
((lp5908
g91
atp5909
Rp5910
sg37
VCS Energy
p5911
sg39
I2013
sg40
g2
(g41
g4
Ntp5912
Rp5913
(dp5914
g45
F-26.917683332999957
sg46
g9
sg47
F150.7492833330001
sbsbsVAUS0000163
p5915
g2
(g3
g4
Ntp5916
Rp5917
(dp5918
g8
g9
sg10
F856.0
sg11
VMillmerran
p5919
sg13
Nsg14
g15
sg16
g17
sg18
g9
sg19
g5915
sg20
(lp5920
g2
(g22
g4
Ntp5921
Rp5922
(dp5923
g26
g9
sg27
Nsg28
Nsg29
Nsbasg26
g30
sg31
g32
((lp5924
g91
atp5925
Rp5926
sg37
VIntergen
p5927
sg39
I2012
sg40
g2
(g41
g4
Ntp5928
Rp5929
(dp5930
g45
F-27.96154199999995
sg46
g9
sg47
F151.278949
sbsbsVAUS0000160
p5931
g2
(g3
g4
Ntp5932
Rp5933
(dp5934
g8
g9
sg10
F9.0
sg11
VKalamia Sugar Mill
p5935
sg13
Nsg14
g15
sg16
g17
sg18
g9
sg19
g5931
sg20
(lp5936
g2
(g22
g4
Ntp5937
Rp5938
(dp5939
g26
g9
sg27
Nsg28
Nsg29
Nsbasg26
g30
sg31
g32
((lp5940
g398
atp5941
Rp5942
sg37
VSucrogen (Kalamia) Pty ltd
p5943
sg39
I2012
sg40
g2
(g41
g4
Ntp5944
Rp5945
(dp5946
g45
F-19.52233899999993
sg46
g9
sg47
F147.41523700000005
sbsbsVAUS0000161
p5947
g2
(g3
g4
Ntp5948
Rp5949
(dp5950
g8
g9
sg10
F88.0
sg11
VKareeya
p5951
sg13
Nsg14
g15
sg16
g17
sg18
g9
sg19
g5947
sg20
(lp5952
g2
(g22
g4
Ntp5953
Rp5954
(dp5955
g26
g9
sg27
Nsg28
Nsg29
Nsbasg26
g30
sg31
g32
((lp5956
g74
atp5957
Rp5958
sg37
VStanwell Corporation Ltd
p5959
sg39
I2012
sg40
g2
(g41
g4
Ntp5960
Rp5961
(dp5962
g45
F-17.767001999999934
sg46
g9
sg47
F145.5778650000001
sbsbsVAUS0000166
p5963
g2
(g3
g4
Ntp5964
Rp5965
(dp5966
g8
g9
sg10
F282.0
sg11
VOakey
p5967
sg13
Nsg14
g15
sg16
g17
sg18
g9
sg19
g5963
sg20
(lp5968
g2
(g22
g4
Ntp5969
Rp5970
(dp5971
g26
g9
sg27
Nsg28
Nsg29
Nsbasg26
g30
sg31
g32
((lp5972
g34
atp5973
Rp5974
sg37
VOakey Power Pty Ltd
p5975
sg39
I2012
sg40
g2
(g41
g4
Ntp5976
Rp5977
(dp5978
g45
F-27.418361999999945
sg46
g9
sg47
F151.67976700000008
sbsbsVAUS0000167
p5979
g2
(g3
g4
Ntp5980
Rp5981
(dp5982
g8
g9
sg10
F20.0
sg11
VOaky Creek
p5983
sg13
Nsg14
g15
sg16
g17
sg18
g9
sg19
g5979
sg20
(lp5984
g2
(g22
g4
Ntp5985
Rp5986
(dp5987
g26
g9
sg27
Nsg28
Nsg29
Nsbasg26
g30
sg31
g32
((lp5988
g34
atp5989
Rp5990
sg37
VEnvironGen (Oaky) Pty Ltd
p5991
sg39
I2012
sg40
g2
(g41
g4
Ntp5992
Rp5993
(dp5994
g45
F-22.98777599999994
sg46
g9
sg47
F148.58170200000006
sbsbsVAUS0000164
p5995
g2
(g3
g4
Ntp5996
Rp5997
(dp5998
g8
g9
sg10
F12.0
sg11
VMoranbah
p5999
sg13
Nsg14
g15
sg16
g17
sg18
g9
sg19
g5995
sg20
(lp6000
g2
(g22
g4
Ntp6001
Rp6002
(dp6003
g26
g9
sg27
Nsg28
Nsg29
Nsbasg26
g30
sg31
g32
((lp6004
g34
atp6005
Rp6006
sg37
VEnergy Developments Ltd
p6007
sg39
I2012
sg40
g2
(g41
g4
Ntp6008
Rp6009
(dp6010
g45
F-21.98513020799993
sg46
g9
sg47
F148.02464716200006
sbsbsVAUS0000165
p6011
g2
(g3
g4
Ntp6012
Rp6013
(dp6014
g8
g9
sg10
F424.0
sg11
VMount Stuart
p6015
sg13
Nsg14
g15
sg16
g17
sg18
g9
sg19
g6011
sg20
(lp6016
g2
(g22
g4
Ntp6017
Rp6018
(dp6019
g26
g9
sg27
Nsg28
Nsg29
Nsbasg26
g30
sg31
g32
((lp6020
g269
atp6021
Rp6022
sg37
VOrigin Energy
p6023
sg39
I2012
sg40
g2
(g41
g4
Ntp6024
Rp6025
(dp6026
g45
F-19.33799799999997
sg46
g9
sg47
F146.85117100000002
sbsbsVAUS0000067
p6027
g2
(g3
g4
Ntp6028
Rp6029
(dp6030
g8
g9
sg10
F4.4
sg11
VWollert
p6031
sg13
Nsg14
g15
sg16
g17
sg18
g9
sg19
g6027
sg20
(lp6032
g2
(g22
g4
Ntp6033
Rp6034
(dp6035
g26
g9
sg27
Nsg28
Nsg29
Nsbasg26
g30
sg31
g32
((lp6036
g318
atp6037
Rp6038
sg37
VLMS Energy Generation Pty Ltd
p6039
sg39
I2012
sg40
g2
(g41
g4
Ntp6040
Rp6041
(dp6042
g45
F-37.582956999999965
sg46
g9
sg47
F145.04870400000004
sbsbsVAUS0000066
p6043
g2
(g3
g4
Ntp6044
Rp6045
(dp6046
g8
g9
sg10
F1.1
sg11
VWyndham
p6047
sg13
Nsg14
g15
sg16
g17
sg18
g9
sg19
g6043
sg20
(lp6048
g2
(g22
g4
Ntp6049
Rp6050
(dp6051
g26
g9
sg27
Nsg28
Nsg29
Nsbasg26
g30
sg31
g32
((lp6052
g318
atp6053
Rp6054
sg37
VLMS Energy
p6055
sg39
I2012
sg40
g2
(g41
g4
Ntp6056
Rp6057
(dp6058
g45
F-37.93748799999997
sg46
g9
sg47
F144.59017900000003
sbsbsVAUS0000065
p6059
g2
(g3
g4
Ntp6060
Rp6061
(dp6062
g8
g9
sg10
F21.6
sg11
VAlbany Wind Farm
p6063
sg13
Nsg14
g15
sg16
g17
sg18
g9
sg19
g6059
sg20
(lp6064
g2
(g22
g4
Ntp6065
Rp6066
(dp6067
g26
g9
sg27
Nsg28
Nsg29
Nsbasg26
g30
sg31
g32
((lp6068
g236
atp6069
Rp6070
sg37
VVerve Energy
p6071
sg39
I2012
sg40
g2
(g41
g4
Ntp6072
Rp6073
(dp6074
g45
F-35.064146999999934
sg46
g9
sg47
F117.79769500000009
sbsbsVAUS0000064
p6075
g2
(g3
g4
Ntp6076
Rp6077
(dp6078
g8
g9
sg10
F46.0
sg11
VCanunda Wind Farm
p6079
sg13
Nsg14
g15
sg16
g17
sg18
g9
sg19
g6075
sg20
(lp6080
g2
(g22
g4
Ntp6081
Rp6082
(dp6083
g26
g9
sg27
Nsg28
Nsg29
Nsbasg26
g30
sg31
g32
((lp6084
g236
atp6085
Rp6086
sg37
VInternational Power - GDF Suez Australia
p6087
sg39
I2012
sg40
g2
(g41
g4
Ntp6088
Rp6089
(dp6090
g45
F-37.76025335999998
sg46
g9
sg47
F140.40331128800005
sbsbsVAUS0000063
p6091
g2
(g3
g4
Ntp6092
Rp6093
(dp6094
g8
g9
sg10
F66.0
sg11
VCathedral Rocks Wind Farm
p6095
sg13
Nsg14
g15
sg16
g17
sg18
g9
sg19
g6091
sg20
(lp6096
g2
(g22
g4
Ntp6097
Rp6098
(dp6099
g26
g9
sg27
Nsg28
Nsg29
Nsbasg26
g30
sg31
g32
((lp6100
g236
atp6101
Rp6102
sg37
VTRUenergy & Acciona Energy
p6103
sg39
I2012
sg40
g2
(g41
g4
Ntp6104
Rp6105
(dp6106
g45
F-34.85086099999995
sg46
g9
sg47
F135.58517200000006
sbsbsVAUS0000062
p6107
g2
(g3
g4
Ntp6108
Rp6109
(dp6110
g8
g9
sg10
F159.0
sg11
VLake Bonney Wind Farm
p6111
sg13
Nsg14
g15
sg16
g17
sg18
g9
sg19
g6107
sg20
(lp6112
g2
(g22
g4
Ntp6113
Rp6114
(dp6115
g26
g9
sg27
Nsg28
Nsg29
Nsbasg26
g30
sg31
g32
((lp6116
g236
atp6117
Rp6118
sg37
VInfigen Energy Pty Ltd
p6119
sg39
I2012
sg40
g2
(g41
g4
Ntp6120
Rp6121
(dp6122
g45
F-37.77134988199998
sg46
g9
sg47
F140.39808392700002
sbsbsVAUS0000061
p6123
g2
(g3
g4
Ntp6124
Rp6125
(dp6126
g8
g9
sg10
F70.0
sg11
VMount Millar Wind Farm
p6127
sg13
Nsg14
g15
sg16
g17
sg18
g9
sg19
g6123
sg20
(lp6128
g2
(g22
g4
Ntp6129
Rp6130
(dp6131
g26
g9
sg27
Nsg28
Nsg29
Nsbasg26
g30
sg31
g32
((lp6132
g236
atp6133
Rp6134
sg37
VMeridian Energy Australia
p6135
sg39
I2012
sg40
g2
(g41
g4
Ntp6136
Rp6137
(dp6138
g45
F-33.62672799999996
sg46
g9
sg47
F136.704562
sbsbsVAUS0000060
p6139
g2
(g3
g4
Ntp6140
Rp6141
(dp6142
g8
g9
sg10
F30.0
sg11
VRocky Point Sugar Sugar Mill
p6143
sg13
Nsg14
g15
sg16
g17
sg18
g9
sg19
g6139
sg20
(lp6144
g2
(g22
g4
Ntp6145
Rp6146
(dp6147
g26
g9
sg27
Nsg28
Nsg29
Nsbasg26
g30
sg31
g32
((lp6148
g398
atp6149
Rp6150
sg37
VStanwell Corporation Ltd
p6151
sg39
I2012
sg40
g2
(g41
g4
Ntp6152
Rp6153
(dp6154
g45
F-27.73344899999995
sg46
g9
sg47
F153.32760700000006
sbsbsVAUS0000069
p6155
g2
(g3
g4
Ntp6156
Rp6157
(dp6158
g8
g9
sg10
F21.0
sg11
VToora Wind Farm
p6159
sg13
Nsg14
g15
sg16
g17
sg18
g9
sg19
g6155
sg20
(lp6160
g2
(g22
g4
Ntp6161
Rp6162
(dp6163
g26
g9
sg27
Nsg28
Nsg29
Nsbasg26
g30
sg31
g32
((lp6164
g236
atp6165
Rp6166
sg37
VRATCH-Australia
p6167
sg39
I2012
sg40
g2
(g41
g4
Ntp6168
Rp6169
(dp6170
g45
F-38.645059999999944
sg46
g9
sg47
F146.34413200000006
sbsbsVAUS0000068
p6171
g2
(g3
g4
Ntp6172
Rp6173
(dp6174
g8
g9
sg10
F1.1
sg11
VWhitwood Road
p6175
sg13
Nsg14
g15
sg16
g17
sg18
g9
sg19
g6171
sg20
(lp6176
g2
(g22
g4
Ntp6177
Rp6178
(dp6179
g26
g9
sg27
Nsg28
Nsg29
Nsbasg26
g30
sg31
g32
((lp6180
g318
atp6181
Rp6182
sg37
VLMS Energy Generation Pty Ltd
p6183
sg39
I2012
sg40
g2
(g41
g4
Ntp6184
Rp6185
(dp6186
g45
F-27.659013999999956
sg46
g9
sg47
F152.82374300000004
sbsbsVAUS0000028
p6187
g2
(g3
g4
Ntp6188
Rp6189
(dp6190
g8
g9
sg10
F48.3
sg11
VWoodlawn Wind Farm
p6191
sg13
Nsg14
g15
sg16
g17
sg18
g9
sg19
g6187
sg20
(lp6192
g2
(g22
g4
Ntp6193
Rp6194
(dp6195
g26
g9
sg27
Nsg28
Nsg29
Nsbasg26
g30
sg31
g32
((lp6196
g236
atp6197
Rp6198
sg37
VInfigen Energy Pty Ltd
p6199
sg39
I2012
sg40
g2
(g41
g4
Ntp6200
Rp6201
(dp6202
g45
F-35.086059700999954
sg46
g9
sg47
F149.57160577900004
sbsbsVAUS0000012
p6203
g2
(g3
g4
Ntp6204
Rp6205
(dp6206
g8
g9
sg10
F5.7
sg11
VPindari
p6207
sg13
Nsg14
g15
sg16
g17
sg18
g9
sg19
g6203
sg20
(lp6208
g2
(g22
g4
Ntp6209
Rp6210
(dp6211
g26
g9
sg27
Nsg28
Nsg29
Nsbasg26
g30
sg31
g32
((lp6212
g74
atp6213
Rp6214
sg37
VAGL Energy Pty Ltd
p6215
sg39
I2012
sg40
g2
(g41
g4
Ntp6216
Rp6217
(dp6218
g45
F-29.38862599999993
sg46
g9
sg47
F151.2442020000001
sbsbsVAUS0000013
p6219
g2
(g3
g4
Ntp6220
Rp6221
(dp6222
g8
g9
sg10
F2.2
sg11
VNieterana
p6223
sg13
Nsg14
g15
sg16
g17
sg18
g9
sg19
g6219
sg20
(lp6224
g2
(g22
g4
Ntp6225
Rp6226
(dp6227
g26
g9
sg27
Nsg28
Nsg29
Nsbasg26
g30
sg31
g32
((lp6228
g74
atp6229
Rp6230
sg37
VHydro-Electric Corporation (Tasmania)
p6231
sg39
I2012
sg40
g2
(g41
g4
Ntp6232
Rp6233
(dp6234
g45
F-42.26858699999997
sg46
g9
sg47
F146.2628830000001
sbsbsVAUS0000010
p6235
g2
(g3
g4
Ntp6236
Rp6237
(dp6238
g8
g9
sg10
F75.0
sg11
VStudland Bay (Woolnorth) Wind Farm
p6239
sg13
Nsg14
g15
sg16
g17
sg18
g9
sg19
g6235
sg20
(lp6240
g2
(g22
g4
Ntp6241
Rp6242
(dp6243
g26
g9
sg27
Nsg28
Nsg29
Nsbasg26
g30
sg31
g32
((lp6244
g236
atp6245
Rp6246
sg37
VHydro-Electric Corporation (Tasmania)
p6247
sg39
I2012
sg40
g2
(g41
g4
Ntp6248
Rp6249
(dp6250
g45
F-40.778753999999935
sg46
g9
sg47
F144.73620400000004
sbsbsVAUS0000011
p6251
g2
(g3
g4
Ntp6252
Rp6253
(dp6254
g8
g9
sg10
F2.5
sg11
VThe Drop
p6255
sg13
Nsg14
g15
sg16
g17
sg18
g9
sg19
g6251
sg20
(lp6256
g2
(g22
g4
Ntp6257
Rp6258
(dp6259
g26
g9
sg27
Nsg28
Nsg29
Nsbasg26
g30
sg31
g32
((lp6260
g74
atp6261
Rp6262
sg37
VPacific Hydro Investments Pty Ltd
p6263
sg39
I2012
sg40
g2
(g41
g4
Ntp6264
Rp6265
(dp6266
g45
F-35.60434699999996
sg46
g9
sg47
F145.78372500000012
sbsbsVAUS0000016
p6267
g2
(g3
g4
Ntp6268
Rp6269
(dp6270
g8
g9
sg10
F67.2
sg11
VOakland Hills Wind Farm
p6271
sg13
Nsg14
g15
sg16
g17
sg18
g9
sg19
g6267
sg20
(lp6272
g2
(g22
g4
Ntp6273
Rp6274
(dp6275
g26
g9
sg27
Nsg28
Nsg29
Nsbasg26
g30
sg31
g32
((lp6276
g236
atp6277
Rp6278
sg37
VAGL Energy Pty Ltd
p6279
sg39
I2012
sg40
g2
(g41
g4
Ntp6280
Rp6281
(dp6282
g45
F-37.66380099999998
sg46
g9
sg47
F142.5480560000001
sbsbsVAUS0000017
p6283
g2
(g3
g4
Ntp6284
Rp6285
(dp6286
g8
g9
sg10
F1.1
sg11
VShepparton Biogas Generation Plant
p6287
sg13
Nsg14
g15
sg16
g17
sg18
g9
sg19
g6283
sg20
(lp6288
g2
(g22
g4
Ntp6289
Rp6290
(dp6291
g26
g9
sg27
Nsg28
Nsg29
Nsbasg26
g30
sg31
g32
((lp6292
g318
atp6293
Rp6294
sg37
VDiamond Energy Pty Ltd
p6295
sg39
I2012
sg40
g2
(g41
g4
Ntp6296
Rp6297
(dp6298
g45
F-36.321774999999946
sg46
g9
sg47
F145.37898300000006
sbsbsVAUS0000014
p6299
g2
(g3
g4
Ntp6300
Rp6301
(dp6302
g8
g9
sg10
F12.5
sg11
VBanimboola
p6303
sg13
Nsg14
g15
sg16
g17
sg18
g9
sg19
g6299
sg20
(lp6304
g2
(g22
g4
Ntp6305
Rp6306
(dp6307
g26
g9
sg27
Nsg28
Nsg29
Nsbasg26
g30
sg31
g32
((lp6308
g74
atp6309
Rp6310
sg37
VAGL Energy Pty Ltd
p6311
sg39
I2012
sg40
g2
(g41
g4
Ntp6312
Rp6313
(dp6314
g45
F-36.534208999999976
sg46
g9
sg47
F147.45942600000012
sbsbsVAUS0000015
p6315
g2
(g3
g4
Ntp6316
Rp6317
(dp6318
g8
g9
sg10
F18.2
sg11
VCodrington Wind Farm
p6319
sg13
Nsg14
g15
sg16
g17
sg18
g9
sg19
g6315
sg20
(lp6320
g2
(g22
g4
Ntp6321
Rp6322
(dp6323
g26
g9
sg27
Nsg28
Nsg29
Nsbasg26
g30
sg31
g32
((lp6324
g236
atp6325
Rp6326
sg37
VEnergy Pacific (Victoria) Pty Ltd
p6327
sg39
I2012
sg40
g2
(g41
g4
Ntp6328
Rp6329
(dp6330
g45
F-38.28351622699995
sg46
g9
sg47
F141.9547286720001
sbsbsVAUS0000018
p6331
g2
(g3
g4
Ntp6332
Rp6333
(dp6334
g8
g9
sg10
F1.1
sg11
VTatura Biogas Generation Plant
p6335
sg13
Nsg14
g15
sg16
g17
sg18
g9
sg19
g6331
sg20
(lp6336
g2
(g22
g4
Ntp6337
Rp6338
(dp6339
g26
g9
sg27
Nsg28
Nsg29
Nsbasg26
g30
sg31
g32
((lp6340
g318
atp6341
Rp6342
sg37
VDiamond Energy Pty Ltd
p6343
sg39
I2012
sg40
g2
(g41
g4
Ntp6344
Rp6345
(dp6346
g45
F-36.47926099999995
sg46
g9
sg47
F145.23502600000006
sbsbsVAUS0000019
p6347
g2
(g3
g4
Ntp6348
Rp6349
(dp6350
g8
g9
sg10
F192.0
sg11
VWaubra Wind Farm
p6351
sg13
Nsg14
g15
sg16
g17
sg18
g9
sg19
g6347
sg20
(lp6352
g2
(g22
g4
Ntp6353
Rp6354
(dp6355
g26
g9
sg27
Nsg28
Nsg29
Nsbasg26
g30
sg31
g32
((lp6356
g236
atp6357
Rp6358
sg37
VAcciona Energy Australia
p6359
sg39
I2012
sg40
g2
(g41
g4
Ntp6360
Rp6361
(dp6362
g45
F-37.355981499999984
sg46
g9
sg47
F143.6059150000001
sbsbsVAUS0000158
p6363
g2
(g3
g4
Ntp6364
Rp6365
(dp6366
g8
g9
sg10
F1680.0
sg11
VGladstone
p6367
sg13
Nsg14
g15
sg16
g17
sg18
g9
sg19
g6363
sg20
(lp6368
g2
(g22
g4
Ntp6369
Rp6370
(dp6371
g26
g9
sg27
Nsg28
Nsg29
Nsbasg26
g30
sg31
g32
((lp6372
g91
atp6373
Rp6374
sg37
VGPS Joint Venture
p6375
sg39
I2012
sg40
g2
(g41
g4
Ntp6376
Rp6377
(dp6378
g45
F-23.85075299999994
sg46
g9
sg47
F151.21865300000002
sbsbsVAUS0000058
p6379
g2
(g3
g4
Ntp6380
Rp6381
(dp6382
g8
g9
sg10
F2.5
sg11
VTerminal Storage
p6383
sg13
Nsg14
g15
sg16
g17
sg18
g9
sg19
g6379
sg20
(lp6384
g2
(g22
g4
Ntp6385
Rp6386
(dp6387
g26
g9
sg27
Nsg28
Nsg29
Nsbasg26
g30
sg31
g32
((lp6388
g74
atp6389
Rp6390
sg37
VHydro-Electric Corp Tasmania/SA Water
p6391
sg39
I2012
sg40
g2
(g41
g4
Ntp6392
Rp6393
(dp6394
g45
F-34.83932299999998
sg46
g9
sg47
F138.711226
sbsbsVAUS0000059
p6395
g2
(g3
g4
Ntp6396
Rp6397
(dp6398
g8
g9
sg10
F1.5
sg11
VSuncoast Gold Macadamia
p6399
sg13
Nsg14
g15
sg16
g17
sg18
g9
sg19
g6395
sg20
(lp6400
g2
(g22
g4
Ntp6401
Rp6402
(dp6403
g26
g9
sg27
Nsg28
Nsg29
Nsbasg26
g30
sg31
g32
((lp6404
g398
atp6405
Rp6406
sg37
VAGL Energy Pty Ltd
p6407
sg39
I2012
sg40
g2
(g41
g4
Ntp6408
Rp6409
(dp6410
g45
F-26.226124999999968
sg46
g9
sg47
F152.69810200000006
sbsbsVAUS0000457
p6411
g2
(g3
g4
Ntp6412
Rp6413
(dp6414
g8
g9
sg10
F450.0
sg11
VCape Preston
p6415
sg13
Nsg14
g15
sg16
g17
sg18
g9
sg19
g6411
sg20
(lp6416
g2
(g22
g4
Ntp6417
Rp6418
(dp6419
g26
g9
sg27
Nsg28
Nsg29
Nsbasg26
g30
sg31
g32
((lp6420
g34
atp6421
Rp6422
sg37
VCitic Pacific Mining
p6423
sg39
Nsg40
g2
(g41
g4
Ntp6424
Rp6425
(dp6426
g45
F-21.076706137999963
sg46
g9
sg47
F116.15901566800005
sbsbsVAUS0000455
p6427
g2
(g3
g4
Ntp6428
Rp6429
(dp6430
g8
g9
sg10
F71.4
sg11
VHallett 2 Hallet Hill  Wind Farm
p6431
sg13
Nsg14
g15
sg16
g17
sg18
g9
sg19
g6427
sg20
(lp6432
g2
(g22
g4
Ntp6433
Rp6434
(dp6435
g26
g9
sg27
Nsg28
Nsg29
Nsbasg26
g30
sg31
g32
((lp6436
g236
atp6437
Rp6438
sg37
VANZ Energy Infrastructure Trust
p6439
sg39
I2012
sg40
g2
(g41
g4
Ntp6440
Rp6441
(dp6442
g45
F-33.57166811999997
sg46
g9
sg47
F138.85795056000006
sbsbsVAUS0000249
p6443
g2
(g3
g4
Ntp6444
Rp6445
(dp6446
g8
g9
sg10
F90.0
sg11
VMintaro
p6447
sg13
Nsg14
g15
sg16
g17
sg18
g9
sg19
g6443
sg20
(lp6448
g2
(g22
g4
Ntp6449
Rp6450
(dp6451
g26
g9
sg27
Nsg28
Nsg29
Nsbasg26
g30
sg31
g32
((lp6452
g34
atp6453
Rp6454
sg37
VSynergen Power
p6455
sg39
I2012
sg40
g2
(g41
g4
Ntp6456
Rp6457
(dp6458
g45
F-33.90309999999994
sg46
g9
sg47
F138.7383000000001
sbsbsVAUS0000248
p6459
g2
(g3
g4
Ntp6460
Rp6461
(dp6462
g8
g9
sg10
F530.0
sg11
VNorthern
p6463
sg13
Nsg14
g15
sg16
g17
sg18
g9
sg19
g6459
sg20
(lp6464
g2
(g22
g4
Ntp6465
Rp6466
(dp6467
g26
g9
sg27
Nsg28
Nsg29
Nsbasg26
g30
sg31
g32
((lp6468
g91
atp6469
Rp6470
sg37
VAlinta Energy
p6471
sg39
I2012
sg40
g2
(g41
g4
Ntp6472
Rp6473
(dp6474
g45
F-32.54325399999993
sg46
g9
sg47
F137.78820400000006
sbsbsVAUS0000247
p6475
g2
(g3
g4
Ntp6476
Rp6477
(dp6478
g8
g9
sg10
F240.0
sg11
VPlayford
p6479
sg13
Nsg14
g15
sg16
g17
sg18
g9
sg19
g6475
sg20
(lp6480
g2
(g22
g4
Ntp6481
Rp6482
(dp6483
g26
g9
sg27
Nsg28
Nsg29
Nsbasg26
g30
sg31
g32
((lp6484
g91
atp6485
Rp6486
sg37
VAlinta Energy
p6487
sg39
I2012
sg40
g2
(g41
g4
Ntp6488
Rp6489
(dp6490
g45
F-32.539278999999965
sg46
g9
sg47
F137.78188000000011
sbsbsVAUS0000246
p6491
g2
(g3
g4
Ntp6492
Rp6493
(dp6494
g8
g9
sg10
Nsg11
VSnowtown
p6495
sg13
Nsg14
g15
sg16
g17
sg18
g9
sg19
g6491
sg20
(lp6496
g2
(g22
g4
Ntp6497
Rp6498
(dp6499
g26
g9
sg27
Nsg28
Nsg29
Nsbasg26
g30
sg31
g32
((lp6500
g34
atp6501
Rp6502
sg37
g9
sg39
I2012
sg40
g2
(g41
g4
Ntp6503
Rp6504
(dp6505
g45
F-33.71386699999994
sg46
g9
sg47
F138.14036700000008
sbsbsVAUS0000245
p6506
g2
(g3
g4
Ntp6507
Rp6508
(dp6509
g8
g9
sg10
F63.0
sg11
VSnuggery
p6510
sg13
Nsg14
g15
sg16
g17
sg18
g9
sg19
g6506
sg20
(lp6511
g2
(g22
g4
Ntp6512
Rp6513
(dp6514
g26
g9
sg27
Nsg28
Nsg29
Nsbasg26
g30
sg31
g32
((lp6515
g34
atp6516
Rp6517
sg37
VInternational Power - GDF Suez Australia
p6518
sg39
I2012
sg40
g2
(g41
g4
Ntp6519
Rp6520
(dp6521
g45
F-37.66455099999996
sg46
g9
sg47
F140.41555800000003
sbsbsVAUS0000244
p6522
g2
(g3
g4
Ntp6523
Rp6524
(dp6525
g8
g9
sg10
F80.0
sg11
VLadbroke Grove
p6526
sg13
Nsg14
g15
sg16
g17
sg18
g9
sg19
g6522
sg20
(lp6527
g2
(g22
g4
Ntp6528
Rp6529
(dp6530
g26
g9
sg27
Nsg28
Nsg29
Nsbasg26
g30
sg31
g32
((lp6531
g34
atp6532
Rp6533
sg37
VOrigin Energy
p6534
sg39
I2012
sg40
g2
(g41
g4
Ntp6535
Rp6536
(dp6537
g45
F-37.45667299999997
sg46
g9
sg47
F140.7826920000001
sbsbsVAUS0000243
p6538
g2
(g3
g4
Ntp6539
Rp6540
(dp6541
g8
g9
sg10
F4.1
sg11
VWingfield II
p6542
sg13
Nsg14
g15
sg16
g17
sg18
g9
sg19
g6538
sg20
(lp6543
g2
(g22
g4
Ntp6544
Rp6545
(dp6546
g26
g9
sg27
Nsg28
Nsg29
Nsbasg26
g30
sg31
g32
((lp6547
g318
atp6548
Rp6549
sg37
VEnergy Developments LFG (SA) Pty Ltd
p6550
sg39
I2012
sg40
g2
(g41
g4
Ntp6551
Rp6552
(dp6553
g45
F-34.83208099999996
sg46
g9
sg47
F138.5489030000001
sbsbsVAUS0000242
p6554
g2
(g3
g4
Ntp6555
Rp6556
(dp6557
g8
g9
sg10
F4.1
sg11
VWingfield I
p6558
sg13
Nsg14
g15
sg16
g17
sg18
g9
sg19
g6554
sg20
(lp6559
g2
(g22
g4
Ntp6560
Rp6561
(dp6562
g26
g9
sg27
Nsg28
Nsg29
Nsbasg26
g30
sg31
g32
((lp6563
g318
atp6564
Rp6565
sg37
VEnergy Developments LFG (SA) Pty Ltd
p6566
sg39
I2012
sg40
g2
(g41
g4
Ntp6567
Rp6568
(dp6569
g45
F-34.83481999999998
sg46
g9
sg47
F138.55724700000007
sbsbsVAUS0000241
p6570
g2
(g3
g4
Ntp6571
Rp6572
(dp6573
g8
g9
sg10
F800.0
sg11
VTorrens Island B
p6574
sg13
Nsg14
g15
sg16
g17
sg18
g9
sg19
g6570
sg20
(lp6575
g2
(g22
g4
Ntp6576
Rp6577
(dp6578
g26
g9
sg27
Nsg28
Nsg29
Nsbasg26
g30
sg31
g32
((lp6579
g34
atp6580
Rp6581
sg37
VAGL Energy Pty Ltd
p6582
sg39
I2012
sg40
g2
(g41
g4
Ntp6583
Rp6584
(dp6585
g45
F-34.80517099999997
sg46
g9
sg47
F138.52262000000007
sbsbsVAUS0000240
p6586
g2
(g3
g4
Ntp6587
Rp6588
(dp6589
g8
g9
sg10
F480.0
sg11
VTorrens Island A
p6590
sg13
Nsg14
g15
sg16
g17
sg18
g9
sg19
g6586
sg20
(lp6591
g2
(g22
g4
Ntp6592
Rp6593
(dp6594
g26
g9
sg27
Nsg28
Nsg29
Nsbasg26
g30
sg31
g32
((lp6595
g34
atp6596
Rp6597
sg37
VAGL Energy Pty Ltd
p6598
sg39
I2012
sg40
g2
(g41
g4
Ntp6599
Rp6600
(dp6601
g45
F-34.806843999999955
sg46
g9
sg47
F138.52132200000005
sbsbsVAUS0000126
p6602
g2
(g3
g4
Ntp6603
Rp6604
(dp6605
g8
g9
sg10
F48.0
sg11
VCatagunya
p6606
sg13
Nsg14
g15
sg16
g17
sg18
g9
sg19
g6602
sg20
(lp6607
g2
(g22
g4
Ntp6608
Rp6609
(dp6610
g26
g9
sg27
Nsg28
Nsg29
Nsbasg26
g30
sg31
g32
((lp6611
g74
atp6612
Rp6613
sg37
VHydro-Electric Corporation (Tasmania)
p6614
sg39
I2012
sg40
g2
(g41
g4
Ntp6615
Rp6616
(dp6617
g45
F-42.452380999999946
sg46
g9
sg47
F146.59768700000006
sbsbsVAUS0000088
p6618
g2
(g3
g4
Ntp6619
Rp6620
(dp6621
g8
g9
sg10
F212.0
sg11
VJeeralang A
p6622
sg13
Nsg14
g15
sg16
g17
sg18
g9
sg19
g6618
sg20
(lp6623
g2
(g22
g4
Ntp6624
Rp6625
(dp6626
g26
g9
sg27
Nsg28
Nsg29
Nsbasg26
g30
sg31
g32
((lp6627
g34
atp6628
Rp6629
sg37
VIndustry Funds Management Nominees Ltd Ecogen Holdings
p6630
sg39
I2012
sg40
g2
(g41
g4
Ntp6631
Rp6632
(dp6633
g45
F-38.27532499999995
sg46
g9
sg47
F146.4262960000001
sbsbsVAUS0000124
p6634
g2
(g3
g4
Ntp6635
Rp6636
(dp6637
g8
g9
sg10
F32.0
sg11
VLake Echo
p6638
sg13
Nsg14
g15
sg16
g17
sg18
g9
sg19
g6634
sg20
(lp6639
g2
(g22
g4
Ntp6640
Rp6641
(dp6642
g26
g9
sg27
Nsg28
Nsg29
Nsbasg26
g30
sg31
g32
((lp6643
g74
atp6644
Rp6645
sg37
VHydro-Electric Corporation (Tasmania)
p6646
sg39
I2012
sg40
g2
(g41
g4
Ntp6647
Rp6648
(dp6649
g45
F-42.253701999999976
sg46
g9
sg47
F146.62069900000006
sbsbsVAUS0000125
p6650
g2
(g3
g4
Ntp6651
Rp6652
(dp6653
g8
g9
sg10
F17.0
sg11
VCluny
p6654
sg13
Nsg14
g15
sg16
g17
sg18
g9
sg19
g6650
sg20
(lp6655
g2
(g22
g4
Ntp6656
Rp6657
(dp6658
g26
g9
sg27
Nsg28
Nsg29
Nsbasg26
g30
sg31
g32
((lp6659
g74
atp6660
Rp6661
sg37
VHydro-Electric Corporation (Tasmania)
p6662
sg39
I2012
sg40
g2
(g41
g4
Ntp6663
Rp6664
(dp6665
g45
F-42.506422999999984
sg46
g9
sg47
F146.68116200000009
sbsbsVAUS0000122
p6666
g2
(g3
g4
Ntp6667
Rp6668
(dp6669
g8
g9
sg10
F40.0
sg11
VMeadowbank
p6670
sg13
Nsg14
g15
sg16
g17
sg18
g9
sg19
g6666
sg20
(lp6671
g2
(g22
g4
Ntp6672
Rp6673
(dp6674
g26
g9
sg27
Nsg28
Nsg29
Nsbasg26
g30
sg31
g32
((lp6675
g74
atp6676
Rp6677
sg37
VHydro-Electric Corporation (Tasmania)
p6678
sg39
I2012
sg40
g2
(g41
g4
Ntp6679
Rp6680
(dp6681
g45
F-42.61119899999994
sg46
g9
sg47
F146.84567600000003
sbsbsVAUS0000123
p6682
g2
(g3
g4
Ntp6683
Rp6684
(dp6685
g8
g9
sg10
F87.3
sg11
VLiapootah
p6686
sg13
Nsg14
g15
sg16
g17
sg18
g9
sg19
g6682
sg20
(lp6687
g2
(g22
g4
Ntp6688
Rp6689
(dp6690
g26
g9
sg27
Nsg28
Nsg29
Nsbasg26
g30
sg31
g32
((lp6691
g74
atp6692
Rp6693
sg37
VHydro-Electric Corporation (Tasmania)
p6694
sg39
I2012
sg40
g2
(g41
g4
Ntp6695
Rp6696
(dp6697
g45
F-42.37631699999997
sg46
g9
sg47
F146.50989000000004
sbsbsVAUS0000120
p6698
g2
(g3
g4
Ntp6699
Rp6700
(dp6701
g8
g9
sg10
F28.0
sg11
VRepulse
p6702
sg13
Nsg14
g15
sg16
g17
sg18
g9
sg19
g6698
sg20
(lp6703
g2
(g22
g4
Ntp6704
Rp6705
(dp6706
g26
g9
sg27
Nsg28
Nsg29
Nsbasg26
g30
sg31
g32
((lp6707
g74
atp6708
Rp6709
sg37
VHydro-Electric Corporation (Tasmania)
p6710
sg39
I2012
sg40
g2
(g41
g4
Ntp6711
Rp6712
(dp6713
g45
F-42.507694999999956
sg46
g9
sg47
F146.64696000000004
sbsbsVAUS0000121
p6714
g2
(g3
g4
Ntp6715
Rp6716
(dp6717
g8
g9
sg10
F300.0
sg11
VPoatina
p6718
sg13
Nsg14
g15
sg16
g17
sg18
g9
sg19
g6714
sg20
(lp6719
g2
(g22
g4
Ntp6720
Rp6721
(dp6722
g26
g9
sg27
Nsg28
Nsg29
Nsbasg26
g30
sg31
g32
((lp6723
g74
atp6724
Rp6725
sg37
VHydro-Electric Corporation (Tasmania)
p6726
sg39
I2012
sg40
g2
(g41
g4
Ntp6727
Rp6728
(dp6729
g45
F-41.81157299999995
sg46
g9
sg47
F146.9190380000001
sbsbsVAUS0000081
p6730
g2
(g3
g4
Ntp6731
Rp6732
(dp6733
g8
g9
sg10
F94.0
sg11
VBairnsdale
p6734
sg13
Nsg14
g15
sg16
g17
sg18
g9
sg19
g6730
sg20
(lp6735
g2
(g22
g4
Ntp6736
Rp6737
(dp6738
g26
g9
sg27
Nsg28
Nsg29
Nsbasg26
g30
sg31
g32
((lp6739
g34
atp6740
Rp6741
sg37
VAlinta DEBO
p6742
sg39
I2012
sg40
g2
(g41
g4
Ntp6743
Rp6744
(dp6745
g45
F-37.842858999999976
sg46
g9
sg47
F147.56393000000003
sbsbsVAUS0000080
p6746
g2
(g3
g4
Ntp6747
Rp6748
(dp6749
g8
g9
sg10
F4.6
sg11
VBerwick
p6750
sg13
Nsg14
g15
sg16
g17
sg18
g9
sg19
g6746
sg20
(lp6751
g2
(g22
g4
Ntp6752
Rp6753
(dp6754
g26
g9
sg27
Nsg28
Nsg29
Nsbasg26
g30
sg31
g32
((lp6755
g318
atp6756
Rp6757
sg37
VEnergy Developments LFG (Victoria) Pty Ltd
p6758
sg39
I2012
sg40
g2
(g41
g4
Ntp6759
Rp6760
(dp6761
g45
F-38.11970199999996
sg46
g9
sg47
F145.26646100000005
sbsbsVAUS0000083
p6762
g2
(g3
g4
Ntp6763
Rp6764
(dp6765
g8
g9
sg10
F11.0
sg11
VClayton
p6766
sg13
Nsg14
g15
sg16
g17
sg18
g9
sg19
g6762
sg20
(lp6767
g2
(g22
g4
Ntp6768
Rp6769
(dp6770
g26
g9
sg27
Nsg28
Nsg29
Nsbasg26
g30
sg31
g32
((lp6771
g318
atp6772
Rp6773
sg37
VEnergy Developments LFG (Victoria) Pty Ltd
p6774
sg39
I2012
sg40
g2
(g41
g4
Ntp6775
Rp6776
(dp6777
g45
F-37.95019999999994
sg46
g9
sg47
F145.11872200000005
sbsbsVAUS0000082
p6778
g2
(g3
g4
Ntp6779
Rp6780
(dp6781
g8
g9
sg10
F6.2
sg11
VBroadmeadows
p6782
sg13
Nsg14
g15
sg16
g17
sg18
g9
sg19
g6778
sg20
(lp6783
g2
(g22
g4
Ntp6784
Rp6785
(dp6786
g26
g9
sg27
Nsg28
Nsg29
Nsbasg26
g30
sg31
g32
((lp6787
g318
atp6788
Rp6789
sg37
VEnergy Developments LFG (Victoria) Pty Ltd
p6790
sg39
I2012
sg40
g2
(g41
g4
Ntp6791
Rp6792
(dp6793
g45
F-37.68778599999996
sg46
g9
sg47
F144.9663190000001
sbsbsVAUS0000085
p6794
g2
(g3
g4
Ntp6795
Rp6796
(dp6797
g8
g9
sg10
F189.0
sg11
VEnergy Brix
p6798
sg13
Nsg14
g15
sg16
g17
sg18
g9
sg19
g6794
sg20
(lp6799
g2
(g22
g4
Ntp6800
Rp6801
(dp6802
g26
g9
sg27
Nsg28
Nsg29
Nsbasg26
g30
sg31
g32
((lp6803
g91
atp6804
Rp6805
sg37
VEnergy Brix (Aust) Corp
p6806
sg39
I2012
sg40
g2
(g41
g4
Ntp6807
Rp6808
(dp6809
g45
F-38.25455999999997
sg46
g9
sg47
F146.41372200000012
sbsbsVAUS0000084
p6810
g2
(g3
g4
Ntp6811
Rp6812
(dp6813
g8
g9
sg10
F135.0
sg11
VEildon
p6814
sg13
Nsg14
g15
sg16
g17
sg18
g9
sg19
g6810
sg20
(lp6815
g2
(g22
g4
Ntp6816
Rp6817
(dp6818
g26
g9
sg27
Nsg28
Nsg29
Nsbasg26
g30
sg31
g32
((lp6819
g74
atp6820
Rp6821
sg37
VAGL Energy Pty Ltd
p6822
sg39
I2012
sg40
g2
(g41
g4
Ntp6823
Rp6824
(dp6825
g45
F-37.22200499999997
sg46
g9
sg47
F145.92145200000004
sbsbsVAUS0000087
p6826
g2
(g3
g4
Ntp6827
Rp6828
(dp6829
g8
g9
sg10
F1600.0
sg11
VHazelwood
p6830
sg13
Nsg14
g15
sg16
g17
sg18
g9
sg19
g6826
sg20
(lp6831
g2
(g22
g4
Ntp6832
Rp6833
(dp6834
g26
g9
sg27
Nsg28
Nsg29
Nsbasg26
g30
sg31
g32
((lp6835
g91
atp6836
Rp6837
sg37
VHazelwood Power
p6838
sg39
I2012
sg40
g2
(g41
g4
Ntp6839
Rp6840
(dp6841
g45
F-38.273102999999935
sg46
g9
sg47
F146.39226300000007
sbsbsVAUS0000086
p6842
g2
(g3
g4
Ntp6843
Rp6844
(dp6845
g8
g9
sg10
F3.8
sg11
VLake Glenmaggie
p6846
sg13
Nsg14
g15
sg16
g17
sg18
g9
sg19
g6842
sg20
(lp6847
g2
(g22
g4
Ntp6848
Rp6849
(dp6850
g26
g9
sg27
Nsg28
Nsg29
Nsbasg26
g30
sg31
g32
((lp6851
g74
atp6852
Rp6853
sg37
VPacific Hydro Investments Pty Ltd
p6854
sg39
I2012
sg40
g2
(g41
g4
Ntp6855
Rp6856
(dp6857
g45
F-37.904744999999934
sg46
g9
sg47
F146.80108500000006
sbsbsVAUS0000449
p6858
g2
(g3
g4
Ntp6859
Rp6860
(dp6861
g8
g9
sg10
F8.55
sg11
VKing Island (Currie)
p6862
sg13
Nsg14
g15
sg16
g17
sg18
g9
sg19
g6858
sg20
(lp6863
g2
(g22
g4
Ntp6864
Rp6865
(dp6866
g26
g9
sg27
Nsg28
Nsg29
Nsbasg26
g30
sg31
g32
((lp6867
g269
atp6868
Rp6869
sg37
VHydro Tasmania
p6870
sg39
Nsg40
g2
(g41
g4
Ntp6871
Rp6872
(dp6873
g45
F-39.93878522399996
sg46
g9
sg47
F143.891964593
sbsbsVAUS0000448
p6874
g2
(g3
g4
Ntp6875
Rp6876
(dp6877
g8
g9
sg10
F1.5
sg11
VMildura Solar Farm
p6878
sg13
Nsg14
g15
sg16
g17
sg18
g9
sg19
g6874
sg20
(lp6879
g2
(g22
g4
Ntp6880
Rp6881
(dp6882
g26
g9
sg27
Nsg28
Nsg29
Nsbasg26
g30
sg31
g32
((lp6883
g1279
atp6884
Rp6885
sg37
VSilex Systems
p6886
sg39
I2014
sg40
g2
(g41
g4
Ntp6887
Rp6888
(dp6889
g45
F-34.467089802999965
sg46
g9
sg47
F142.183286693
sbsbsVAUS0000441
p6890
g2
(g3
g4
Ntp6891
Rp6892
(dp6893
g8
g9
sg10
F0.16
sg11
VKogarah Town Square Solar Array
p6894
sg13
Nsg14
g15
sg16
g17
sg18
g9
sg19
g6890
sg20
(lp6895
g2
(g22
g4
Ntp6896
Rp6897
(dp6898
g26
g9
sg27
Nsg28
Nsg29
Nsbasg26
g30
sg31
g32
((lp6899
g1279
atp6900
Rp6901
sg37
VKogarah Council
p6902
sg39
I2012
sg40
g2
(g41
g4
Ntp6903
Rp6904
(dp6905
g45
F-33.965174529999956
sg46
g9
sg47
F151.1331504310001
sbsbsVAUS0000440
p6906
g2
(g3
g4
Ntp6907
Rp6908
(dp6909
g8
g9
sg10
F0.39
sg11
VSingleton Solar Farm
p6910
sg13
Nsg14
g15
sg16
g17
sg18
g9
sg19
g6906
sg20
(lp6911
g2
(g22
g4
Ntp6912
Rp6913
(dp6914
g26
g9
sg27
Nsg28
Nsg29
Nsbasg26
g30
sg31
g32
((lp6915
g1279
atp6916
Rp6917
sg37
VAusgrid
p6918
sg39
I2012
sg40
g2
(g41
g4
Ntp6919
Rp6920
(dp6921
g45
F-32.59238450699996
sg46
g9
sg47
F151.18120867400012
sbsbsVAUS0000443
p6922
g2
(g3
g4
Ntp6923
Rp6924
(dp6925
g8
g9
sg10
F10.0
sg11
VMt Gambier
p6926
sg13
Nsg14
g15
sg16
g17
sg18
g9
sg19
g6922
sg20
(lp6927
g2
(g22
g4
Ntp6928
Rp6929
(dp6930
g26
g9
sg27
Nsg28
Nsg29
Nsbasg26
g30
sg31
g32
((lp6931
g398
atp6932
Rp6933
sg37
VCarter Holt Harvey Wood Products Australia Pty Limited
p6934
sg39
I2013
sg40
g2
(g41
g4
Ntp6935
Rp6936
(dp6937
g45
F-37.83884532999997
sg46
g9
sg47
F140.8056959710001
sbsbsVAUS0000442
p6938
g2
(g3
g4
Ntp6939
Rp6940
(dp6941
g8
g9
sg10
F0.14
sg11
VStadium Australia
p6942
sg13
Nsg14
g15
sg16
g17
sg18
g9
sg19
g6938
sg20
(lp6943
g2
(g22
g4
Ntp6944
Rp6945
(dp6946
g26
g9
sg27
Nsg28
Nsg29
Nsbasg26
g30
sg31
g32
((lp6947
g1279
atp6948
Rp6949
sg37
g9
sg39
I2012
sg40
g2
(g41
g4
Ntp6950
Rp6951
(dp6952
g45
F-33.84517807299994
sg46
g9
sg47
F151.06403926100006
sbsbsVAUS0000445
p6953
g2
(g3
g4
Ntp6954
Rp6955
(dp6956
g8
g9
sg10
F2.0
sg11
VVisy Paper Gibson Island
p6957
sg13
Nsg14
g15
sg16
g17
sg18
g9
sg19
g6953
sg20
(lp6958
g2
(g22
g4
Ntp6959
Rp6960
(dp6961
g26
g9
sg27
Nsg28
Nsg29
Nsbasg26
g30
sg31
g32
((lp6962
g398
atp6963
Rp6964
sg37
VVisy Pulp & Paper
p6965
sg39
Nsg40
g2
(g41
g4
Ntp6966
Rp6967
(dp6968
g45
F-27.44051322399997
sg46
g9
sg47
F153.11579455700007
sbsbsVAUS0000444
p6969
g2
(g3
g4
Ntp6970
Rp6971
(dp6972
g8
g9
sg10
F1.0
sg11
VNarrogin Bioenergy Plant
p6973
sg13
Nsg14
g15
sg16
g17
sg18
g9
sg19
g6969
sg20
(lp6974
g2
(g22
g4
Ntp6975
Rp6976
(dp6977
g26
g9
sg27
Nsg28
Nsg29
Nsbasg26
g30
sg31
g32
((lp6978
g398
atp6979
Rp6980
sg37
VVerve Energy  Western Power  Oil Mallee Co  Enecon P/L
p6981
sg39
I2013
sg40
g2
(g41
g4
Ntp6982
Rp6983
(dp6984
g45
F-32.95211794599993
sg46
g9
sg47
F117.19158099000003
sbsbsVAUS0000447
p6985
g2
(g3
g4
Ntp6986
Rp6987
(dp6988
g8
g9
sg10
F145.0
sg11
VWilpena Solar Farm
p6989
sg13
Nsg14
g15
sg16
g17
sg18
g9
sg19
g6985
sg20
(lp6990
g2
(g22
g4
Ntp6991
Rp6992
(dp6993
g26
g9
sg27
Nsg28
Nsg29
Nsbasg26
g30
sg31
g32
((lp6994
g1279
atp6995
Rp6996
sg37
VAGL
p6997
sg39
I2014
sg40
g2
(g41
g4
Ntp6998
Rp6999
(dp7000
g45
F-31.523392487999956
sg46
g9
sg47
F138.6197569530001
sbsbsVAUS0000446
p7001
g2
(g3
g4
Ntp7002
Rp7003
(dp7004
g8
g9
sg10
F325.0
sg11
VMica Creek
p7005
sg13
Nsg14
g15
sg16
g17
sg18
g9
sg19
g7001
sg20
(lp7006
g2
(g22
g4
Ntp7007
Rp7008
(dp7009
g26
g9
sg27
Nsg28
Nsg29
Nsbasg26
g30
sg31
g32
((lp7010
g34
atp7011
Rp7012
sg37
VStanwell Corporation
p7013
sg39
I2013
sg40
g2
(g41
g4
Ntp7014
Rp7015
(dp7016
g45
F-20.777726239999936
sg46
g9
sg47
F139.49046429100008
sbsbsVAUS0000333
p7017
g2
(g3
g4
Ntp7018
Rp7019
(dp7020
g8
g9
sg10
F1.2
sg11
VMelbourne
p7021
sg13
Nsg14
g15
sg16
g17
sg18
g9
sg19
g7017
sg20
(lp7022
g2
(g22
g4
Ntp7023
Rp7024
(dp7025
g26
g9
sg27
Nsg28
Nsg29
Nsbasg26
g30
sg31
g32
((lp7026
g34
atp7027
Rp7028
sg37
VCogent Energy
p7029
sg39
I2012
sg40
g2
(g41
g4
Ntp7030
Rp7031
(dp7032
g45
F-37.808596002999934
sg46
g9
sg47
F144.96848012300006
sbsbsVAUS0000332
p7033
g2
(g3
g4
Ntp7034
Rp7035
(dp7036
g8
g9
sg10
F4.2
sg11
VKRC Cogeneration Plant
p7037
sg13
Nsg14
g15
sg16
g17
sg18
g9
sg19
g7033
sg20
(lp7038
g2
(g22
g4
Ntp7039
Rp7040
(dp7041
g26
g9
sg27
Nsg28
Nsg29
Nsbasg26
g30
sg31
g32
((lp7042
g34
atp7043
Rp7044
sg37
VAGL
p7045
sg39
I2012
sg40
g2
(g41
g4
Ntp7046
Rp7047
(dp7048
g45
F-27.445266808999975
sg46
g9
sg47
F153.11846693600012
sbsbsVAUS0000331
p7049
g2
(g3
g4
Ntp7050
Rp7051
(dp7052
g8
g9
sg10
F1.1
sg11
VGosnells
p7053
sg13
Nsg14
g15
sg16
g17
sg18
g9
sg19
g7049
sg20
(lp7054
g2
(g22
g4
Ntp7055
Rp7056
(dp7057
g26
g9
sg27
Nsg28
Nsg29
Nsbasg26
g30
sg31
g32
((lp7058
g318
atp7059
Rp7060
sg37
VAGL Energy Pty Ltd
p7061
sg39
I2012
sg40
g2
(g41
g4
Ntp7062
Rp7063
(dp7064
g45
F-32.022750963999954
sg46
g9
sg47
F116.01287154800002
sbsbsVAUS0000239
p7065
g2
(g3
g4
Ntp7066
Rp7067
(dp7068
g8
g9
sg10
F224.0
sg11
VQuarantine
p7069
sg13
Nsg14
g15
sg16
g17
sg18
g9
sg19
g7065
sg20
(lp7070
g2
(g22
g4
Ntp7071
Rp7072
(dp7073
g26
g9
sg27
Nsg28
Nsg29
Nsbasg26
g30
sg31
g32
((lp7074
g34
atp7075
Rp7076
sg37
VOrigin Energy
p7077
sg39
I2012
sg40
g2
(g41
g4
Ntp7078
Rp7079
(dp7080
g45
F-34.77928399999996
sg46
g9
sg47
F138.52235200000007
sbsbsVAUS0000337
p7081
g2
(g3
g4
Ntp7082
Rp7083
(dp7084
g8
g9
sg10
F0.25
sg11
VSouth East Water Hallam Plant
p7085
sg13
Nsg14
g15
sg16
g17
sg18
g9
sg19
g7081
sg20
(lp7086
g2
(g22
g4
Ntp7087
Rp7088
(dp7089
g26
g9
sg27
Nsg28
Nsg29
Nsbasg26
g30
sg31
g32
((lp7090
g74
atp7091
Rp7092
sg37
VSouth East Water
p7093
sg39
I2012
sg40
g2
(g41
g4
Ntp7094
Rp7095
(dp7096
g45
F-38.02317811299997
sg46
g9
sg47
F145.2781215440001
sbsbsVAUS0000336
p7097
g2
(g3
g4
Ntp7098
Rp7099
(dp7100
g8
g9
sg10
F1.0
sg11
VCorio
p7101
sg13
Nsg14
g15
sg16
g17
sg18
g9
sg19
g7097
sg20
(lp7102
g2
(g22
g4
Ntp7103
Rp7104
(dp7105
g26
g9
sg27
Nsg28
Nsg29
Nsbasg26
g30
sg31
g32
((lp7106
g318
atp7107
Rp7108
sg37
VEDL LFG Vic Pty Ltd
p7109
sg39
I2012
sg40
g2
(g41
g4
Ntp7110
Rp7111
(dp7112
g45
F-38.05865887699997
sg46
g9
sg47
F144.405575687
sbsbsVAUS0000335
p7113
g2
(g3
g4
Ntp7114
Rp7115
(dp7116
g8
g9
sg10
F4.5
sg11
VEildon Small Hydro
p7117
sg13
Nsg14
g15
sg16
g17
sg18
g9
sg19
g7113
sg20
(lp7118
g2
(g22
g4
Ntp7119
Rp7120
(dp7121
g26
g9
sg27
Nsg28
Nsg29
Nsbasg26
g30
sg31
g32
((lp7122
g74
atp7123
Rp7124
sg37
VPacific Hydro Investments Pty Ltd
p7125
sg39
I2012
sg40
g2
(g41
g4
Ntp7126
Rp7127
(dp7128
g45
F-37.24307176099995
sg46
g9
sg47
F145.89740990000007
sbsbsVAUS0000334
p7129
g2
(g3
g4
Ntp7130
Rp7131
(dp7132
g8
g9
sg10
F0.4
sg11
VCarlton
p7133
sg13
Nsg14
g15
sg16
g17
sg18
g9
sg19
g7129
sg20
(lp7134
g2
(g22
g4
Ntp7135
Rp7136
(dp7137
g26
g9
sg27
Nsg28
Nsg29
Nsbasg26
g30
sg31
g32
((lp7138
g34
atp7139
Rp7140
sg37
VCogent Energy
p7141
sg39
I2012
sg40
g2
(g41
g4
Ntp7142
Rp7143
(dp7144
g45
F-37.806118228999935
sg46
g9
sg47
F144.96065012300005
sbsbsVAUS0000232
p7145
g2
(g3
g4
Ntp7146
Rp7147
(dp7148
g8
g9
sg10
F50.0
sg11
VAngaston
p7149
sg13
Nsg14
g15
sg16
g17
sg18
g9
sg19
g7145
sg20
(lp7150
g2
(g22
g4
Ntp7151
Rp7152
(dp7153
g26
g9
sg27
Nsg28
Nsg29
Nsbasg26
g30
sg31
g32
((lp7154
g269
atp7155
Rp7156
sg37
VInfratil Energy Australia Pty Ltd
p7157
sg39
I2012
sg40
g2
(g41
g4
Ntp7158
Rp7159
(dp7160
g45
F-34.50347999999997
sg46
g9
sg47
F139.024537
sbsbsVAUS0000233
p7161
g2
(g3
g4
Ntp7162
Rp7163
(dp7164
g8
g9
sg10
F156.0
sg11
VDry Creek
p7165
sg13
Nsg14
g15
sg16
g17
sg18
g9
sg19
g7161
sg20
(lp7166
g2
(g22
g4
Ntp7167
Rp7168
(dp7169
g26
g9
sg27
Nsg28
Nsg29
Nsbasg26
g30
sg31
g32
((lp7170
g34
atp7171
Rp7172
sg37
VSynergen Power
p7173
sg39
I2012
sg40
g2
(g41
g4
Ntp7174
Rp7175
(dp7176
g45
F-34.84746299999995
sg46
g9
sg47
F138.58175800000004
sbsbsVAUS0000339
p7177
g2
(g3
g4
Ntp7178
Rp7179
(dp7180
g8
g9
sg10
F0.9
sg11
VRoyston
p7181
sg13
Nsg14
g15
sg16
g17
sg18
g9
sg19
g7177
sg20
(lp7182
g2
(g22
g4
Ntp7183
Rp7184
(dp7185
g26
g9
sg27
Nsg28
Nsg29
Nsbasg26
g30
sg31
g32
((lp7186
g74
atp7187
Rp7188
sg37
VAGL Energy Pty Ltd
p7189
sg39
I2012
sg40
g2
(g41
g4
Ntp7190
Rp7191
(dp7192
g45
F-37.373920675999955
sg46
g9
sg47
F145.86452681800006
sbsbsVAUS0000338
p7193
g2
(g3
g4
Ntp7194
Rp7195
(dp7196
g8
g9
sg10
F2.7
sg11
VLower Rubicon
p7197
sg13
Nsg14
g15
sg16
g17
sg18
g9
sg19
g7193
sg20
(lp7198
g2
(g22
g4
Ntp7199
Rp7200
(dp7201
g26
g9
sg27
Nsg28
Nsg29
Nsbasg26
g30
sg31
g32
((lp7202
g74
atp7203
Rp7204
sg37
VAGL Energy Pty Ltd
p7205
sg39
I2012
sg40
g2
(g41
g4
Ntp7206
Rp7207
(dp7208
g45
F-37.30272459099996
sg46
g9
sg47
F145.84577523000007
sbsbsVAUS0000236
p7209
g2
(g3
g4
Ntp7210
Rp7211
(dp7212
g8
g9
sg10
F3.1
sg11
VPedler Creek
p7213
sg13
Nsg14
g15
sg16
g17
sg18
g9
sg19
g7209
sg20
(lp7214
g2
(g22
g4
Ntp7215
Rp7216
(dp7217
g26
g9
sg27
Nsg28
Nsg29
Nsbasg26
g30
sg31
g32
((lp7218
g318
atp7219
Rp7220
sg37
VEnergy Developments LFG (SA) Pty Ltd
p7221
sg39
I2012
sg40
g2
(g41
g4
Ntp7222
Rp7223
(dp7224
g45
F-35.20232099999998
sg46
g9
sg47
F138.50209400000006
sbsbsVAUS0000237
p7225
g2
(g3
g4
Ntp7226
Rp7227
(dp7228
g8
g9
sg10
F478.0
sg11
VPelican Point
p7229
sg13
Nsg14
g15
sg16
g17
sg18
g9
sg19
g7225
sg20
(lp7230
g2
(g22
g4
Ntp7231
Rp7232
(dp7233
g26
g9
sg27
Nsg28
Nsg29
Nsbasg26
g30
sg31
g32
((lp7234
g34
atp7235
Rp7236
sg37
VInternational Power - GDF Suez Australia
p7237
sg39
I2012
sg40
g2
(g41
g4
Ntp7238
Rp7239
(dp7240
g45
F-34.76497199999994
sg46
g9
sg47
F138.50532500000008
sbsbsVAUS0000234
p7241
g2
(g3
g4
Ntp7242
Rp7243
(dp7244
g8
g9
sg10
F20.7
sg11
VLonsdale
p7245
sg13
Nsg14
g15
sg16
g17
sg18
g9
sg19
g7241
sg20
(lp7246
g2
(g22
g4
Ntp7247
Rp7248
(dp7249
g26
g9
sg27
Nsg28
Nsg29
Nsbasg26
g30
sg31
g32
((lp7250
g269
atp7251
Rp7252
sg37
VInfratil Energy Australia Pty Ltd
p7253
sg39
I2012
sg40
g2
(g41
g4
Ntp7254
Rp7255
(dp7256
g45
F-35.10966855399994
sg46
g9
sg47
F138.49100682100004
sbsbsVAUS0000235
p7257
g2
(g3
g4
Ntp7258
Rp7259
(dp7260
g8
g9
sg10
F180.0
sg11
VOsborne
p7261
sg13
Nsg14
g15
sg16
g17
sg18
g9
sg19
g7257
sg20
(lp7262
g2
(g22
g4
Ntp7263
Rp7264
(dp7265
g26
g9
sg27
Nsg28
Nsg29
Nsbasg26
g30
sg31
g32
((lp7266
g34
atp7267
Rp7268
sg37
VOrigin Energy
p7269
sg39
I2012
sg40
g2
(g41
g4
Ntp7270
Rp7271
(dp7272
g45
F-34.79802099999995
sg46
g9
sg47
F138.5078840000001
sbsbsVAUS0000433
p7273
g2
(g3
g4
Ntp7274
Rp7275
(dp7276
g8
g9
sg10
F0.11
sg11
VAdelaide Airport
p7277
sg13
Nsg14
g15
sg16
g17
sg18
g9
sg19
g7273
sg20
(lp7278
g2
(g22
g4
Ntp7279
Rp7280
(dp7281
g26
g9
sg27
Nsg28
Nsg29
Nsbasg26
g30
sg31
g32
((lp7282
g1279
atp7283
Rp7284
sg37
VAdelaide Airport Ltd
p7285
sg39
I2012
sg40
g2
(g41
g4
Ntp7286
Rp7287
(dp7288
g45
F-34.93867455299994
sg46
g9
sg47
F138.5376555360001
sbsbsVAUS0000351
p7289
g2
(g3
g4
Ntp7290
Rp7291
(dp7292
g8
g9
sg10
F2.24
sg11
VCoral Bay Diesel Backup
p7293
sg13
Nsg14
g15
sg16
g17
sg18
g9
sg19
g7289
sg20
(lp7294
g2
(g22
g4
Ntp7295
Rp7296
(dp7297
g26
g9
sg27
Nsg28
Nsg29
Nsbasg26
g30
sg31
g32
((lp7298
g269
atp7299
Rp7300
sg37
VVerve Energy
p7301
sg39
I2012
sg40
g2
(g41
g4
Ntp7302
Rp7303
(dp7304
g45
F-23.152144317999955
sg46
g9
sg47
F113.776179006
sbsbsVAUS0000350
p7305
g2
(g3
g4
Ntp7306
Rp7307
(dp7308
g8
g9
sg10
F0.83
sg11
VCoral Bay Wind Turbines
p7309
sg13
Nsg14
g15
sg16
g17
sg18
g9
sg19
g7305
sg20
(lp7310
g2
(g22
g4
Ntp7311
Rp7312
(dp7313
g26
g9
sg27
Nsg28
Nsg29
Nsbasg26
g30
sg31
g32
((lp7314
g236
atp7315
Rp7316
sg37
VVerve Energy
p7317
sg39
I2012
sg40
g2
(g41
g4
Ntp7318
Rp7319
(dp7320
g45
F-23.154419166999958
sg46
g9
sg47
F113.77206677900006
sbsbsVAUS0000383
p7321
g2
(g3
g4
Ntp7322
Rp7323
(dp7324
g8
g9
sg10
F0.4
sg11
VGascoyne Junction
p7325
sg13
Nsg14
g15
sg16
g17
sg18
g9
sg19
g7321
sg20
(lp7326
g2
(g22
g4
Ntp7327
Rp7328
(dp7329
g26
g9
sg27
Nsg28
Nsg29
Nsbasg26
g30
sg31
g32
((lp7330
g269
atp7331
Rp7332
sg37
VEnergy Developments
p7333
sg39
I2012
sg40
g2
(g41
g4
Ntp7334
Rp7335
(dp7336
g45
F-25.05569375799996
sg46
g9
sg47
F115.20828921500004
sbsbsVAUS0000197
p7337
g2
(g3
g4
Ntp7338
Rp7339
(dp7340
g8
g9
sg10
F120.0
sg11
VKwinana Swift
p7341
sg13
Nsg14
g15
sg16
g17
sg18
g9
sg19
g7337
sg20
(lp7342
g2
(g22
g4
Ntp7343
Rp7344
(dp7345
g26
g9
sg27
Nsg28
Nsg29
Nsbasg26
g30
sg31
g32
((lp7346
g34
atp7347
Rp7348
sg37
VWestern Energy Pty Ltd
p7349
sg39
I2012
sg40
g2
(g41
g4
Ntp7350
Rp7351
(dp7352
g45
F-32.22425832899995
sg46
g9
sg47
F115.7782769050001
sbsbsVAUS0000196
p7353
g2
(g3
g4
Ntp7354
Rp7355
(dp7356
g8
g9
sg10
F320.0
sg11
VKwinana (NewGen)
p7357
sg13
Nsg14
g15
sg16
g17
sg18
g9
sg19
g7353
sg20
(lp7358
g2
(g22
g4
Ntp7359
Rp7360
(dp7361
g26
g9
sg27
Nsg28
Nsg29
Nsbasg26
g30
sg31
g32
((lp7362
g34
atp7363
Rp7364
sg37
VNewgen Power Kwinana Partnership
p7365
sg39
I2012
sg40
g2
(g41
g4
Ntp7366
Rp7367
(dp7368
g45
F-32.201979999999935
sg46
g9
sg47
F115.77282100000002
sbsbsVAUS0000195
p7369
g2
(g3
g4
Ntp7370
Rp7371
(dp7372
g8
g9
sg10
F200.0
sg11
VKwinana High Efficiency Gas Turbine Plant
p7373
sg13
Nsg14
g15
sg16
g17
sg18
g9
sg19
g7369
sg20
(lp7374
g2
(g22
g4
Ntp7375
Rp7376
(dp7377
g26
g9
sg27
Nsg28
Nsg29
Nsbasg26
g30
sg31
g32
((lp7378
g34
atp7379
Rp7380
sg37
VVerve Energy
p7381
sg39
I2012
sg40
g2
(g41
g4
Ntp7382
Rp7383
(dp7384
g45
F-32.197295434999944
sg46
g9
sg47
F115.77538637200007
sbsbsVAUS0000194
p7385
g2
(g3
g4
Ntp7386
Rp7387
(dp7388
g8
g9
sg10
F21.0
sg11
VKwinan
p7389
sg13
Nsg14
g15
sg16
g17
sg18
g9
sg19
g7385
sg20
(lp7390
g2
(g22
g4
Ntp7391
Rp7392
(dp7393
g26
g9
sg27
Nsg28
Nsg29
Nsbasg26
g30
sg31
g32
((lp7394
g34
atp7395
Rp7396
sg37
VVerve Energy
p7397
sg39
I2012
sg40
g2
(g41
g4
Ntp7398
Rp7399
(dp7400
g45
F-32.19700263699997
sg46
g9
sg47
F115.7759455040001
sbsbsVAUS0000193
p7401
g2
(g3
g4
Ntp7402
Rp7403
(dp7404
g8
g9
sg10
F123.0
sg11
VKwinana Cogeneration
p7405
sg13
Nsg14
g15
sg16
g17
sg18
g9
sg19
g7401
sg20
(lp7406
g2
(g22
g4
Ntp7407
Rp7408
(dp7409
g26
g9
sg27
Nsg28
Nsg29
Nsbasg26
g30
sg31
g32
((lp7410
g34
atp7411
Rp7412
sg37
VInternational Power Plc & Mitsui & Co Ltd & Transfield
p7413
sg39
I2012
sg40
g2
(g41
g4
Ntp7414
Rp7415
(dp7416
g45
F-32.222531999999944
sg46
g9
sg47
F115.76612100000011
sbsbsVAUS0000192
p7417
g2
(g3
g4
Ntp7418
Rp7419
(dp7420
g8
g9
sg10
F400.0
sg11
VKwinana C
p7421
sg13
Nsg14
g15
sg16
g17
sg18
g9
sg19
g7417
sg20
(lp7422
g2
(g22
g4
Ntp7423
Rp7424
(dp7425
g26
g9
sg27
Nsg28
Nsg29
Nsbasg26
g30
sg31
g32
((lp7426
g91
atp7427
Rp7428
sg37
VVerve Energy
p7429
sg39
I2012
sg40
g2
(g41
g4
Ntp7430
Rp7431
(dp7432
g45
F-32.19922939299994
sg46
g9
sg47
F115.77470218600001
sbsbsVAUS0000191
p7433
g2
(g3
g4
Ntp7434
Rp7435
(dp7436
g8
g9
sg10
F240.0
sg11
VKwinana A
p7437
sg13
Nsg14
g15
sg16
g17
sg18
g9
sg19
g7433
sg20
(lp7438
g2
(g22
g4
Ntp7439
Rp7440
(dp7441
g26
g9
sg27
Nsg28
Nsg29
Nsbasg26
g30
sg31
g32
((lp7442
g91
atp7443
Rp7444
sg37
VVerve Energy
p7445
sg39
I2012
sg40
g2
(g41
g4
Ntp7446
Rp7447
(dp7448
g45
F-32.19795289599995
sg46
g9
sg47
F115.7751616490001
sbsbsVAUS0000190
p7449
g2
(g3
g4
Ntp7450
Rp7451
(dp7452
g8
g9
sg10
F66.0
sg11
VKwinana (Alcoa Refinery)
p7453
sg13
Nsg14
g15
sg16
g17
sg18
g9
sg19
g7449
sg20
(lp7454
g2
(g22
g4
Ntp7455
Rp7456
(dp7457
g26
g9
sg27
Nsg28
Nsg29
Nsbasg26
g30
sg31
g32
((lp7458
g34
atp7459
Rp7460
sg37
VAlcoa of Australia Ltd
p7461
sg39
I2012
sg40
g2
(g41
g4
Ntp7462
Rp7463
(dp7464
g45
F-32.19463499999995
sg46
g9
sg47
F115.77967600000011
sbsbsVAUS0000056
p7465
g2
(g3
g4
Ntp7466
Rp7467
(dp7468
g8
g9
sg10
F50.0
sg11
VInvicta Sugar Mill
p7469
sg13
Nsg14
g15
sg16
g17
sg18
g9
sg19
g7465
sg20
(lp7470
g2
(g22
g4
Ntp7471
Rp7472
(dp7473
g26
g9
sg27
Nsg28
Nsg29
Nsbasg26
g30
sg31
g32
((lp7474
g398
atp7475
Rp7476
sg37
VCSR
p7477
sg39
I2012
sg40
g2
(g41
g4
Ntp7478
Rp7479
(dp7480
g45
F-19.516696999999965
sg46
g9
sg47
F147.10652600000003
sbsbsVAUS0000057
p7481
g2
(g3
g4
Ntp7482
Rp7483
(dp7484
g8
g9
sg10
F4.5
sg11
VWivenhoe
p7485
sg13
Nsg14
g15
sg16
g17
sg18
g9
sg19
g7481
sg20
(lp7486
g2
(g22
g4
Ntp7487
Rp7488
(dp7489
g26
g9
sg27
Nsg28
Nsg29
Nsbasg26
g30
sg31
g32
((lp7490
g74
atp7491
Rp7492
sg37
VStanwell Corporation Ltd
p7493
sg39
I2012
sg40
g2
(g41
g4
Ntp7494
Rp7495
(dp7496
g45
F-27.395211999999958
sg46
g9
sg47
F152.6091530000001
sbsbsVAUS0000054
p7497
g2
(g3
g4
Ntp7498
Rp7499
(dp7500
g8
g9
sg10
F45.6
sg11
VMoranbah North
p7501
sg13
Nsg14
g15
sg16
g17
sg18
g9
sg19
g7497
sg20
(lp7502
g2
(g22
g4
Ntp7503
Rp7504
(dp7505
g26
g9
sg27
Nsg28
Nsg29
Nsbasg26
g30
sg31
g32
((lp7506
g34
atp7507
Rp7508
sg37
VEnergy Development Projects (Australia) Pty Ltd
p7509
sg39
I2012
sg40
g2
(g41
g4
Ntp7510
Rp7511
(dp7512
g45
F-21.896655255999974
sg46
g9
sg47
F147.95065540500002
sbsbsVAUS0000055
p7513
g2
(g3
g4
Ntp7514
Rp7515
(dp7516
g8
g9
sg10
F7.3
sg11
VKoombooloomba
p7517
sg13
Nsg14
g15
sg16
g17
sg18
g9
sg19
g7513
sg20
(lp7518
g2
(g22
g4
Ntp7519
Rp7520
(dp7521
g26
g9
sg27
Nsg28
Nsg29
Nsbasg26
g30
sg31
g32
((lp7522
g74
atp7523
Rp7524
sg37
VStanwell Corporation Ltd
p7525
sg39
I2012
sg40
g2
(g41
g4
Ntp7526
Rp7527
(dp7528
g45
F-17.831283999999982
sg46
g9
sg47
F145.60336200000006
sbsbsVAUS0000052
p7529
g2
(g3
g4
Ntp7530
Rp7531
(dp7532
g8
g9
sg10
F34.5
sg11
VStarfish Hill Wind Farm
p7533
sg13
Nsg14
g15
sg16
g17
sg18
g9
sg19
g7529
sg20
(lp7534
g2
(g22
g4
Ntp7535
Rp7536
(dp7537
g26
g9
sg27
Nsg28
Nsg29
Nsbasg26
g30
sg31
g32
((lp7538
g236
atp7539
Rp7540
sg37
VRATCH-Australia
p7541
sg39
I2012
sg40
g2
(g41
g4
Ntp7542
Rp7543
(dp7544
g45
F-35.56776499999995
sg46
g9
sg47
F138.1432380000001
sbsbsVAUS0000053
p7545
g2
(g3
g4
Ntp7546
Rp7547
(dp7548
g8
g9
sg10
F67.8
sg11
VPioneer Sugar Mill
p7549
sg13
Nsg14
g15
sg16
g17
sg18
g9
sg19
g7545
sg20
(lp7550
g2
(g22
g4
Ntp7551
Rp7552
(dp7553
g26
g9
sg27
Nsg28
Nsg29
Nsbasg26
g30
sg31
g32
((lp7554
g398
atp7555
Rp7556
sg37
VCSR
p7557
sg39
I2012
sg40
g2
(g41
g4
Ntp7558
Rp7559
(dp7560
g45
F-19.55746499999998
sg46
g9
sg47
F147.33080100000006
sbsbsVAUS0000199
p7561
g2
(g3
g4
Ntp7562
Rp7563
(dp7564
g8
g9
sg10
F140.0
sg11
VNewman Iron Ore Mine
p7565
sg13
Nsg14
g15
sg16
g17
sg18
g9
sg19
g7561
sg20
(lp7566
g2
(g22
g4
Ntp7567
Rp7568
(dp7569
g26
g9
sg27
Nsg28
Nsg29
Nsbasg26
g30
sg31
g32
((lp7570
g34
atp7571
Rp7572
sg37
VAlinta Energy
p7573
sg39
I2012
sg40
g2
(g41
g4
Ntp7574
Rp7575
(dp7576
g45
F-23.344274999999982
sg46
g9
sg47
F119.70858700000008
sbsbsVAUS0000198
p7577
g2
(g3
g4
Ntp7578
Rp7579
(dp7580
g8
g9
sg10
F330.0
sg11
VNeerabup
p7581
sg13
Nsg14
g15
sg16
g17
sg18
g9
sg19
g7577
sg20
(lp7582
g2
(g22
g4
Ntp7583
Rp7584
(dp7585
g26
g9
sg27
Nsg28
Nsg29
Nsbasg26
g30
sg31
g32
((lp7586
g34
atp7587
Rp7588
sg37
VNewgen Neerabup Partnership
p7589
sg39
I2012
sg40
g2
(g41
g4
Ntp7590
Rp7591
(dp7592
g45
F-31.67124999999993
sg46
g9
sg47
F115.8021490000001
sbsbsVAUS0000359
p7593
g2
(g3
g4
Ntp7594
Rp7595
(dp7596
g8
g9
sg10
F3.3
sg11
VSouth Cardup (Shale Road Landfill)
p7597
sg13
Nsg14
g15
sg16
g17
sg18
g9
sg19
g7593
sg20
(lp7598
g2
(g22
g4
Ntp7599
Rp7600
(dp7601
g26
g9
sg27
Nsg28
Nsg29
Nsbasg26
g30
sg31
g32
((lp7602
g318
atp7603
Rp7604
sg37
VWestern Australian Landfill Services
p7605
sg39
I2012
sg40
g2
(g41
g4
Ntp7606
Rp7607
(dp7608
g45
F-32.266436158999966
sg46
g9
sg47
F116.01931443900003
sbsbsVAUS0000385
p7609
g2
(g3
g4
Ntp7610
Rp7611
(dp7612
g8
g9
sg10
F0.4
sg11
VYalgoo
p7613
sg13
Nsg14
g15
sg16
g17
sg18
g9
sg19
g7609
sg20
(lp7614
g2
(g22
g4
Ntp7615
Rp7616
(dp7617
g26
g9
sg27
Nsg28
Nsg29
Nsbasg26
g30
sg31
g32
((lp7618
g269
atp7619
Rp7620
sg37
VEnergy Developments
p7621
sg39
I2012
sg40
g2
(g41
g4
Ntp7622
Rp7623
(dp7624
g45
F-28.337536633999946
sg46
g9
sg47
F116.68349161800006
sbsbsVAUS0000358
p7625
g2
(g3
g4
Ntp7626
Rp7627
(dp7628
g8
g9
sg10
F2.1
sg11
VRockingham
p7629
sg13
Nsg14
g15
sg16
g17
sg18
g9
sg19
g7625
sg20
(lp7630
g2
(g22
g4
Ntp7631
Rp7632
(dp7633
g26
g9
sg27
Nsg28
Nsg29
Nsbasg26
g30
sg31
g32
((lp7634
g318
atp7635
Rp7636
sg37
VAGL Energy Pty Ltd
p7637
sg39
I2012
sg40
g2
(g41
g4
Ntp7638
Rp7639
(dp7640
g45
F-32.28632251299996
sg46
g9
sg47
F115.81538889600006
sbsbs.