(dp0
VAUS0000289
p1
ccopy_reg
_reconstructor
p2
(cpowerwatch
PowerPlant
p3
c__builtin__
object
p4
Ntp5
Rp6
(dp7
S'coord_source'
p8
V
p9
sS'capacity'
p10
F4.0
sS'name'
p11
VTeralba
p12
sS'gen_year'
p13
NsS'source'
p14
VAREMI
p15
sS'url'
p16
Vhttp://services.ga.gov.au/site_3/services/Electricity_Infrastructure/MapServer/WFSServer?service=WFS&version=1.1.0&request=GetFeature&typeName=National_Major_Power_Stations
p17
sS'country'
p18
VAustralia
p19
sS'nat_lang'
p20
g9
sS'idnr'
p21
g1
sS'generation'
p22
NsS'location'
p23
g2
(cpowerwatch
LocationObject
p24
g4
Ntp25
Rp26
(dp27
S'latitude'
p28
F-32.94548999999995
sS'description'
p29
S''
p30
sS'longitude'
p31
F151.6119070000001
sbsS'fuel'
p32
c__builtin__
set
p33
((lp34
VGas
p35
atp36
Rp37
sS'owner'
p38
g9
sS'cap_year'
p39
I2012
sbsVAUS0000288
p40
g2
(g3
g4
Ntp41
Rp42
(dp43
g8
g9
sg10
F420.0
sg11
VTallawarra
p44
sg13
Nsg14
g15
sg16
g17
sg18
g19
sg20
g9
sg21
g40
sg22
Nsg23
g2
(g24
g4
Ntp45
Rp46
(dp47
g28
F-34.52277799999996
sg29
g30
sg31
F150.80805600000008
sbsg32
g33
((lp48
g35
atp49
Rp50
sg38
g9
sg39
I2012
sbsVAUS0000283
p51
g2
(g3
g4
Ntp52
Rp53
(dp54
g8
g9
sg10
F33.6
sg11
VNymboida
p55
sg13
Nsg14
g15
sg16
g17
sg18
g19
sg20
g9
sg21
g51
sg22
Nsg23
g2
(g24
g4
Ntp56
Rp57
(dp58
g28
F-29.925737999999967
sg29
g30
sg31
F152.74170800000002
sbsg32
g33
((lp59
VHydro
p60
atp61
Rp62
sg38
g9
sg39
I2012
sbsVAUS0000282
p63
g2
(g3
g4
Ntp64
Rp65
(dp66
g8
g9
sg10
F600.0
sg11
VMunmorah
p67
sg13
Nsg14
g15
sg16
g17
sg18
g19
sg20
g9
sg21
g63
sg22
Nsg23
g2
(g24
g4
Ntp68
Rp69
(dp70
g28
F-33.21169099999997
sg29
g30
sg31
F151.5418370000001
sbsg32
g33
((lp71
VCoal
p72
atp73
Rp74
sg38
g9
sg39
I2012
sbsVAUS0000281
p75
g2
(g3
g4
Ntp76
Rp77
(dp78
g8
g9
sg10
F1400.0
sg11
VMt Piper
p79
sg13
Nsg14
g15
sg16
g17
sg18
g19
sg20
g9
sg21
g75
sg22
Nsg23
g2
(g24
g4
Ntp80
Rp81
(dp82
g28
F-33.35889199999997
sg29
g30
sg31
F150.03132200000005
sbsg32
g33
((lp83
g72
atp84
Rp85
sg38
g9
sg39
I2012
sbsVAUS0000280
p86
g2
(g3
g4
Ntp87
Rp88
(dp89
g8
g9
sg10
F2000.0
sg11
VLiddell
p90
sg13
Nsg14
g15
sg16
g17
sg18
g19
sg20
g9
sg21
g86
sg22
Nsg23
g2
(g24
g4
Ntp91
Rp92
(dp93
g28
F-32.37126699999993
sg29
g30
sg31
F150.97757000000001
sbsg32
g33
((lp94
g72
atp95
Rp96
sg38
g9
sg39
I2012
sbsVAUS0000287
p97
g2
(g3
g4
Ntp98
Rp99
(dp100
g8
g9
sg10
F7.0
sg11
VTahmoor
p101
sg13
Nsg14
g15
sg16
g17
sg18
g19
sg20
g9
sg21
g97
sg22
Nsg23
g2
(g24
g4
Ntp102
Rp103
(dp104
g28
F-34.24823299999997
sg29
g30
sg31
F150.58077000000003
sbsg32
g33
((lp105
g35
atp106
Rp107
sg38
g9
sg39
I2012
sbsVAUS0000286
p108
g2
(g3
g4
Ntp109
Rp110
(dp111
g8
g9
sg10
F170.9
sg11
VSmithfield Energy
p112
sg13
Nsg14
g15
sg16
g17
sg18
g19
sg20
g9
sg21
g108
sg22
Nsg23
g2
(g24
g4
Ntp113
Rp114
(dp115
g28
F-33.85003999999998
sg29
g30
sg31
F150.94946600000003
sbsg32
g33
((lp116
g35
atp117
Rp118
sg38
g9
sg39
I2012
sbsVAUS0000285
p119
g2
(g3
g4
Ntp120
Rp121
(dp122
g8
g9
sg10
F143.8
sg11
VRedbank
p123
sg13
Nsg14
g15
sg16
g17
sg18
g19
sg20
g9
sg21
g119
sg22
Nsg23
g2
(g24
g4
Ntp124
Rp125
(dp126
g28
F-32.580205999999976
sg29
g30
sg31
F151.07193600000005
sbsg32
g33
((lp127
g72
atp128
Rp129
sg38
g9
sg39
I2012
sbsVAUS0000284
p130
g2
(g3
g4
Ntp131
Rp132
(dp133
g8
g9
sg10
F4.8
sg11
VOaky
p134
sg13
Nsg14
g15
sg16
g17
sg18
g19
sg20
g9
sg21
g130
sg22
Nsg23
g2
(g24
g4
Ntp135
Rp136
(dp137
g28
F-30.575118999999972
sg29
g30
sg31
F152.06897000000004
sbsg32
g33
((lp138
g60
atp139
Rp140
sg38
g9
sg39
I2012
sbsVAUS0000148
p141
g2
(g3
g4
Ntp142
Rp143
(dp144
g8
g9
sg10
F480.0
sg11
VSwanbank B
p145
sg13
Nsg14
g15
sg16
g17
sg18
g19
sg20
g9
sg21
g141
sg22
Nsg23
g2
(g24
g4
Ntp146
Rp147
(dp148
g28
F-27.660064999999975
sg29
g30
sg31
F152.81445200000007
sbsg32
g33
((lp149
g72
atp150
Rp151
sg38
g9
sg39
I2012
sbsVAUS0000260
p152
g2
(g3
g4
Ntp153
Rp154
(dp155
g8
g9
sg10
F86.0
sg11
VWeddell
p156
sg13
Nsg14
g15
sg16
g17
sg18
g19
sg20
g9
sg21
g152
sg22
Nsg23
g2
(g24
g4
Ntp157
Rp158
(dp159
g28
F-12.577195999999958
sg29
g30
sg31
F130.95022600000004
sbsg32
g33
((lp160
g35
atp161
Rp162
sg38
g9
sg39
I2012
sbsVAUS0000405
p163
g2
(g3
g4
Ntp164
Rp165
(dp166
g8
g9
sg10
F1.7
sg11
VKalbarri Wind Farm
p167
sg13
Nsg14
g15
sg16
g17
sg18
g19
sg20
g9
sg21
g163
sg22
Nsg23
g2
(g24
g4
Ntp168
Rp169
(dp170
g28
F-27.899498532999928
sg29
g30
sg31
F114.19455166500006
sbsg32
g33
((lp171
VWind
p172
atp173
Rp174
sg38
g9
sg39
I2012
sbsVAUS0000404
p175
g2
(g3
g4
Ntp176
Rp177
(dp178
g8
g9
sg10
F0.6
sg11
VKooragang
p179
sg13
Nsg14
g15
sg16
g17
sg18
g19
sg20
g9
sg21
g175
sg22
Nsg23
g2
(g24
g4
Ntp180
Rp181
(dp182
g28
F-32.87728143199996
sg29
g30
sg31
F151.74776777500006
sbsg32
g33
((lp183
g172
atp184
Rp185
sg38
g9
sg39
I2012
sbsVAUS0000407
p186
g2
(g3
g4
Ntp187
Rp188
(dp189
g8
g9
sg10
F10.8
sg11
VSavannah Nickel Mine
p190
sg13
Nsg14
g15
sg16
g17
sg18
g19
sg20
g9
sg21
g186
sg22
Nsg23
g2
(g24
g4
Ntp191
Rp192
(dp193
g28
F-17.363095358999942
sg29
g30
sg31
F128.03307638
sbsg32
g33
((lp194
VOil
p195
atp196
Rp197
sg38
g9
sg39
I2012
sbsVAUS0000406
p198
g2
(g3
g4
Ntp199
Rp200
(dp201
g8
g9
sg10
F13.7
sg11
VWodgina
p202
sg13
Nsg14
g15
sg16
g17
sg18
g19
sg20
g9
sg21
g198
sg22
Nsg23
g2
(g24
g4
Ntp203
Rp204
(dp205
g28
F-21.173883386999933
sg29
g30
sg31
F118.67472103500006
sbsg32
g33
((lp206
g35
atp207
Rp208
sg38
g9
sg39
I2012
sbsVAUS0000401
p209
g2
(g3
g4
Ntp210
Rp211
(dp212
g8
g9
sg10
F2.8
sg11
VCharlestown Square
p213
sg13
Nsg14
g15
sg16
g17
sg18
g19
sg20
g9
sg21
g209
sg22
Nsg23
g2
(g24
g4
Ntp214
Rp215
(dp216
g28
F-32.96425537599998
sg29
g30
sg31
F151.69361251600003
sbsg32
g33
((lp217
g35
atp218
Rp219
sg38
g9
sg39
I2012
sbsVAUS0000400
p220
g2
(g3
g4
Ntp221
Rp222
(dp223
g8
g9
sg10
F1.0
sg11
VBelconnen
p224
sg13
Nsg14
g15
sg16
g17
sg18
g19
sg20
g9
sg21
g220
sg22
Nsg23
g2
(g24
g4
Ntp225
Rp226
(dp227
g28
F-35.21418943599997
sg29
g30
sg31
F148.9872183870001
sbsg32
g33
((lp228
VWaste
p229
atp230
Rp231
sg38
g9
sg39
I2012
sbsVAUS0000379
p232
g2
(g3
g4
Ntp233
Rp234
(dp235
g8
g9
sg10
F0.8
sg11
VArdyaloon
p236
sg13
Nsg14
g15
sg16
g17
sg18
g19
sg20
g9
sg21
g232
sg22
Nsg23
g2
(g24
g4
Ntp237
Rp238
(dp239
g28
F-16.44441722099998
sg29
g30
sg31
F123.04137384300009
sbsg32
g33
((lp240
g195
atp241
Rp242
sg38
g9
sg39
I2012
sbsVAUS0000378
p243
g2
(g3
g4
Ntp244
Rp245
(dp246
g8
g9
sg10
F0.7
sg11
VKalumburu
p247
sg13
Nsg14
g15
sg16
g17
sg18
g19
sg20
g9
sg21
g243
sg22
Nsg23
g2
(g24
g4
Ntp248
Rp249
(dp250
g28
F-14.293855534999977
sg29
g30
sg31
F126.64395522900008
sbsg32
g33
((lp251
g195
atp252
Rp253
sg38
g9
sg39
I2012
sbsVAUS0000377
p254
g2
(g3
g4
Ntp255
Rp256
(dp257
g8
g9
sg10
F0.5
sg11
VTatiara Meats
p258
sg13
Nsg14
g15
sg16
g17
sg18
g19
sg20
g9
sg21
g254
sg22
Nsg23
g2
(g24
g4
Ntp259
Rp260
(dp261
g28
F-36.32655638699998
sg29
g30
sg31
F140.73676935800006
sbsg32
g33
((lp262
g195
atp263
Rp264
sg38
g9
sg39
I2012
sbsVAUS0000140
p265
g2
(g3
g4
Ntp266
Rp267
(dp268
g8
g9
sg10
F32.0
sg11
VWilmot
p269
sg13
Nsg14
g15
sg16
g17
sg18
g19
sg20
g9
sg21
g265
sg22
Nsg23
g2
(g24
g4
Ntp270
Rp271
(dp272
g28
F-41.483311999999955
sg29
g30
sg31
F146.12507300000004
sbsg32
g33
((lp273
g60
atp274
Rp275
sg38
g9
sg39
I2012
sbsVAUS0000375
p276
g2
(g3
g4
Ntp277
Rp278
(dp279
g8
g9
sg10
F13.0
sg11
VMulgrave
p280
sg13
Nsg14
g15
sg16
g17
sg18
g19
sg20
g9
sg21
g276
sg22
Nsg23
g2
(g24
g4
Ntp281
Rp282
(dp283
g28
F-17.09316550099993
sg29
g30
sg31
F145.78871140400008
sbsg32
g33
((lp284
VBiomass
p285
atp286
Rp287
sg38
g9
sg39
I2012
sbsVAUS0000374
p288
g2
(g3
g4
Ntp289
Rp290
(dp291
g8
g9
sg10
F20.0
sg11
VSouth Johnstone
p292
sg13
Nsg14
g15
sg16
g17
sg18
g19
sg20
g9
sg21
g288
sg22
Nsg23
g2
(g24
g4
Ntp293
Rp294
(dp295
g28
F-17.605685131999962
sg29
g30
sg31
F145.99100041600002
sbsg32
g33
((lp296
g285
atp297
Rp298
sg38
g9
sg39
I2012
sbsVAUS0000373
p299
g2
(g3
g4
Ntp300
Rp301
(dp302
g8
g9
sg10
F7.0
sg11
VTableland
p303
sg13
Nsg14
g15
sg16
g17
sg18
g19
sg20
g9
sg21
g299
sg22
Nsg23
g2
(g24
g4
Ntp304
Rp305
(dp306
g28
F-17.119292186999928
sg29
g30
sg31
F145.34496992100003
sbsg32
g33
((lp307
g285
atp308
Rp309
sg38
g9
sg39
I2012
sbsVAUS0000372
p310
g2
(g3
g4
Ntp311
Rp312
(dp313
g8
g9
sg10
F8.0
sg11
VExmouth
p314
sg13
Nsg14
g15
sg16
g17
sg18
g19
sg20
g9
sg21
g310
sg22
Nsg23
g2
(g24
g4
Ntp315
Rp316
(dp317
g28
F-21.946457949999967
sg29
g30
sg31
F114.12499812400006
sbsg32
g33
((lp318
g35
atp319
Rp320
sg38
g9
sg39
I2012
sbsVAUS0000371
p321
g2
(g3
g4
Ntp322
Rp323
(dp324
g8
g9
sg10
F1.5
sg11
VLaverton
p325
sg13
Nsg14
g15
sg16
g17
sg18
g19
sg20
g9
sg21
g321
sg22
Nsg23
g2
(g24
g4
Ntp326
Rp327
(dp328
g28
F-28.62162366399997
sg29
g30
sg31
F122.39646804400002
sbsg32
g33
((lp329
g195
atp330
Rp331
sg38
g9
sg39
I2012
sbsVAUS0000268
p332
g2
(g3
g4
Ntp333
Rp334
(dp335
g8
g9
sg10
F30.0
sg11
VBroadwater
p336
sg13
Nsg14
g15
sg16
g17
sg18
g19
sg20
g9
sg21
g332
sg22
Nsg23
g2
(g24
g4
Ntp337
Rp338
(dp339
g28
F-29.01182799999998
sg29
g30
sg31
F153.43348100000003
sbsg32
g33
((lp340
g285
atp341
Rp342
sg38
g9
sg39
I2012
sbsVAUS0000179
p343
g2
(g3
g4
Ntp344
Rp345
(dp346
g8
g9
sg10
F190.0
sg11
VCollinsville
p347
sg13
Nsg14
g15
sg16
g17
sg18
g19
sg20
g9
sg21
g343
sg22
Nsg23
g2
(g24
g4
Ntp348
Rp349
(dp350
g28
F-20.544681999999966
sg29
g30
sg31
F147.80488700000012
sbsg32
g33
((lp351
g72
atp352
Rp353
sg38
g9
sg39
I2012
sbsVAUS0000178
p354
g2
(g3
g4
Ntp355
Rp356
(dp357
g8
g9
sg10
F120.0
sg11
VCallide A
p358
sg13
Nsg14
g15
sg16
g17
sg18
g19
sg20
g9
sg21
g354
sg22
Nsg23
g2
(g24
g4
Ntp359
Rp360
(dp361
g28
F-24.33402499999994
sg29
g30
sg31
F150.6279730000001
sbsg32
g33
((lp362
g72
atp363
Rp364
sg38
g9
sg39
I2012
sbsVAUS0000274
p365
g2
(g3
g4
Ntp366
Rp367
(dp368
g8
g9
sg10
F20.0
sg11
VGadara
p369
sg13
Nsg14
g15
sg16
g17
sg18
g19
sg20
g9
sg21
g365
sg22
Nsg23
g2
(g24
g4
Ntp370
Rp371
(dp372
g28
F-35.295932999999934
sg29
g30
sg31
F148.13705200000004
sbsg32
g33
((lp373
g285
atp374
Rp375
sg38
g9
sg39
I2012
sbsVAUS0000275
p376
g2
(g3
g4
Ntp377
Rp378
(dp379
g8
g9
sg10
F5.0
sg11
VGlenbawn
p380
sg13
Nsg14
g15
sg16
g17
sg18
g19
sg20
g9
sg21
g376
sg22
Nsg23
g2
(g24
g4
Ntp381
Rp382
(dp383
g28
F-32.10966099999996
sg29
g30
sg31
F150.9981540000001
sbsg32
g33
((lp384
g60
atp385
Rp386
sg38
g9
sg39
I2012
sbsVAUS0000272
p387
g2
(g3
g4
Ntp388
Rp389
(dp390
g8
g9
sg10
F3.9
sg11
VEarthPower Biomass Plant
p391
sg13
Nsg14
g15
sg16
g17
sg18
g19
sg20
g9
sg21
g387
sg22
Nsg23
g2
(g24
g4
Ntp392
Rp393
(dp394
g28
F-33.82037299999996
sg29
g30
sg31
F151.04203700000005
sbsg32
g33
((lp395
g229
atp396
Rp397
sg38
g9
sg39
I2012
sbsVAUS0000273
p398
g2
(g3
g4
Ntp399
Rp400
(dp401
g8
g9
sg10
F42.0
sg11
VEraring
p402
sg13
Nsg14
g15
sg16
g17
sg18
g19
sg20
g9
sg21
g398
sg22
Nsg23
g2
(g24
g4
Ntp403
Rp404
(dp405
g28
F-33.06174875299996
sg29
g30
sg31
F151.5223300680001
sbsg32
g33
((lp406
g195
atp407
Rp408
sg38
g9
sg39
I2012
sbsVAUS0000270
p409
g2
(g3
g4
Ntp410
Rp411
(dp412
g8
g9
sg10
F300.0
sg11
VCapral (Aluminium Smelter)
p413
sg13
Nsg14
g15
sg16
g17
sg18
g19
sg20
g9
sg21
g409
sg22
Nsg23
g2
(g24
g4
Ntp414
Rp415
(dp416
g28
F-32.78972299999998
sg29
g30
sg31
F151.48130500000002
sbsg32
g33
((lp417
g35
atp418
Rp419
sg38
g9
sg39
I2012
sbsVAUS0000271
p420
g2
(g3
g4
Ntp421
Rp422
(dp423
g8
g9
sg10
F724.0
sg11
VColongra
p424
sg13
Nsg14
g15
sg16
g17
sg18
g19
sg20
g9
sg21
g420
sg22
Nsg23
g2
(g24
g4
Ntp425
Rp426
(dp427
g28
F-33.20986899999997
sg29
g30
sg31
F151.54478500000005
sbsg32
g33
((lp428
g35
atp429
Rp430
sg38
g9
sg39
I2012
sbsVAUS0000171
p431
g2
(g3
g4
Ntp432
Rp433
(dp434
g8
g9
sg10
F1400.0
sg11
VTarong
p435
sg13
Nsg14
g15
sg16
g17
sg18
g19
sg20
g9
sg21
g431
sg22
Nsg23
g2
(g24
g4
Ntp436
Rp437
(dp438
g28
F-26.78235799999993
sg29
g30
sg31
F151.91527300000007
sbsg32
g33
((lp439
g72
atp440
Rp441
sg38
g9
sg39
I2012
sbsVAUS0000170
p442
g2
(g3
g4
Ntp443
Rp444
(dp445
g8
g9
sg10
F450.0
sg11
VTarong North
p446
sg13
Nsg14
g15
sg16
g17
sg18
g19
sg20
g9
sg21
g442
sg22
Nsg23
g2
(g24
g4
Ntp447
Rp448
(dp449
g28
F-26.775762999999984
sg29
g30
sg31
F151.91460200000006
sbsg32
g33
((lp450
g72
atp451
Rp452
sg38
g9
sg39
I2012
sbsVAUS0000173
p453
g2
(g3
g4
Ntp454
Rp455
(dp456
g8
g9
sg10
F154.0
sg11
VYarwun
p457
sg13
Nsg14
g15
sg16
g17
sg18
g19
sg20
g9
sg21
g453
sg22
Nsg23
g2
(g24
g4
Ntp458
Rp459
(dp460
g28
F-23.830644999999947
sg29
g30
sg31
F151.1519300000001
sbsg32
g33
((lp461
g35
atp462
Rp463
sg38
g9
sg39
I2012
sbsVAUS0000172
p464
g2
(g3
g4
Ntp465
Rp466
(dp467
g8
g9
sg10
F244.0
sg11
VYabulu
p468
sg13
Nsg14
g15
sg16
g17
sg18
g19
sg20
g9
sg21
g464
sg22
Nsg23
g2
(g24
g4
Ntp469
Rp470
(dp471
g28
F-19.201055999999937
sg29
g30
sg31
F146.6187070000001
sbsg32
g33
((lp472
g35
atp473
Rp474
sg38
g9
sg39
I2012
sbsVAUS0000175
p475
g2
(g3
g4
Ntp476
Rp477
(dp478
g8
g9
sg10
F24.0
sg11
VVictoria Sugar Mill
p479
sg13
Nsg14
g15
sg16
g17
sg18
g19
sg20
g9
sg21
g475
sg22
Nsg23
g2
(g24
g4
Ntp480
Rp481
(dp482
g28
F-18.650803999999937
sg29
g30
sg31
F146.20162700000003
sbsg32
g33
((lp483
g285
atp484
Rp485
sg38
g9
sg39
I2012
sbsVAUS0000174
p486
g2
(g3
g4
Ntp487
Rp488
(dp489
g8
g9
sg10
F8.0
sg11
VMacknade Sugar Mill
p490
sg13
Nsg14
g15
sg16
g17
sg18
g19
sg20
g9
sg21
g486
sg22
Nsg23
g2
(g24
g4
Ntp491
Rp492
(dp493
g28
F-18.589042999999947
sg29
g30
sg31
F146.25796100000002
sbsg32
g33
((lp494
g285
atp495
Rp496
sg38
g9
sg39
I2012
sbsVAUS0000278
p497
g2
(g3
g4
Ntp498
Rp499
(dp500
g8
g9
sg10
F50.0
sg11
VHunter Valley
p501
sg13
Nsg14
g15
sg16
g17
sg18
g19
sg20
g9
sg21
g497
sg22
Nsg23
g2
(g24
g4
Ntp502
Rp503
(dp504
g28
F-32.38925299999994
sg29
g30
sg31
F150.96639600000003
sbsg32
g33
((lp505
g35
atp506
Rp507
sg38
g9
sg39
I2012
sbsVAUS0000279
p508
g2
(g3
g4
Ntp509
Rp510
(dp511
g8
g9
sg10
F160.0
sg11
VKangaroo Valley (Shoalhaven Scheme)
p512
sg13
Nsg14
g15
sg16
g17
sg18
g19
sg20
g9
sg21
g508
sg22
Nsg23
g2
(g24
g4
Ntp513
Rp514
(dp515
g28
F-34.722969999999975
sg29
g30
sg31
F150.47953000000007
sbsg32
g33
((lp516
g60
atp517
Rp518
sg38
g9
sg39
I2012
sbsVAUS0000308
p519
g2
(g3
g4
Ntp520
Rp521
(dp522
g8
g9
sg10
F54.5
sg11
VMaryvale Mill
p523
sg13
Nsg14
g15
sg16
g17
sg18
g19
sg20
g9
sg21
g519
sg22
Nsg23
g2
(g24
g4
Ntp524
Rp525
(dp526
g28
F-38.18089277399997
sg29
g30
sg31
F146.44794631700006
sbsg32
g33
((lp527
g285
atp528
Rp529
sg38
g9
sg39
I2012
sbsVAUS0000309
p530
g2
(g3
g4
Ntp531
Rp532
(dp533
g8
g9
sg10
F13.8
sg11
VGrasmere Wind Farm (Albany stage II)
p534
sg13
Nsg14
g15
sg16
g17
sg18
g19
sg20
g9
sg21
g530
sg22
Nsg23
g2
(g24
g4
Ntp535
Rp536
(dp537
g28
F-35.05065051599996
sg29
g30
sg31
F117.76376090400004
sbsg32
g33
((lp538
g172
atp539
Rp540
sg38
g9
sg39
I2012
sbsVAUS0000302
p541
g2
(g3
g4
Ntp542
Rp543
(dp544
g8
g9
sg10
F16.0
sg11
VWilga Park
p545
sg13
Nsg14
g15
sg16
g17
sg18
g19
sg20
g9
sg21
g541
sg22
Nsg23
g2
(g24
g4
Ntp546
Rp547
(dp548
g28
F-30.363436999999976
sg29
g30
sg31
F149.6771530000001
sbsg32
g33
((lp549
g35
atp550
Rp551
sg38
g9
sg39
I2012
sbsVAUS0000303
p552
g2
(g3
g4
Ntp553
Rp554
(dp555
g8
g9
sg10
F60.0
sg11
VGuthega
p556
sg13
Nsg14
g15
sg16
g17
sg18
g19
sg20
g9
sg21
g552
sg22
Nsg23
g2
(g24
g4
Ntp557
Rp558
(dp559
g28
F-36.350097999999946
sg29
g30
sg31
F148.41352800000004
sbsg32
g33
((lp560
g60
atp561
Rp562
sg38
g9
sg39
I2012
sbsVAUS0000300
p563
g2
(g3
g4
Ntp564
Rp565
(dp566
g8
g9
sg10
F18.0
sg11
VBurrendong
p567
sg13
Nsg14
g15
sg16
g17
sg18
g19
sg20
g9
sg21
g563
sg22
Nsg23
g2
(g24
g4
Ntp568
Rp569
(dp570
g28
F-32.66461599999997
sg29
g30
sg31
F149.1079860000001
sbsg32
g33
((lp571
g60
atp572
Rp573
sg38
g9
sg39
I2012
sbsVAUS0000301
p574
g2
(g3
g4
Ntp575
Rp576
(dp577
g8
g9
sg10
F20.0
sg11
VCopeton
p578
sg13
Nsg14
g15
sg16
g17
sg18
g19
sg20
g9
sg21
g574
sg22
Nsg23
g2
(g24
g4
Ntp579
Rp580
(dp581
g28
F-29.91019799999998
sg29
g30
sg31
F150.9234620000001
sbsg32
g33
((lp582
g60
atp583
Rp584
sg38
g9
sg39
I2012
sbsVAUS0000306
p585
g2
(g3
g4
Ntp586
Rp587
(dp588
g8
g9
sg10
F2820.0
sg11
VEraring
p589
sg13
Nsg14
g15
sg16
g17
sg18
g19
sg20
g9
sg21
g585
sg22
Nsg23
g2
(g24
g4
Ntp590
Rp591
(dp592
g28
F-33.062074923999944
sg29
g30
sg31
F151.52064791500004
sbsg32
g33
((lp593
g72
atp594
Rp595
sg38
g9
sg39
I2012
sbsVAUS0000307
p596
g2
(g3
g4
Ntp597
Rp598
(dp599
g8
g9
sg10
F206.0
sg11
VCollgar Wind Farm
p600
sg13
Nsg14
g15
sg16
g17
sg18
g19
sg20
g9
sg21
g596
sg22
Nsg23
g2
(g24
g4
Ntp601
Rp602
(dp603
g28
F-31.50015284699998
sg29
g30
sg31
F118.46325039700002
sbsg32
g33
((lp604
g172
atp605
Rp606
sg38
g9
sg39
I2012
sbsVAUS0000304
p607
g2
(g3
g4
Ntp608
Rp609
(dp610
g8
g9
sg10
F6.5
sg11
VLake Keepit
p611
sg13
Nsg14
g15
sg16
g17
sg18
g19
sg20
g9
sg21
g607
sg22
Nsg23
g2
(g24
g4
Ntp612
Rp613
(dp614
g28
F-30.87918899999994
sg29
g30
sg31
F150.49139900000011
sbsg32
g33
((lp615
g60
atp616
Rp617
sg38
g9
sg39
I2012
sbsVAUS0000305
p618
g2
(g3
g4
Ntp619
Rp620
(dp621
g8
g9
sg10
F50.0
sg11
VBroken Hill
p622
sg13
Nsg14
g15
sg16
g17
sg18
g19
sg20
g9
sg21
g618
sg22
Nsg23
g2
(g24
g4
Ntp623
Rp624
(dp625
g28
F-31.98629599999998
sg29
g30
sg31
F141.42033400000003
sbsg32
g33
((lp626
g35
atp627
Rp628
sg38
g9
sg39
I2012
sbsVAUS0000001
p629
g2
(g3
g4
Ntp630
Rp631
(dp632
g8
g9
sg10
F12.0
sg11
VWonthaggi Wind Farm
p633
sg13
Nsg14
g15
sg16
g17
sg18
g19
sg20
g9
sg21
g629
sg22
Nsg23
g2
(g24
g4
Ntp634
Rp635
(dp636
g28
F-38.60373599999997
sg29
g30
sg31
F145.54616700000008
sbsg32
g33
((lp637
g172
atp638
Rp639
sg38
g9
sg39
I2012
sbsVAUS0000003
p640
g2
(g3
g4
Ntp641
Rp642
(dp643
g8
g9
sg10
F30.0
sg11
VCullerin Range Wind Farm
p644
sg13
Nsg14
g15
sg16
g17
sg18
g19
sg20
g9
sg21
g640
sg22
Nsg23
g2
(g24
g4
Ntp645
Rp646
(dp647
g28
F-34.80498161999998
sg29
g30
sg31
F149.4001295820001
sbsg32
g33
((lp648
g172
atp649
Rp650
sg38
g9
sg39
I2012
sbsVAUS0000002
p651
g2
(g3
g4
Ntp652
Rp653
(dp654
g8
g9
sg10
F89.1
sg11
VWalkaway Wind Farm
p655
sg13
Nsg14
g15
sg16
g17
sg18
g19
sg20
g9
sg21
g651
sg22
Nsg23
g2
(g24
g4
Ntp656
Rp657
(dp658
g28
F-28.92285099999998
sg29
g30
sg31
F114.92815850000011
sbsg32
g33
((lp659
g172
atp660
Rp661
sg38
g9
sg39
I2012
sbsVAUS0000005
p662
g2
(g3
g4
Ntp663
Rp664
(dp665
g8
g9
sg10
F98.7
sg11
VSnowtown Wind Farm Stage 1
p666
sg13
Nsg14
g15
sg16
g17
sg18
g19
sg20
g9
sg21
g662
sg22
Nsg23
g2
(g24
g4
Ntp667
Rp668
(dp669
g28
F-33.72151999999994
sg29
g30
sg31
F138.14708800000005
sbsg32
g33
((lp670
g172
atp671
Rp672
sg38
g9
sg39
I2012
sbsVAUS0000004
p673
g2
(g3
g4
Ntp674
Rp675
(dp676
g8
g9
sg10
F90.75
sg11
VWattle Point Wind Farm
p677
sg13
Nsg14
g15
sg16
g17
sg18
g19
sg20
g9
sg21
g673
sg22
Nsg23
g2
(g24
g4
Ntp678
Rp679
(dp680
g28
F-35.12135499999994
sg29
g30
sg31
F137.71661800000004
sbsg32
g33
((lp681
g172
atp682
Rp683
sg38
g9
sg39
I2012
sbsVAUS0000007
p684
g2
(g3
g4
Ntp685
Rp686
(dp687
g8
g9
sg10
F58.0
sg11
VCape Bridgewater Wind Farm
p688
sg13
Nsg14
g15
sg16
g17
sg18
g19
sg20
g9
sg21
g684
sg22
Nsg23
g2
(g24
g4
Ntp689
Rp690
(dp691
g28
F-38.357654999999966
sg29
g30
sg31
F141.3850440000001
sbsg32
g33
((lp692
g172
atp693
Rp694
sg38
g9
sg39
I2012
sbsVAUS0000006
p695
g2
(g3
g4
Ntp696
Rp697
(dp698
g8
g9
sg10
F52.5
sg11
VChallicum Hills Wind Farm
p699
sg13
Nsg14
g15
sg16
g17
sg18
g19
sg20
g9
sg21
g695
sg22
Nsg23
g2
(g24
g4
Ntp700
Rp701
(dp702
g28
F-37.38978902399998
sg29
g30
sg31
F143.11397110200005
sbsg32
g33
((lp703
g172
atp704
Rp705
sg38
g9
sg39
I2012
sbsVAUS0000009
p706
g2
(g3
g4
Ntp707
Rp708
(dp709
g8
g9
sg10
F65.0
sg11
VBluff Point (Woolnorth) Wind Farm
p710
sg13
Nsg14
g15
sg16
g17
sg18
g19
sg20
g9
sg21
g706
sg22
Nsg23
g2
(g24
g4
Ntp711
Rp712
(dp713
g28
F-40.720673999999974
sg29
g30
sg31
F144.6869190000001
sbsg32
g33
((lp714
g172
atp715
Rp716
sg38
g9
sg39
I2012
sbsVAUS0000008
p717
g2
(g3
g4
Ntp718
Rp719
(dp720
g8
g9
sg10
F55.0
sg11
VBarcaldine (Len Wishaw)
p721
sg13
Nsg14
g15
sg16
g17
sg18
g19
sg20
g9
sg21
g717
sg22
Nsg23
g2
(g24
g4
Ntp722
Rp723
(dp724
g28
F-23.55245199999996
sg29
g30
sg31
F145.31418600000006
sbsg32
g33
((lp725
g35
atp726
Rp727
sg38
g9
sg39
I2012
sbsVAUS0000119
p728
g2
(g3
g4
Ntp729
Rp730
(dp731
g8
g9
sg10
F90.0
sg11
VTarraleah
p732
sg13
Nsg14
g15
sg16
g17
sg18
g19
sg20
g9
sg21
g728
sg22
Nsg23
g2
(g24
g4
Ntp733
Rp734
(dp735
g28
F-42.301207999999974
sg29
g30
sg31
F146.45715600000005
sbsg32
g33
((lp736
g60
atp737
Rp738
sg38
g9
sg39
I2012
sbsVAUS0000029
p739
g2
(g3
g4
Ntp740
Rp741
(dp742
g8
g9
sg10
F4.3
sg11
VWoodlawn Bioreactor
p743
sg13
Nsg14
g15
sg16
g17
sg18
g19
sg20
g9
sg21
g739
sg22
Nsg23
g2
(g24
g4
Ntp744
Rp745
(dp746
g28
F-35.05900245999993
sg29
g30
sg31
F149.5769049710001
sbsg32
g33
((lp747
g229
atp748
Rp749
sg38
g9
sg39
I2012
sbsVAUS0000135
p750
g2
(g3
g4
Ntp751
Rp752
(dp753
g8
g9
sg10
F46.0
sg11
VFisher
p754
sg13
Nsg14
g15
sg16
g17
sg18
g19
sg20
g9
sg21
g750
sg22
Nsg23
g2
(g24
g4
Ntp755
Rp756
(dp757
g28
F-41.673239999999964
sg29
g30
sg31
F146.26851800000009
sbsg32
g33
((lp758
g60
atp759
Rp760
sg38
g9
sg39
I2012
sbsVAUS0000134
p761
g2
(g3
g4
Ntp762
Rp763
(dp764
g8
g9
sg10
F143.0
sg11
VJohn Butters
p765
sg13
Nsg14
g15
sg16
g17
sg18
g19
sg20
g9
sg21
g761
sg22
Nsg23
g2
(g24
g4
Ntp766
Rp767
(dp768
g28
F-42.154834999999935
sg29
g30
sg31
F145.53447700000004
sbsg32
g33
((lp769
g60
atp770
Rp771
sg38
g9
sg39
I2012
sbsVAUS0000137
p772
g2
(g3
g4
Ntp773
Rp774
(dp775
g8
g9
sg10
F79.9
sg11
VBastyan
p776
sg13
Nsg14
g15
sg16
g17
sg18
g19
sg20
g9
sg21
g772
sg22
Nsg23
g2
(g24
g4
Ntp777
Rp778
(dp779
g28
F-41.735982999999976
sg29
g30
sg31
F145.5321120000001
sbsg32
g33
((lp780
g60
atp781
Rp782
sg38
g9
sg39
I2012
sbsVAUS0000136
p783
g2
(g3
g4
Ntp784
Rp785
(dp786
g8
g9
sg10
F63.0
sg11
VDevils Gate
p787
sg13
Nsg14
g15
sg16
g17
sg18
g19
sg20
g9
sg21
g783
sg22
Nsg23
g2
(g24
g4
Ntp788
Rp789
(dp790
g28
F-41.35046699999998
sg29
g30
sg31
F146.26316700000007
sbsg32
g33
((lp791
g60
atp792
Rp793
sg38
g9
sg39
I2012
sbsVAUS0000131
p794
g2
(g3
g4
Ntp795
Rp796
(dp797
g8
g9
sg10
F3.2
sg11
VLower Lake Margaret
p798
sg13
Nsg14
g15
sg16
g17
sg18
g19
sg20
g9
sg21
g794
sg22
Nsg23
g2
(g24
g4
Ntp799
Rp800
(dp801
g28
F-42.01888399999996
sg29
g30
sg31
F145.54249800000002
sbsg32
g33
((lp802
g60
atp803
Rp804
sg38
g9
sg39
I2012
sbsVAUS0000130
p805
g2
(g3
g4
Ntp806
Rp807
(dp808
g8
g9
sg10
F30.0
sg11
VPaloona
p809
sg13
Nsg14
g15
sg16
g17
sg18
g19
sg20
g9
sg21
g805
sg22
Nsg23
g2
(g24
g4
Ntp810
Rp811
(dp812
g28
F-41.28261599999996
sg29
g30
sg31
F146.24896400000011
sbsg32
g33
((lp813
g60
atp814
Rp815
sg38
g9
sg39
I2012
sbsVAUS0000133
p816
g2
(g3
g4
Ntp817
Rp818
(dp819
g8
g9
sg10
F8.4
sg11
VUpper Lake Margaret
p820
sg13
Nsg14
g15
sg16
g17
sg18
g19
sg20
g9
sg21
g816
sg22
Nsg23
g2
(g24
g4
Ntp821
Rp822
(dp823
g28
F-42.00456699999995
sg29
g30
sg31
F145.54369900000006
sbsg32
g33
((lp824
g60
atp825
Rp826
sg38
g9
sg39
I2012
sbsVAUS0000132
p827
g2
(g3
g4
Ntp828
Rp829
(dp830
g8
g9
sg10
F54.0
sg11
VLemonthyme
p831
sg13
Nsg14
g15
sg16
g17
sg18
g19
sg20
g9
sg21
g827
sg22
Nsg23
g2
(g24
g4
Ntp832
Rp833
(dp834
g28
F-41.60376299999996
sg29
g30
sg31
F146.13902200000007
sbsg32
g33
((lp835
g60
atp836
Rp837
sg38
g9
sg39
I2012
sbsVAUS0000139
p838
g2
(g3
g4
Ntp839
Rp840
(dp841
g8
g9
sg10
F120.0
sg11
VBell Bay (Bell Bay Three)
p842
sg13
Nsg14
g15
sg16
g17
sg18
g19
sg20
g9
sg21
g838
sg22
Nsg23
g2
(g24
g4
Ntp843
Rp844
(dp845
g28
F-41.14289599999995
sg29
g30
sg31
F146.90299800000003
sbsg32
g33
((lp846
g35
atp847
Rp848
sg38
g9
sg39
I2012
sbsVAUS0000138
p849
g2
(g3
g4
Ntp850
Rp851
(dp852
g8
g9
sg10
F390.0
sg11
VTamar Valley
p853
sg13
Nsg14
g15
sg16
g17
sg18
g19
sg20
g9
sg21
g849
sg22
Nsg23
g2
(g24
g4
Ntp854
Rp855
(dp856
g28
F-41.140124999999955
sg29
g30
sg31
F146.90363600000012
sbsg32
g33
((lp857
g35
atp858
Rp859
sg38
g9
sg39
I2012
sbsVAUS0000023
p860
g2
(g3
g4
Ntp861
Rp862
(dp863
g8
g9
sg10
F71.4
sg11
VHallett 2 Hallet Hill  Wind Farm
p864
sg13
Nsg14
g15
sg16
g17
sg18
g19
sg20
g9
sg21
g860
sg22
Nsg23
g2
(g24
g4
Ntp865
Rp866
(dp867
g28
F-33.52260243499995
sg29
g30
sg31
F138.85515976300007
sbsg32
g33
((lp868
g172
atp869
Rp870
sg38
g9
sg39
I2012
sbsVAUS0000022
p871
g2
(g3
g4
Ntp872
Rp873
(dp874
g8
g9
sg10
F94.5
sg11
VHallett 1 Brown Hill  Wind Farm
p875
sg13
Nsg14
g15
sg16
g17
sg18
g19
sg20
g9
sg21
g871
sg22
Nsg23
g2
(g24
g4
Ntp876
Rp877
(dp878
g28
F-33.33973357899998
sg29
g30
sg31
F138.73233165800002
sbsg32
g33
((lp879
g172
atp880
Rp881
sg38
g9
sg39
I2012
sbsVAUS0000474
p882
g2
(g3
g4
Ntp883
Rp884
(dp885
g8
g9
sg10
F55.0
sg11
VMumbida Wind Farm
p886
sg13
Nsg14
g15
sg16
g17
sg18
g19
sg20
g9
sg21
g882
sg22
Nsg23
g2
(g24
g4
Ntp887
Rp888
(dp889
g28
F-28.991804877999982
sg29
g30
sg31
F114.95988782900008
sbsg32
g33
((lp890
g172
atp891
Rp892
sg38
g9
sg39
I2014
sbsVAUS0000475
p893
g2
(g3
g4
Ntp894
Rp895
(dp896
g8
g9
sg10
F102.0
sg11
VNyngan Solar Plant
p897
sg13
Nsg14
g15
sg16
g17
sg18
g19
sg20
g9
sg21
g893
sg22
Nsg23
g2
(g24
g4
Ntp898
Rp899
(dp900
g28
F-31.552740360999962
sg29
g30
sg31
F147.08535195000002
sbsg32
g33
((lp901
VSolar
p902
atp903
Rp904
sg38
g9
sg39
I2016
sbsVAUS0000476
p905
g2
(g3
g4
Ntp906
Rp907
(dp908
g8
g9
sg10
F53.0
sg11
VBroken Hill Solar Plant
p909
sg13
Nsg14
g15
sg16
g17
sg18
g19
sg20
g9
sg21
g905
sg22
Nsg23
g2
(g24
g4
Ntp910
Rp911
(dp912
g28
F-31.986707426999942
sg29
g30
sg31
F141.3915455120001
sbsg32
g33
((lp913
g902
atp914
Rp915
sg38
g9
sg39
I2016
sbsVAUS0000470
p916
g2
(g3
g4
Ntp917
Rp918
(dp919
g8
g9
sg10
F0.19
sg11
VHermannsburg
p920
sg13
Nsg14
g15
sg16
g17
sg18
g19
sg20
g9
sg21
g916
sg22
Nsg23
g2
(g24
g4
Ntp921
Rp922
(dp923
g28
F-23.93736457899996
sg29
g30
sg31
F132.77192821900007
sbsg32
g33
((lp924
g902
atp925
Rp926
sg38
g9
sg39
I2014
sbsVAUS0000471
p927
g2
(g3
g4
Ntp928
Rp929
(dp930
g8
g9
sg10
F0.3
sg11
VBallarat Solar Park
p931
sg13
Nsg14
g15
sg16
g17
sg18
g19
sg20
g9
sg21
g927
sg22
Nsg23
g2
(g24
g4
Ntp932
Rp933
(dp934
g28
F-37.51437136499993
sg29
g30
sg31
F143.78547291200005
sbsg32
g33
((lp935
g902
atp936
Rp937
sg38
g9
sg39
I2014
sbsVAUS0000472
p938
g2
(g3
g4
Ntp939
Rp940
(dp941
g8
g9
sg10
F9.3
sg11
VLiddell Solar Thermal
p942
sg13
Nsg14
g15
sg16
g17
sg18
g19
sg20
g9
sg21
g938
sg22
Nsg23
g2
(g24
g4
Ntp943
Rp944
(dp945
g28
F-32.376069144999974
sg29
g30
sg31
F150.97966729400002
sbsg32
g33
((lp946
g902
atp947
Rp948
sg38
g9
sg39
I2014
sbsVAUS0000473
p949
g2
(g3
g4
Ntp950
Rp951
(dp952
g8
g9
sg10
F10.0
sg11
VGreenough River Solar Farm
p953
sg13
Nsg14
g15
sg16
g17
sg18
g19
sg20
g9
sg21
g949
sg22
Nsg23
g2
(g24
g4
Ntp954
Rp955
(dp956
g28
F-28.90431806199996
sg29
g30
sg31
F115.11193748500011
sbsg32
g33
((lp957
g902
atp958
Rp959
sg38
g9
sg39
I2014
sbsVAUS0000229
p960
g2
(g3
g4
Ntp961
Rp962
(dp963
g8
g9
sg10
F153.0
sg11
VParaburdoo
p964
sg13
Nsg14
g15
sg16
g17
sg18
g19
sg20
g9
sg21
g960
sg22
Nsg23
g2
(g24
g4
Ntp965
Rp966
(dp967
g28
F-23.223478996999972
sg29
g30
sg31
F117.61348122600009
sbsg32
g33
((lp968
g35
atp969
Rp970
sg38
g9
sg39
I2012
sbsVAUS0000228
p971
g2
(g3
g4
Ntp972
Rp973
(dp974
g8
g9
sg10
F20.0
sg11
VParaburdoo (Standby)
p975
sg13
Nsg14
g15
sg16
g17
sg18
g19
sg20
g9
sg21
g971
sg22
Nsg23
g2
(g24
g4
Ntp976
Rp977
(dp978
g28
F-23.221953285999973
sg29
g30
sg31
F117.61503073100005
sbsg32
g33
((lp979
g35
atp980
Rp981
sg38
g9
sg39
I2012
sbsVAUS0000344
p982
g2
(g3
g4
Ntp983
Rp984
(dp985
g8
g9
sg10
F1.0
sg11
VTea Tree Gully
p986
sg13
Nsg14
g15
sg16
g17
sg18
g19
sg20
g9
sg21
g982
sg22
Nsg23
g2
(g24
g4
Ntp987
Rp988
(dp989
g28
F-34.830327067999974
sg29
g30
sg31
F138.71285098500005
sbsg32
g33
((lp990
g229
atp991
Rp992
sg38
g9
sg39
I2012
sbsVAUS0000345
p993
g2
(g3
g4
Ntp994
Rp995
(dp996
g8
g9
sg10
F57.6
sg11
VPort Stanvac
p997
sg13
Nsg14
g15
sg16
g17
sg18
g19
sg20
g9
sg21
g993
sg22
Nsg23
g2
(g24
g4
Ntp998
Rp999
(dp1000
g28
F-35.11039534399998
sg29
g30
sg31
F138.49145908000003
sbsg32
g33
((lp1001
g195
atp1002
Rp1003
sg38
g9
sg39
I2012
sbsVAUS0000342
p1004
g2
(g3
g4
Ntp1005
Rp1006
(dp1007
g8
g9
sg10
F25.0
sg11
VBox Hill
p1008
sg13
Nsg14
g15
sg16
g17
sg18
g19
sg20
g9
sg21
g1004
sg22
Nsg23
g2
(g24
g4
Ntp1009
Rp1010
(dp1011
g28
F-30.49941066699995
sg29
g30
sg31
F151.68388987800006
sbsg32
g33
((lp1012
g172
atp1013
Rp1014
sg38
g9
sg39
I2012
sbsVAUS0000343
p1015
g2
(g3
g4
Ntp1016
Rp1017
(dp1018
g8
g9
sg10
F1.0
sg11
VHighbury
p1019
sg13
Nsg14
g15
sg16
g17
sg18
g19
sg20
g9
sg21
g1015
sg22
Nsg23
g2
(g24
g4
Ntp1020
Rp1021
(dp1022
g28
F-34.84902902299996
sg29
g30
sg31
F138.72028357300007
sbsg32
g33
((lp1023
g229
atp1024
Rp1025
sg38
g9
sg39
I2012
sbsVAUS0000340
p1026
g2
(g3
g4
Ntp1027
Rp1028
(dp1029
g8
g9
sg10
F0.3
sg11
VRubicon Falls
p1030
sg13
Nsg14
g15
sg16
g17
sg18
g19
sg20
g9
sg21
g1026
sg22
Nsg23
g2
(g24
g4
Ntp1031
Rp1032
(dp1033
g28
F-37.34008662499997
sg29
g30
sg31
F145.8476787080001
sbsg32
g33
((lp1034
g60
atp1035
Rp1036
sg38
g9
sg39
I2012
sbsVAUS0000341
p1037
g2
(g3
g4
Ntp1038
Rp1039
(dp1040
g8
g9
sg10
F4.1
sg11
VLeonards Hill
p1041
sg13
Nsg14
g15
sg16
g17
sg18
g19
sg20
g9
sg21
g1037
sg22
Nsg23
g2
(g24
g4
Ntp1042
Rp1043
(dp1044
g28
F-37.427135745999976
sg29
g30
sg31
F144.12215301000003
sbsg32
g33
((lp1045
g172
atp1046
Rp1047
sg38
g9
sg39
I2012
sbsVAUS0000221
p1048
g2
(g3
g4
Ntp1049
Rp1050
(dp1051
g8
g9
sg10
F28.0
sg11
VChristmas Creek Iron Ore Mine
p1052
sg13
Nsg14
g15
sg16
g17
sg18
g19
sg20
g9
sg21
g1048
sg22
Nsg23
g2
(g24
g4
Ntp1053
Rp1054
(dp1055
g28
F-22.398999999999944
sg29
g30
sg31
F119.73200000000008
sbsg32
g33
((lp1056
g195
atp1057
Rp1058
sg38
g9
sg39
I2012
sbsVAUS0000220
p1059
g2
(g3
g4
Ntp1060
Rp1061
(dp1062
g8
g9
sg10
F32.0
sg11
VArgyle Diamond Mine
p1063
sg13
Nsg14
g15
sg16
g17
sg18
g19
sg20
g9
sg21
g1059
sg22
Nsg23
g2
(g24
g4
Ntp1064
Rp1065
(dp1066
g28
F-16.716156999999953
sg29
g30
sg31
F128.40308000000005
sbsg32
g33
((lp1067
g195
atp1068
Rp1069
sg38
g9
sg39
I2012
sbsVAUS0000223
p1070
g2
(g3
g4
Ntp1071
Rp1072
(dp1073
g8
g9
sg10
F78.0
sg11
VLeonora (Murrin Murrin Nickel Mine)
p1074
sg13
Nsg14
g15
sg16
g17
sg18
g19
sg20
g9
sg21
g1070
sg22
Nsg23
g2
(g24
g4
Ntp1075
Rp1076
(dp1077
g28
F-28.923753999999974
sg29
g30
sg31
F121.32929000000001
sbsg32
g33
((lp1078
g35
atp1079
Rp1080
sg38
g9
sg39
I2012
sbsVAUS0000222
p1081
g2
(g3
g4
Ntp1082
Rp1083
(dp1084
g8
g9
sg10
F21.0
sg11
VJundee Gold Mine
p1085
sg13
Nsg14
g15
sg16
g17
sg18
g19
sg20
g9
sg21
g1081
sg22
Nsg23
g2
(g24
g4
Ntp1086
Rp1087
(dp1088
g28
F-26.371211999999957
sg29
g30
sg31
F120.57761300000004
sbsg32
g33
((lp1089
g35
atp1090
Rp1091
sg38
g9
sg39
I2012
sbsVAUS0000225
p1092
g2
(g3
g4
Ntp1093
Rp1094
(dp1095
g8
g9
sg10
F28.0
sg11
VPlutonic Gold Mine
p1096
sg13
Nsg14
g15
sg16
g17
sg18
g19
sg20
g9
sg21
g1092
sg22
Nsg23
g2
(g24
g4
Ntp1097
Rp1098
(dp1099
g28
F-25.311001999999974
sg29
g30
sg31
F119.45075700000007
sbsg32
g33
((lp1100
g35
atp1101
Rp1102
sg38
g9
sg39
I2012
sbsVAUS0000224
p1103
g2
(g3
g4
Ntp1104
Rp1105
(dp1106
g8
g9
sg10
F30.0
sg11
VOrd River
p1107
sg13
Nsg14
g15
sg16
g17
sg18
g19
sg20
g9
sg21
g1103
sg22
Nsg23
g2
(g24
g4
Ntp1108
Rp1109
(dp1110
g28
F-16.120131999999955
sg29
g30
sg31
F128.73832500000003
sbsg32
g33
((lp1111
g60
atp1112
Rp1113
sg38
g9
sg39
I2012
sbsVAUS0000227
p1114
g2
(g3
g4
Ntp1115
Rp1116
(dp1117
g8
g9
sg10
F21.0
sg11
VWiluna Gold Mine
p1118
sg13
Nsg14
g15
sg16
g17
sg18
g19
sg20
g9
sg21
g1114
sg22
Nsg23
g2
(g24
g4
Ntp1119
Rp1120
(dp1121
g28
F-26.63156799999996
sg29
g30
sg31
F120.25188400000002
sbsg32
g33
((lp1122
g35
atp1123
Rp1124
sg38
g9
sg39
I2012
sbsVAUS0000226
p1125
g2
(g3
g4
Ntp1126
Rp1127
(dp1128
g8
g9
sg10
F28.4
sg11
VSunrise Dam
p1129
sg13
Nsg14
g15
sg16
g17
sg18
g19
sg20
g9
sg21
g1125
sg22
Nsg23
g2
(g24
g4
Ntp1130
Rp1131
(dp1132
g28
F-29.09268343599996
sg29
g30
sg31
F122.43928453500007
sbsg32
g33
((lp1133
g35
atp1134
Rp1135
sg38
g9
sg39
I2012
sbsVAUS0000049
p1136
g2
(g3
g4
Ntp1137
Rp1138
(dp1139
g8
g9
sg10
F1.1
sg11
VAwaba
p1140
sg13
Nsg14
g15
sg16
g17
sg18
g19
sg20
g9
sg21
g1136
sg22
Nsg23
g2
(g24
g4
Ntp1141
Rp1142
(dp1143
g28
F-33.02502999999996
sg29
g30
sg31
F151.5497190000001
sbsg32
g33
((lp1144
g229
atp1145
Rp1146
sg38
g9
sg39
I2012
sbsVAUS0000048
p1147
g2
(g3
g4
Ntp1148
Rp1149
(dp1150
g8
g9
sg10
F27.2
sg11
VBurrinjuck Power Station
p1151
sg13
Nsg14
g15
sg16
g17
sg18
g19
sg20
g9
sg21
g1147
sg22
Nsg23
g2
(g24
g4
Ntp1152
Rp1153
(dp1154
g28
F-35.00251999999995
sg29
g30
sg31
F148.58339300000011
sbsg32
g33
((lp1155
g60
atp1156
Rp1157
sg38
g9
sg39
I2012
sbsVAUS0000045
p1158
g2
(g3
g4
Ntp1159
Rp1160
(dp1161
g8
g9
sg10
F5.0
sg11
VEastern Creek
p1162
sg13
Nsg14
g15
sg16
g17
sg18
g19
sg20
g9
sg21
g1158
sg22
Nsg23
g2
(g24
g4
Ntp1163
Rp1164
(dp1165
g28
F-33.814156999999966
sg29
g30
sg31
F150.8537020000001
sbsg32
g33
((lp1166
g229
atp1167
Rp1168
sg38
g9
sg39
I2012
sbsVAUS0000044
p1169
g2
(g3
g4
Ntp1170
Rp1171
(dp1172
g8
g9
sg10
F7.7
sg11
VEastern Creek 2
p1173
sg13
Nsg14
g15
sg16
g17
sg18
g19
sg20
g9
sg21
g1169
sg22
Nsg23
g2
(g24
g4
Ntp1174
Rp1175
(dp1176
g28
F-33.81251499999996
sg29
g30
sg31
F150.86168300000008
sbsg32
g33
((lp1177
g229
atp1178
Rp1179
sg38
g9
sg39
I2012
sbsVAUS0000047
p1180
g2
(g3
g4
Ntp1181
Rp1182
(dp1183
g8
g9
sg10
F140.7
sg11
VCapital Wind Farm
p1184
sg13
Nsg14
g15
sg16
g17
sg18
g19
sg20
g9
sg21
g1180
sg22
Nsg23
g2
(g24
g4
Ntp1185
Rp1186
(dp1187
g28
F-35.16603062099995
sg29
g30
sg31
F149.51856862600005
sbsg32
g33
((lp1188
g172
atp1189
Rp1190
sg38
g9
sg39
I2012
sbsVAUS0000046
p1191
g2
(g3
g4
Ntp1192
Rp1193
(dp1194
g8
g9
sg10
F4.8
sg11
VCrookwell Wind Farm
p1195
sg13
Nsg14
g15
sg16
g17
sg18
g19
sg20
g9
sg21
g1191
sg22
Nsg23
g2
(g24
g4
Ntp1196
Rp1197
(dp1198
g28
F-34.51649999999995
sg29
g30
sg31
F149.54248000000007
sbsg32
g33
((lp1199
g172
atp1200
Rp1201
sg38
g9
sg39
I2012
sbsVAUS0000041
p1202
g2
(g3
g4
Ntp1203
Rp1204
(dp1205
g8
g9
sg10
F1.3
sg11
VGrange Avenue
p1206
sg13
Nsg14
g15
sg16
g17
sg18
g19
sg20
g9
sg21
g1202
sg22
Nsg23
g2
(g24
g4
Ntp1207
Rp1208
(dp1209
g28
F-33.70293799999996
sg29
g30
sg31
F150.8312330000001
sbsg32
g33
((lp1210
g229
atp1211
Rp1212
sg38
g9
sg39
I2012
sbsVAUS0000040
p1213
g2
(g3
g4
Ntp1214
Rp1215
(dp1216
g8
g9
sg10
F46.5
sg11
VGunning
p1217
sg13
Nsg14
g15
sg16
g17
sg18
g19
sg20
g9
sg21
g1213
sg22
Nsg23
g2
(g24
g4
Ntp1218
Rp1219
(dp1220
g28
F-34.695830899999976
sg29
g30
sg31
F149.3831752110001
sbsg32
g33
((lp1221
g172
atp1222
Rp1223
sg38
g9
sg39
I2012
sbsVAUS0000043
p1224
g2
(g3
g4
Ntp1225
Rp1226
(dp1227
g8
g9
sg10
F79.2
sg11
VEmu Downs Wind Farm
p1228
sg13
Nsg14
g15
sg16
g17
sg18
g19
sg20
g9
sg21
g1224
sg22
Nsg23
g2
(g24
g4
Ntp1229
Rp1230
(dp1231
g28
F-30.488061999999957
sg29
g30
sg31
F115.33700500000009
sbsg32
g33
((lp1232
g172
atp1233
Rp1234
sg38
g9
sg39
I2012
sbsVAUS0000042
p1235
g2
(g3
g4
Ntp1236
Rp1237
(dp1238
g8
g9
sg10
F3.6
sg11
VEsperance Wind Farm Nine Mile Beach
p1239
sg13
Nsg14
g15
sg16
g17
sg18
g19
sg20
g9
sg21
g1235
sg22
Nsg23
g2
(g24
g4
Ntp1240
Rp1241
(dp1242
g28
F-33.892709999999965
sg29
g30
sg31
F121.77778
sbsg32
g33
((lp1243
g172
atp1244
Rp1245
sg38
g9
sg39
I2012
sbsVAUS0000346
p1246
g2
(g3
g4
Ntp1247
Rp1248
(dp1249
g8
g9
sg10
F7.5
sg11
VMaryborough
p1250
sg13
Nsg14
g15
sg16
g17
sg18
g19
sg20
g9
sg21
g1246
sg22
Nsg23
g2
(g24
g4
Ntp1251
Rp1252
(dp1253
g28
F-25.547588004999966
sg29
g30
sg31
F152.7170960950001
sbsg32
g33
((lp1254
g285
atp1255
Rp1256
sg38
g9
sg39
I2012
sbsVAUS0000347
p1257
g2
(g3
g4
Ntp1258
Rp1259
(dp1260
g8
g9
sg10
F4.8
sg11
VStapylton Green Energy
p1261
sg13
Nsg14
g15
sg16
g17
sg18
g19
sg20
g9
sg21
g1257
sg22
Nsg23
g2
(g24
g4
Ntp1262
Rp1263
(dp1264
g28
F-27.733448959999976
sg29
g30
sg31
F153.24630257800004
sbsg32
g33
((lp1265
g285
atp1266
Rp1267
sg38
g9
sg39
I2012
sbsVAUS0000403
p1268
g2
(g3
g4
Ntp1269
Rp1270
(dp1271
g8
g9
sg10
F0.4
sg11
VErskine Park
p1272
sg13
Nsg14
g15
sg16
g17
sg18
g19
sg20
g9
sg21
g1268
sg22
Nsg23
g2
(g24
g4
Ntp1273
Rp1274
(dp1275
g28
F-33.81820658899994
sg29
g30
sg31
F150.80322730700004
sbsg32
g33
((lp1276
g35
atp1277
Rp1278
sg38
g9
sg39
I2012
sbsVAUS0000402
p1279
g2
(g3
g4
Ntp1280
Rp1281
(dp1282
g8
g9
sg10
F0.8
sg11
VClub Merrylands
p1283
sg13
Nsg14
g15
sg16
g17
sg18
g19
sg20
g9
sg21
g1279
sg22
Nsg23
g2
(g24
g4
Ntp1284
Rp1285
(dp1286
g28
F-33.83811554999994
sg29
g30
sg31
F150.99050381200004
sbsg32
g33
((lp1287
g195
atp1288
Rp1289
sg38
g9
sg39
I2012
sbsVAUS0000348
p1290
g2
(g3
g4
Ntp1291
Rp1292
(dp1293
g8
g9
sg10
F0.6
sg11
VBremer Bay Wind Turbine
p1294
sg13
Nsg14
g15
sg16
g17
sg18
g19
sg20
g9
sg21
g1290
sg22
Nsg23
g2
(g24
g4
Ntp1295
Rp1296
(dp1297
g28
F-34.399007154999936
sg29
g30
sg31
F119.39148142400006
sbsg32
g33
((lp1298
g172
atp1299
Rp1300
sg38
g9
sg39
I2012
sbsVAUS0000376
p1301
g2
(g3
g4
Ntp1302
Rp1303
(dp1304
g8
g9
sg10
F0.5
sg11
VBlue Lake Milling Power Plant
p1305
sg13
Nsg14
g15
sg16
g17
sg18
g19
sg20
g9
sg21
g1301
sg22
Nsg23
g2
(g24
g4
Ntp1306
Rp1307
(dp1308
g28
F-36.31643279399998
sg29
g30
sg31
F140.7574619190001
sbsg32
g33
((lp1309
g195
atp1310
Rp1311
sg38
g9
sg39
I2012
sbsVAUS0000349
p1312
g2
(g3
g4
Ntp1313
Rp1314
(dp1315
g8
g9
sg10
F1.3
sg11
VBremer Bay Diesel Backup
p1316
sg13
Nsg14
g15
sg16
g17
sg18
g19
sg20
g9
sg21
g1312
sg22
Nsg23
g2
(g24
g4
Ntp1317
Rp1318
(dp1319
g28
F-34.40182817799996
sg29
g30
sg31
F119.38880433100007
sbsg32
g33
((lp1320
g195
atp1321
Rp1322
sg38
g9
sg39
I2012
sbsVAUS0000409
p1323
g2
(g3
g4
Ntp1324
Rp1325
(dp1326
g8
g9
sg10
F4.43
sg11
VLeonora
p1327
sg13
Nsg14
g15
sg16
g17
sg18
g19
sg20
g9
sg21
g1323
sg22
Nsg23
g2
(g24
g4
Ntp1328
Rp1329
(dp1330
g28
F-28.881076375999953
sg29
g30
sg31
F121.32127466800011
sbsg32
g33
((lp1331
g35
atp1332
Rp1333
sg38
g9
sg39
I2012
sbsVAUS0000408
p1334
g2
(g3
g4
Ntp1335
Rp1336
(dp1337
g8
g9
sg10
F2.9
sg11
VMeekatharra
p1338
sg13
Nsg14
g15
sg16
g17
sg18
g19
sg20
g9
sg21
g1334
sg22
Nsg23
g2
(g24
g4
Ntp1339
Rp1340
(dp1341
g28
F-26.59517155499998
sg29
g30
sg31
F118.48302202900004
sbsg32
g33
((lp1342
g195
atp1343
Rp1344
sg38
g9
sg39
I2012
sbsVAUS0000438
p1345
g2
(g3
g4
Ntp1346
Rp1347
(dp1348
g8
g9
sg10
F0.67
sg11
VNewington Solar Suburb
p1349
sg13
Nsg14
g15
sg16
g17
sg18
g19
sg20
g9
sg21
g1345
sg22
Nsg23
g2
(g24
g4
Ntp1350
Rp1351
(dp1352
g28
F-33.841292099999976
sg29
g30
sg31
F151.0538161280001
sbsg32
g33
((lp1353
g902
atp1354
Rp1355
sg38
g9
sg39
I2012
sbsVAUS0000439
p1356
g2
(g3
g4
Ntp1357
Rp1358
(dp1359
g8
g9
sg10
F0.39
sg11
VSingleton Solar Farm
p1360
sg13
Nsg14
g15
sg16
g17
sg18
g19
sg20
g9
sg21
g1356
sg22
Nsg23
g2
(g24
g4
Ntp1361
Rp1362
(dp1363
g28
F-32.59238450699996
sg29
g30
sg31
F151.18120867400012
sbsg32
g33
((lp1364
g902
atp1365
Rp1366
sg38
g9
sg39
I2012
sbsVAUS0000430
p1367
g2
(g3
g4
Ntp1368
Rp1369
(dp1370
g8
g9
sg10
F0.3
sg11
VBendigo Solar Park
p1371
sg13
Nsg14
g15
sg16
g17
sg18
g19
sg20
g9
sg21
g1367
sg22
Nsg23
g2
(g24
g4
Ntp1372
Rp1373
(dp1374
g28
F-36.67475241999995
sg29
g30
sg31
F144.3032389540001
sbsg32
g33
((lp1375
g902
atp1376
Rp1377
sg38
g9
sg39
I2012
sbsVAUS0000431
p1378
g2
(g3
g4
Ntp1379
Rp1380
(dp1381
g8
g9
sg10
F1.0
sg11
VAdelaide Showgrounds
p1382
sg13
Nsg14
g15
sg16
g17
sg18
g19
sg20
g9
sg21
g1378
sg22
Nsg23
g2
(g24
g4
Ntp1383
Rp1384
(dp1385
g28
F-34.94528525499993
sg29
g30
sg31
F138.58819351300008
sbsg32
g33
((lp1386
g902
atp1387
Rp1388
sg38
g9
sg39
I2012
sbsVAUS0000432
p1389
g2
(g3
g4
Ntp1390
Rp1391
(dp1392
g8
g9
sg10
F0.11
sg11
VAdelaide Airport
p1393
sg13
Nsg14
g15
sg16
g17
sg18
g19
sg20
g9
sg21
g1389
sg22
Nsg23
g2
(g24
g4
Ntp1394
Rp1395
(dp1396
g28
F-34.93867455299994
sg29
g30
sg31
F138.5376555360001
sbsg32
g33
((lp1397
g902
atp1398
Rp1399
sg38
g9
sg39
I2012
sbsVAUS0000370
p1400
g2
(g3
g4
Ntp1401
Rp1402
(dp1403
g8
g9
sg10
F12.4
sg11
VKununurra
p1404
sg13
Nsg14
g15
sg16
g17
sg18
g19
sg20
g9
sg21
g1400
sg22
Nsg23
g2
(g24
g4
Ntp1405
Rp1406
(dp1407
g28
F-15.779556778999961
sg29
g30
sg31
F128.73946199400007
sbsg32
g33
((lp1408
g195
atp1409
Rp1410
sg38
g9
sg39
I2012
sbsVAUS0000434
p1411
g2
(g3
g4
Ntp1412
Rp1413
(dp1414
g8
g9
sg10
F0.4
sg11
VFraser Coast Community Solar Farm
p1415
sg13
Nsg14
g15
sg16
g17
sg18
g19
sg20
g9
sg21
g1411
sg22
Nsg23
g2
(g24
g4
Ntp1416
Rp1417
(dp1418
g28
F-25.318398602999935
sg29
g30
sg31
F152.7901683220001
sbsg32
g33
((lp1419
g902
atp1420
Rp1421
sg38
g9
sg39
I2012
sbsVAUS0000435
p1422
g2
(g3
g4
Ntp1423
Rp1424
(dp1425
g8
g9
sg10
F0.22
sg11
VMetricon (Gold Coast) Stadium Solar Array
p1426
sg13
Nsg14
g15
sg16
g17
sg18
g19
sg20
g9
sg21
g1422
sg22
Nsg23
g2
(g24
g4
Ntp1427
Rp1428
(dp1429
g28
F-28.00627412299997
sg29
g30
sg31
F153.36711828600005
sbsg32
g33
((lp1430
g902
atp1431
Rp1432
sg38
g9
sg39
I2012
sbsVAUS0000436
p1433
g2
(g3
g4
Ntp1434
Rp1435
(dp1436
g8
g9
sg10
F0.29
sg11
VCarnarvon Solar Farm
p1437
sg13
Nsg14
g15
sg16
g17
sg18
g19
sg20
g9
sg21
g1433
sg22
Nsg23
g2
(g24
g4
Ntp1438
Rp1439
(dp1440
g28
F-24.897029118999967
sg29
g30
sg31
F113.6741161000001
sbsg32
g33
((lp1441
g902
atp1442
Rp1443
sg38
g9
sg39
I2012
sbsVAUS0000437
p1444
g2
(g3
g4
Ntp1445
Rp1446
(dp1447
g8
g9
sg10
F1.5
sg11
VCSIRO Energy Centre
p1448
sg13
Nsg14
g15
sg16
g17
sg18
g19
sg20
g9
sg21
g1444
sg22
Nsg23
g2
(g24
g4
Ntp1449
Rp1450
(dp1451
g28
F-32.88347300399994
sg29
g30
sg31
F151.72745249100012
sbsg32
g33
((lp1452
g902
atp1453
Rp1454
sg38
g9
sg39
I2012
sbsVAUS0000382
p1455
g2
(g3
g4
Ntp1456
Rp1457
(dp1458
g8
g9
sg10
F1.3
sg11
VBidyadanga
p1459
sg13
Nsg14
g15
sg16
g17
sg18
g19
sg20
g9
sg21
g1455
sg22
Nsg23
g2
(g24
g4
Ntp1460
Rp1461
(dp1462
g28
F-18.68162717399997
sg29
g30
sg31
F121.78478093100011
sbsg32
g33
((lp1463
g195
atp1464
Rp1465
sg38
g9
sg39
I2012
sbsVAUS0000276
p1466
g2
(g3
g4
Ntp1467
Rp1468
(dp1469
g8
g9
sg10
F10.0
sg11
VGlennies Creek
p1470
sg13
Nsg14
g15
sg16
g17
sg18
g19
sg20
g9
sg21
g1466
sg22
Nsg23
g2
(g24
g4
Ntp1471
Rp1472
(dp1473
g28
F-32.45984299999998
sg29
g30
sg31
F151.12862700000005
sbsg32
g33
((lp1474
g35
atp1475
Rp1476
sg38
g9
sg39
I2012
sbsVAUS0000380
p1477
g2
(g3
g4
Ntp1478
Rp1479
(dp1480
g8
g9
sg10
F0.7
sg11
VDjarindjin
p1481
sg13
Nsg14
g15
sg16
g17
sg18
g19
sg20
g9
sg21
g1477
sg22
Nsg23
g2
(g24
g4
Ntp1482
Rp1483
(dp1484
g28
F-16.519907689999968
sg29
g30
sg31
F122.9035895080001
sbsg32
g33
((lp1485
g195
atp1486
Rp1487
sg38
g9
sg39
I2012
sbsVAUS0000381
p1488
g2
(g3
g4
Ntp1489
Rp1490
(dp1491
g8
g9
sg10
F0.7
sg11
VBeagle Bay
p1492
sg13
Nsg14
g15
sg16
g17
sg18
g19
sg20
g9
sg21
g1488
sg22
Nsg23
g2
(g24
g4
Ntp1493
Rp1494
(dp1495
g28
F-16.993900064999934
sg29
g30
sg31
F122.65850864600009
sbsg32
g33
((lp1496
g195
atp1497
Rp1498
sg38
g9
sg39
I2012
sbsVAUS0000386
p1499
g2
(g3
g4
Ntp1500
Rp1501
(dp1502
g8
g9
sg10
F15.0
sg11
VCarnarvon
p1503
sg13
Nsg14
g15
sg16
g17
sg18
g19
sg20
g9
sg21
g1499
sg22
Nsg23
g2
(g24
g4
Ntp1504
Rp1505
(dp1506
g28
F-24.86915967899995
sg29
g30
sg31
F113.67537540600006
sbsg32
g33
((lp1507
g35
atp1508
Rp1509
sg38
g9
sg39
I2012
sbsVAUS0000387
p1510
g2
(g3
g4
Ntp1511
Rp1512
(dp1513
g8
g9
sg10
F18.0
sg11
VMungullah
p1514
sg13
Nsg14
g15
sg16
g17
sg18
g19
sg20
g9
sg21
g1510
sg22
Nsg23
g2
(g24
g4
Ntp1515
Rp1516
(dp1517
g28
F-24.891051455999957
sg29
g30
sg31
F113.7095328040001
sbsg32
g33
((lp1518
g35
atp1519
Rp1520
sg38
g9
sg39
I2012
sbsVAUS0000384
p1521
g2
(g3
g4
Ntp1522
Rp1523
(dp1524
g8
g9
sg10
F1.3
sg11
VWiluna
p1525
sg13
Nsg14
g15
sg16
g17
sg18
g19
sg20
g9
sg21
g1521
sg22
Nsg23
g2
(g24
g4
Ntp1526
Rp1527
(dp1528
g28
F-26.592159892999973
sg29
g30
sg31
F120.21850892600003
sbsg32
g33
((lp1529
g195
atp1530
Rp1531
sg38
g9
sg39
I2012
sbsVAUS0000277
p1532
g2
(g3
g4
Ntp1533
Rp1534
(dp1535
g8
g9
sg10
F29.0
sg11
VHunter
p1536
sg13
Nsg14
g15
sg16
g17
sg18
g19
sg20
g9
sg21
g1532
sg22
Nsg23
g2
(g24
g4
Ntp1537
Rp1538
(dp1539
g28
F-32.83602099999996
sg29
g30
sg31
F151.4504710000001
sbsg32
g33
((lp1540
g195
atp1541
Rp1542
sg38
g9
sg39
I2012
sbsVAUS0000388
p1543
g2
(g3
g4
Ntp1544
Rp1545
(dp1546
g8
g9
sg10
F0.06
sg11
VExmouth Advanced Mini Wind Farm
p1547
sg13
Nsg14
g15
sg16
g17
sg18
g19
sg20
g9
sg21
g1543
sg22
Nsg23
g2
(g24
g4
Ntp1548
Rp1549
(dp1550
g28
F-21.812631499999952
sg29
g30
sg31
F114.1335056480001
sbsg32
g33
((lp1551
g172
atp1552
Rp1553
sg38
g9
sg39
I2012
sbsVAUS0000389
p1554
g2
(g3
g4
Ntp1555
Rp1556
(dp1557
g8
g9
sg10
F120.0
sg11
VWorsley
p1558
sg13
Nsg14
g15
sg16
g17
sg18
g19
sg20
g9
sg21
g1554
sg22
Nsg23
g2
(g24
g4
Ntp1559
Rp1560
(dp1561
g28
F-33.235493273999964
sg29
g30
sg31
F116.06879749400002
sbsg32
g33
((lp1562
g72
atp1563
Rp1564
sg38
g9
sg39
I2012
sbsVAUS0000265
p1565
g2
(g3
g4
Ntp1566
Rp1567
(dp1568
g8
g9
sg10
F2640.0
sg11
VBayswater
p1569
sg13
Nsg14
g15
sg16
g17
sg18
g19
sg20
g9
sg21
g1565
sg22
Nsg23
g2
(g24
g4
Ntp1570
Rp1571
(dp1572
g28
F-32.39526999999998
sg29
g30
sg31
F150.94913000000008
sbsg32
g33
((lp1573
g72
atp1574
Rp1575
sg38
g9
sg39
I2012
sbsVAUS0000264
p1576
g2
(g3
g4
Ntp1577
Rp1578
(dp1579
g8
g9
sg10
F59.7
sg11
VAppin (Mine)
p1580
sg13
Nsg14
g15
sg16
g17
sg18
g19
sg20
g9
sg21
g1576
sg22
Nsg23
g2
(g24
g4
Ntp1581
Rp1582
(dp1583
g28
F-34.20818499999996
sg29
g30
sg31
F150.77218100000005
sbsg32
g33
((lp1584
g35
atp1585
Rp1586
sg38
g9
sg39
I2012
sbsVAUS0000267
p1587
g2
(g3
g4
Ntp1588
Rp1589
(dp1590
g8
g9
sg10
F70.0
sg11
VBlowering
p1591
sg13
Nsg14
g15
sg16
g17
sg18
g19
sg20
g9
sg21
g1587
sg22
Nsg23
g2
(g24
g4
Ntp1592
Rp1593
(dp1594
g28
F-35.39860099999993
sg29
g30
sg31
F148.2462720000001
sbsg32
g33
((lp1595
g60
atp1596
Rp1597
sg38
g9
sg39
I2012
sbsVAUS0000266
p1598
g2
(g3
g4
Ntp1599
Rp1600
(dp1601
g8
g9
sg10
F80.0
sg11
VBendeela (Shoalhaven Scheme)
p1602
sg13
Nsg14
g15
sg16
g17
sg18
g19
sg20
g9
sg21
g1598
sg22
Nsg23
g2
(g24
g4
Ntp1603
Rp1604
(dp1605
g28
F-34.73368999999997
sg29
g30
sg31
F150.46687000000009
sbsg32
g33
((lp1606
g60
atp1607
Rp1608
sg38
g9
sg39
I2012
sbsVAUS0000261
p1609
g2
(g3
g4
Ntp1610
Rp1611
(dp1612
g8
g9
sg10
F232.0
sg11
VChannel Island
p1613
sg13
Nsg14
g15
sg16
g17
sg18
g19
sg20
g9
sg21
g1609
sg22
Nsg23
g2
(g24
g4
Ntp1614
Rp1615
(dp1616
g28
F-12.554992999999968
sg29
g30
sg31
F130.8665870000001
sbsg32
g33
((lp1617
g35
atp1618
Rp1619
sg38
g9
sg39
I2012
sbsVAUS0000149
p1620
g2
(g3
g4
Ntp1621
Rp1622
(dp1623
g8
g9
sg10
F385.0
sg11
VSwanbank E
p1624
sg13
Nsg14
g15
sg16
g17
sg18
g19
sg20
g9
sg21
g1620
sg22
Nsg23
g2
(g24
g4
Ntp1625
Rp1626
(dp1627
g28
F-27.655373999999938
sg29
g30
sg31
F152.81793800000003
sbsg32
g33
((lp1628
g35
atp1629
Rp1630
sg38
g9
sg39
I2012
sbsVAUS0000263
p1631
g2
(g3
g4
Ntp1632
Rp1633
(dp1634
g8
g9
sg10
F30.0
sg11
VCondong Sugar Mill
p1635
sg13
Nsg14
g15
sg16
g17
sg18
g19
sg20
g9
sg21
g1631
sg22
Nsg23
g2
(g24
g4
Ntp1636
Rp1637
(dp1638
g28
F-28.313801999999953
sg29
g30
sg31
F153.43411000000003
sbsg32
g33
((lp1639
g285
atp1640
Rp1641
sg38
g9
sg39
I2012
sbsVAUS0000262
p1642
g2
(g3
g4
Ntp1643
Rp1644
(dp1645
g8
g9
sg10
F19.0
sg11
VWarrego
p1646
sg13
Nsg14
g15
sg16
g17
sg18
g19
sg20
g9
sg21
g1642
sg22
Nsg23
g2
(g24
g4
Ntp1647
Rp1648
(dp1649
g28
F-19.443392999999958
sg29
g30
sg31
F133.8235870000001
sbsg32
g33
((lp1650
g35
atp1651
Rp1652
sg38
g9
sg39
I2012
sbsVAUS0000144
p1653
g2
(g3
g4
Ntp1654
Rp1655
(dp1656
g8
g9
sg10
F100.0
sg11
VCethana
p1657
sg13
Nsg14
g15
sg16
g17
sg18
g19
sg20
g9
sg21
g1653
sg22
Nsg23
g2
(g24
g4
Ntp1658
Rp1659
(dp1660
g28
F-41.48023699999993
sg29
g30
sg31
F146.13484900000003
sbsg32
g33
((lp1661
g60
atp1662
Rp1663
sg38
g9
sg39
I2012
sbsVAUS0000145
p1664
g2
(g3
g4
Ntp1665
Rp1666
(dp1667
g8
g9
sg10
F10.5
sg11
VInkerman Sugar Mill
p1668
sg13
Nsg14
g15
sg16
g17
sg18
g19
sg20
g9
sg21
g1664
sg22
Nsg23
g2
(g24
g4
Ntp1669
Rp1670
(dp1671
g28
F-19.642154999999946
sg29
g30
sg31
F147.40159100000005
sbsg32
g33
((lp1672
g285
atp1673
Rp1674
sg38
g9
sg39
I2012
sbsVAUS0000146
p1675
g2
(g3
g4
Ntp1676
Rp1677
(dp1678
g8
g9
sg10
F34.0
sg11
VMackay
p1679
sg13
Nsg14
g15
sg16
g17
sg18
g19
sg20
g9
sg21
g1675
sg22
Nsg23
g2
(g24
g4
Ntp1680
Rp1681
(dp1682
g28
F-21.14456599999994
sg29
g30
sg31
F149.1590970000001
sbsg32
g33
((lp1683
g35
atp1684
Rp1685
sg38
g9
sg39
I2012
sbsVAUS0000147
p1686
g2
(g3
g4
Ntp1687
Rp1688
(dp1689
g8
g9
sg10
F80.0
sg11
VRoma
p1690
sg13
Nsg14
g15
sg16
g17
sg18
g19
sg20
g9
sg21
g1686
sg22
Nsg23
g2
(g24
g4
Ntp1691
Rp1692
(dp1693
g28
F-26.577200999999945
sg29
g30
sg31
F148.8401990000001
sbsg32
g33
((lp1694
g35
atp1695
Rp1696
sg38
g9
sg39
I2012
sbsVAUS0000269
p1697
g2
(g3
g4
Ntp1698
Rp1699
(dp1700
g8
g9
sg10
F5.4
sg11
VBrown Mountain
p1701
sg13
Nsg14
g15
sg16
g17
sg18
g19
sg20
g9
sg21
g1697
sg22
Nsg23
g2
(g24
g4
Ntp1702
Rp1703
(dp1704
g28
F-36.595144999999945
sg29
g30
sg31
F149.47410700000012
sbsg32
g33
((lp1705
g60
atp1706
Rp1707
sg38
g9
sg39
I2012
sbsVAUS0000141
p1708
g2
(g3
g4
Ntp1709
Rp1710
(dp1711
g8
g9
sg10
F238.0
sg11
VReece
p1712
sg13
Nsg14
g15
sg16
g17
sg18
g19
sg20
g9
sg21
g1708
sg22
Nsg23
g2
(g24
g4
Ntp1713
Rp1714
(dp1715
g28
F-41.723769999999945
sg29
g30
sg31
F145.1359480000001
sbsg32
g33
((lp1716
g60
atp1717
Rp1718
sg38
g9
sg39
I2012
sbsVAUS0000142
p1719
g2
(g3
g4
Ntp1720
Rp1721
(dp1722
g8
g9
sg10
F81.0
sg11
VMackintosh
p1723
sg13
Nsg14
g15
sg16
g17
sg18
g19
sg20
g9
sg21
g1719
sg22
Nsg23
g2
(g24
g4
Ntp1724
Rp1725
(dp1726
g28
F-41.69974999999994
sg29
g30
sg31
F145.6461190000001
sbsg32
g33
((lp1727
g60
atp1728
Rp1729
sg38
g9
sg39
I2012
sbsVAUS0000143
p1730
g2
(g3
g4
Ntp1731
Rp1732
(dp1733
g8
g9
sg10
F432.0
sg11
VGordon
p1734
sg13
Nsg14
g15
sg16
g17
sg18
g19
sg20
g9
sg21
g1730
sg22
Nsg23
g2
(g24
g4
Ntp1735
Rp1736
(dp1737
g28
F-42.73864199999997
sg29
g30
sg31
F145.98116500000003
sbsg32
g33
((lp1738
g60
atp1739
Rp1740
sg38
g9
sg39
I2012
sbsVAUS0000176
p1741
g2
(g3
g4
Ntp1742
Rp1743
(dp1744
g8
g9
sg10
F900.0
sg11
VCallide C
p1745
sg13
Nsg14
g15
sg16
g17
sg18
g19
sg20
g9
sg21
g1741
sg22
Nsg23
g2
(g24
g4
Ntp1746
Rp1747
(dp1748
g28
F-24.344945999999936
sg29
g30
sg31
F150.61818100000005
sbsg32
g33
((lp1749
g72
atp1750
Rp1751
sg38
g9
sg39
I2012
sbsVAUS0000319
p1752
g2
(g3
g4
Ntp1753
Rp1754
(dp1755
g8
g9
sg10
F0.8
sg11
VUniversity of New South Wales
p1756
sg13
Nsg14
g15
sg16
g17
sg18
g19
sg20
g9
sg21
g1752
sg22
Nsg23
g2
(g24
g4
Ntp1757
Rp1758
(dp1759
g28
F-33.916704281999955
sg29
g30
sg31
F151.23535272300012
sbsg32
g33
((lp1760
g35
atp1761
Rp1762
sg38
g9
sg39
I2012
sbsVAUS0000318
p1763
g2
(g3
g4
Ntp1764
Rp1765
(dp1766
g8
g9
sg10
F1.5
sg11
VSt George Leagues Club
p1767
sg13
Nsg14
g15
sg16
g17
sg18
g19
sg20
g9
sg21
g1763
sg22
Nsg23
g2
(g24
g4
Ntp1768
Rp1769
(dp1770
g28
F-33.97481738299996
sg29
g30
sg31
F151.1293810090001
sbsg32
g33
((lp1771
g195
atp1772
Rp1773
sg38
g9
sg39
I2012
sbsVAUS0000177
p1774
g2
(g3
g4
Ntp1775
Rp1776
(dp1777
g8
g9
sg10
F700.0
sg11
VCallide B
p1778
sg13
Nsg14
g15
sg16
g17
sg18
g19
sg20
g9
sg21
g1774
sg22
Nsg23
g2
(g24
g4
Ntp1779
Rp1780
(dp1781
g28
F-24.344879999999932
sg29
g30
sg31
F150.61974900000007
sbsg32
g33
((lp1782
g72
atp1783
Rp1784
sg38
g9
sg39
I2012
sbsVAUS0000311
p1785
g2
(g3
g4
Ntp1786
Rp1787
(dp1788
g8
g9
sg10
F17.0
sg11
VProserpine Sugar Mill
p1789
sg13
Nsg14
g15
sg16
g17
sg18
g19
sg20
g9
sg21
g1785
sg22
Nsg23
g2
(g24
g4
Ntp1790
Rp1791
(dp1792
g28
F-20.398544758999947
sg29
g30
sg31
F148.57971634900002
sbsg32
g33
((lp1793
g285
atp1794
Rp1795
sg38
g9
sg39
I2012
sbsVAUS0000310
p1796
g2
(g3
g4
Ntp1797
Rp1798
(dp1799
g8
g9
sg10
F21.4
sg11
VTully Sugar Mill
p1800
sg13
Nsg14
g15
sg16
g17
sg18
g19
sg20
g9
sg21
g1796
sg22
Nsg23
g2
(g24
g4
Ntp1801
Rp1802
(dp1803
g28
F-17.937317647999976
sg29
g30
sg31
F145.92665248700007
sbsg32
g33
((lp1804
g285
atp1805
Rp1806
sg38
g9
sg39
I2012
sbsVAUS0000313
p1807
g2
(g3
g4
Ntp1808
Rp1809
(dp1810
g8
g9
sg10
F0.8
sg11
VSydney
p1811
sg13
Nsg14
g15
sg16
g17
sg18
g19
sg20
g9
sg21
g1807
sg22
Nsg23
g2
(g24
g4
Ntp1812
Rp1813
(dp1814
g28
F-33.87154700199994
sg29
g30
sg31
F151.20910002800008
sbsg32
g33
((lp1815
g35
atp1816
Rp1817
sg38
g9
sg39
I2012
sbsVAUS0000312
p1818
g2
(g3
g4
Ntp1819
Rp1820
(dp1821
g8
g9
sg10
F0.8
sg11
VNorth Sydney
p1822
sg13
Nsg14
g15
sg16
g17
sg18
g19
sg20
g9
sg21
g1818
sg22
Nsg23
g2
(g24
g4
Ntp1823
Rp1824
(dp1825
g28
F-33.83838156099995
sg29
g30
sg31
F151.20539424000003
sbsg32
g33
((lp1826
g35
atp1827
Rp1828
sg38
g9
sg39
I2012
sbsVAUS0000315
p1829
g2
(g3
g4
Ntp1830
Rp1831
(dp1832
g8
g9
sg10
F0.8
sg11
VBlackmores
p1833
sg13
Nsg14
g15
sg16
g17
sg18
g19
sg20
g9
sg21
g1829
sg22
Nsg23
g2
(g24
g4
Ntp1834
Rp1835
(dp1836
g28
F-33.67777002999998
sg29
g30
sg31
F151.29080465200002
sbsg32
g33
((lp1837
g35
atp1838
Rp1839
sg38
g9
sg39
I2012
sbsVAUS0000314
p1840
g2
(g3
g4
Ntp1841
Rp1842
(dp1843
g8
g9
sg10
F2.4
sg11
VNorth Sydney
p1844
sg13
Nsg14
g15
sg16
g17
sg18
g19
sg20
g9
sg21
g1840
sg22
Nsg23
g2
(g24
g4
Ntp1845
Rp1846
(dp1847
g28
F-33.83981188699994
sg29
g30
sg31
F151.20692819700002
sbsg32
g33
((lp1848
g35
atp1849
Rp1850
sg38
g9
sg39
I2012
sbsVAUS0000317
p1851
g2
(g3
g4
Ntp1852
Rp1853
(dp1854
g8
g9
sg10
F2.5
sg11
VRevesby Workers Club
p1855
sg13
Nsg14
g15
sg16
g17
sg18
g19
sg20
g9
sg21
g1851
sg22
Nsg23
g2
(g24
g4
Ntp1856
Rp1857
(dp1858
g28
F-33.95343975199995
sg29
g30
sg31
F151.013733214
sbsg32
g33
((lp1859
g195
atp1860
Rp1861
sg38
g9
sg39
I2012
sbsVAUS0000316
p1862
g2
(g3
g4
Ntp1863
Rp1864
(dp1865
g8
g9
sg10
F3.2
sg11
VNine Network
p1866
sg13
Nsg14
g15
sg16
g17
sg18
g19
sg20
g9
sg21
g1862
sg22
Nsg23
g2
(g24
g4
Ntp1867
Rp1868
(dp1869
g28
F-33.81096412699998
sg29
g30
sg31
F151.1966227370001
sbsg32
g33
((lp1870
g195
atp1871
Rp1872
sg38
g9
sg39
I2012
sbsVAUS0000089
p1873
g2
(g3
g4
Ntp1874
Rp1875
(dp1876
g8
g9
sg10
F228.0
sg11
VJeeralang B
p1877
sg13
Nsg14
g15
sg16
g17
sg18
g19
sg20
g9
sg21
g1873
sg22
Nsg23
g2
(g24
g4
Ntp1878
Rp1879
(dp1880
g28
F-38.274625999999955
sg29
g30
sg31
F146.42492300000004
sbsg32
g33
((lp1881
g35
atp1882
Rp1883
sg38
g9
sg39
I2012
sbsVAUS0000127
p1884
g2
(g3
g4
Ntp1885
Rp1886
(dp1887
g8
g9
sg10
F12.2
sg11
VButlers Gorge
p1888
sg13
Nsg14
g15
sg16
g17
sg18
g19
sg20
g9
sg21
g1884
sg22
Nsg23
g2
(g24
g4
Ntp1889
Rp1890
(dp1891
g28
F-42.26689799999997
sg29
g30
sg31
F146.2617580000001
sbsg32
g33
((lp1892
g60
atp1893
Rp1894
sg38
g9
sg39
I2012
sbsVAUS0000034
p1895
g2
(g3
g4
Ntp1896
Rp1897
(dp1898
g8
g9
sg10
F3.5
sg11
VMugga Lane
p1899
sg13
Nsg14
g15
sg16
g17
sg18
g19
sg20
g9
sg21
g1895
sg22
Nsg23
g2
(g24
g4
Ntp1900
Rp1901
(dp1902
g28
F-35.39530399999995
sg29
g30
sg31
F149.14582000000007
sbsg32
g33
((lp1903
g229
atp1904
Rp1905
sg38
g9
sg39
I2012
sbsVAUS0000035
p1906
g2
(g3
g4
Ntp1907
Rp1908
(dp1909
g8
g9
sg10
F4.12
sg11
VLucas Heights III
p1910
sg13
Nsg14
g15
sg16
g17
sg18
g19
sg20
g9
sg21
g1906
sg22
Nsg23
g2
(g24
g4
Ntp1911
Rp1912
(dp1913
g28
F-34.048145999999974
sg29
g30
sg31
F150.97388200000012
sbsg32
g33
((lp1914
g229
atp1915
Rp1916
sg38
g9
sg39
I2012
sbsVAUS0000036
p1917
g2
(g3
g4
Ntp1918
Rp1919
(dp1920
g8
g9
sg10
F11.33
sg11
VLucas Heights II
p1921
sg13
Nsg14
g15
sg16
g17
sg18
g19
sg20
g9
sg21
g1917
sg22
Nsg23
g2
(g24
g4
Ntp1922
Rp1923
(dp1924
g28
F-34.048145999999974
sg29
g30
sg31
F150.97388200000012
sbsg32
g33
((lp1925
g229
atp1926
Rp1927
sg38
g9
sg39
I2012
sbsVAUS0000037
p1928
g2
(g3
g4
Ntp1929
Rp1930
(dp1931
g8
g9
sg10
F5.39
sg11
VLucas Heights I
p1932
sg13
Nsg14
g15
sg16
g17
sg18
g19
sg20
g9
sg21
g1928
sg22
Nsg23
g2
(g24
g4
Ntp1933
Rp1934
(dp1935
g28
F-34.02930199999997
sg29
g30
sg31
F151.0020720000001
sbsg32
g33
((lp1936
g229
atp1937
Rp1938
sg38
g9
sg39
I2012
sbsVAUS0000030
p1939
g2
(g3
g4
Ntp1940
Rp1941
(dp1942
g8
g9
sg10
F1.0
sg11
VWest Nowra (Shoalhaven)
p1943
sg13
Nsg14
g15
sg16
g17
sg18
g19
sg20
g9
sg21
g1939
sg22
Nsg23
g2
(g24
g4
Ntp1944
Rp1945
(dp1946
g28
F-34.88197799999995
sg29
g30
sg31
F150.55148500000007
sbsg32
g33
((lp1947
g229
atp1948
Rp1949
sg38
g9
sg39
I2012
sbsVAUS0000031
p1950
g2
(g3
g4
Ntp1951
Rp1952
(dp1953
g8
g9
sg10
F1500.0
sg11
VTumut 3
p1954
sg13
Nsg14
g15
sg16
g17
sg18
g19
sg20
g9
sg21
g1950
sg22
Nsg23
g2
(g24
g4
Ntp1955
Rp1956
(dp1957
g28
F-35.61121799999995
sg29
g30
sg31
F148.29168500000003
sbsg32
g33
((lp1958
g60
atp1959
Rp1960
sg38
g9
sg39
I2012
sbsVAUS0000032
p1961
g2
(g3
g4
Ntp1962
Rp1963
(dp1964
g8
g9
sg10
F95.8
sg11
VTrevallyn
p1965
sg13
Nsg14
g15
sg16
g17
sg18
g19
sg20
g9
sg21
g1961
sg22
Nsg23
g2
(g24
g4
Ntp1966
Rp1967
(dp1968
g28
F-41.423141999999984
sg29
g30
sg31
F147.11283000000003
sbsg32
g33
((lp1969
g60
atp1970
Rp1971
sg38
g9
sg39
I2012
sbsVAUS0000033
p1972
g2
(g3
g4
Ntp1973
Rp1974
(dp1975
g8
g9
sg10
F2.2
sg11
VSummerhill
p1976
sg13
Nsg14
g15
sg16
g17
sg18
g19
sg20
g9
sg21
g1972
sg22
Nsg23
g2
(g24
g4
Ntp1977
Rp1978
(dp1979
g28
F-32.88853299999994
sg29
g30
sg31
F151.64295400000003
sbsg32
g33
((lp1980
g229
atp1981
Rp1982
sg38
g9
sg39
I2012
sbsVAUS0000118
p1983
g2
(g3
g4
Ntp1984
Rp1985
(dp1986
g8
g9
sg10
F1.7
sg11
VTods Corner
p1987
sg13
Nsg14
g15
sg16
g17
sg18
g19
sg20
g9
sg21
g1983
sg22
Nsg23
g2
(g24
g4
Ntp1988
Rp1989
(dp1990
g28
F-41.97073199999994
sg29
g30
sg31
F146.79378500000007
sbsg32
g33
((lp1991
g60
atp1992
Rp1993
sg38
g9
sg39
I2012
sbsVAUS0000038
p1994
g2
(g3
g4
Ntp1995
Rp1996
(dp1997
g8
g9
sg10
F14.4
sg11
VJounama
p1998
sg13
Nsg14
g15
sg16
g17
sg18
g19
sg20
g9
sg21
g1994
sg22
Nsg23
g2
(g24
g4
Ntp1999
Rp2000
(dp2001
g28
F-35.56196499999993
sg29
g30
sg31
F148.305517
sbsg32
g33
((lp2002
g60
atp2003
Rp2004
sg38
g9
sg39
I2012
sbsVAUS0000039
p2005
g2
(g3
g4
Ntp2006
Rp2007
(dp2008
g8
g9
sg10
F2.3
sg11
VJacks Gully
p2009
sg13
Nsg14
g15
sg16
g17
sg18
g19
sg20
g9
sg21
g2005
sg22
Nsg23
g2
(g24
g4
Ntp2010
Rp2011
(dp2012
g28
F-34.07343999999995
sg29
g30
sg31
F150.74268900000004
sbsg32
g33
((lp2013
g229
atp2014
Rp2015
sg38
g9
sg39
I2012
sbsVAUS0000128
p2016
g2
(g3
g4
Ntp2017
Rp2018
(dp2019
g8
g9
sg10
F84.0
sg11
VTribute
p2020
sg13
Nsg14
g15
sg16
g17
sg18
g19
sg20
g9
sg21
g2016
sg22
Nsg23
g2
(g24
g4
Ntp2021
Rp2022
(dp2023
g28
F-41.811804999999936
sg29
g30
sg31
F145.65356700000007
sbsg32
g33
((lp2024
g60
atp2025
Rp2026
sg38
g9
sg39
I2012
sbsVAUS0000129
p2027
g2
(g3
g4
Ntp2028
Rp2029
(dp2030
g8
g9
sg10
F10.5
sg11
VRowallan
p2031
sg13
Nsg14
g15
sg16
g17
sg18
g19
sg20
g9
sg21
g2027
sg22
Nsg23
g2
(g24
g4
Ntp2032
Rp2033
(dp2034
g28
F-41.72952299999997
sg29
g30
sg31
F146.21759300000008
sbsg32
g33
((lp2035
g60
atp2036
Rp2037
sg38
g9
sg39
I2012
sbsVAUS0000113
p2038
g2
(g3
g4
Ntp2039
Rp2040
(dp2041
g8
g9
sg10
F2.0
sg11
VBallarat Base Hospital
p2042
sg13
Nsg14
g15
sg16
g17
sg18
g19
sg20
g9
sg21
g2038
sg22
Nsg23
g2
(g24
g4
Ntp2043
Rp2044
(dp2045
g28
F-37.55960699999997
sg29
g30
sg31
F143.84691800000007
sbsg32
g33
((lp2046
g35
atp2047
Rp2048
sg38
g9
sg39
I2012
sbsVAUS0000112
p2049
g2
(g3
g4
Ntp2050
Rp2051
(dp2052
g8
g9
sg10
F22.0
sg11
VCape Nelson North Wind Farm
p2053
sg13
Nsg14
g15
sg16
g17
sg18
g19
sg20
g9
sg21
g2049
sg22
Nsg23
g2
(g24
g4
Ntp2054
Rp2055
(dp2056
g28
F-38.367636999999945
sg29
g30
sg31
F141.5429590000001
sbsg32
g33
((lp2057
g172
atp2058
Rp2059
sg38
g9
sg39
I2012
sbsVAUS0000108
p2060
g2
(g3
g4
Ntp2061
Rp2062
(dp2063
g8
g9
sg10
F566.0
sg11
VMortlake
p2064
sg13
Nsg14
g15
sg16
g17
sg18
g19
sg20
g9
sg21
g2060
sg22
Nsg23
g2
(g24
g4
Ntp2065
Rp2066
(dp2067
g28
F-38.063169321999965
sg29
g30
sg31
F142.6674789110001
sbsg32
g33
((lp2068
g35
atp2069
Rp2070
sg38
g9
sg39
I2012
sbsVAUS0000109
p2071
g2
(g3
g4
Ntp2072
Rp2073
(dp2074
g8
g9
sg10
F185.0
sg11
VDartmouth (Mount Beauty Hydro Scheme)
p2075
sg13
Nsg14
g15
sg16
g17
sg18
g19
sg20
g9
sg21
g2071
sg22
Nsg23
g2
(g24
g4
Ntp2076
Rp2077
(dp2078
g28
F-36.55642899999998
sg29
g30
sg31
F147.5205800000001
sbsg32
g33
((lp2079
g60
atp2080
Rp2081
sg38
g9
sg39
I2012
sbsVAUS0000100
p2082
g2
(g3
g4
Ntp2083
Rp2084
(dp2085
g8
g9
sg10
F1480.0
sg11
VYallourn
p2086
sg13
Nsg14
g15
sg16
g17
sg18
g19
sg20
g9
sg21
g2082
sg22
Nsg23
g2
(g24
g4
Ntp2087
Rp2088
(dp2089
g28
F-38.17701499999998
sg29
g30
sg31
F146.34278300000005
sbsg32
g33
((lp2090
g72
atp2091
Rp2092
sg38
g9
sg39
I2012
sbsVAUS0000101
p2093
g2
(g3
g4
Ntp2094
Rp2095
(dp2096
g8
g9
sg10
F9.5
sg11
VYarrawonga
p2097
sg13
Nsg14
g15
sg16
g17
sg18
g19
sg20
g9
sg21
g2093
sg22
Nsg23
g2
(g24
g4
Ntp2098
Rp2099
(dp2100
g28
F-36.009387999999944
sg29
g30
sg31
F145.9994660000001
sbsg32
g33
((lp2101
g60
atp2102
Rp2103
sg38
g9
sg39
I2012
sbsVAUS0000102
p2104
g2
(g3
g4
Ntp2105
Rp2106
(dp2107
g8
g9
sg10
F140.0
sg11
VBogong (Mount Beauty Hydro Scheme)
p2108
sg13
Nsg14
g15
sg16
g17
sg18
g19
sg20
g9
sg21
g2104
sg22
Nsg23
g2
(g24
g4
Ntp2109
Rp2110
(dp2111
g28
F-36.80546099999998
sg29
g30
sg31
F147.2280340000001
sbsg32
g33
((lp2112
g60
atp2113
Rp2114
sg38
g9
sg39
I2012
sbsVAUS0000103
p2115
g2
(g3
g4
Ntp2116
Rp2117
(dp2118
g8
g9
sg10
F29.0
sg11
VClover
p2119
sg13
Nsg14
g15
sg16
g17
sg18
g19
sg20
g9
sg21
g2115
sg22
Nsg23
g2
(g24
g4
Ntp2120
Rp2121
(dp2122
g28
F-36.78528099999994
sg29
g30
sg31
F147.2204660000001
sbsg32
g33
((lp2123
g60
atp2124
Rp2125
sg38
g9
sg39
I2012
sbsVAUS0000104
p2126
g2
(g3
g4
Ntp2127
Rp2128
(dp2129
g8
g9
sg10
F150.0
sg11
VMcKay Creek (Mount Beauty Hydro Scheme)
p2130
sg13
Nsg14
g15
sg16
g17
sg18
g19
sg20
g9
sg21
g2126
sg22
Nsg23
g2
(g24
g4
Ntp2131
Rp2132
(dp2133
g28
F-36.858393999999976
sg29
g30
sg31
F147.23454200000003
sbsg32
g33
((lp2134
g60
atp2135
Rp2136
sg38
g9
sg39
I2012
sbsVAUS0000105
p2137
g2
(g3
g4
Ntp2138
Rp2139
(dp2140
g8
g9
sg10
F60.0
sg11
VWest Kiewa (Mount Beauty Hydro Scheme)
p2141
sg13
Nsg14
g15
sg16
g17
sg18
g19
sg20
g9
sg21
g2137
sg22
Nsg23
g2
(g24
g4
Ntp2142
Rp2143
(dp2144
g28
F-36.76006599999994
sg29
g30
sg31
F147.18604800000003
sbsg32
g33
((lp2145
g60
atp2146
Rp2147
sg38
g9
sg39
I2012
sbsVAUS0000106
p2148
g2
(g3
g4
Ntp2149
Rp2150
(dp2151
g8
g9
sg10
F552.0
sg11
VMurray 2
p2152
sg13
Nsg14
g15
sg16
g17
sg18
g19
sg20
g9
sg21
g2148
sg22
Nsg23
g2
(g24
g4
Ntp2153
Rp2154
(dp2155
g28
F-36.242343999999946
sg29
g30
sg31
F148.13624700000003
sbsg32
g33
((lp2156
g60
atp2157
Rp2158
sg38
g9
sg39
I2012
sbsVAUS0000107
p2159
g2
(g3
g4
Ntp2160
Rp2161
(dp2162
g8
g9
sg10
F950.0
sg11
VMurray 1
p2163
sg13
Nsg14
g15
sg16
g17
sg18
g19
sg20
g9
sg21
g2159
sg22
Nsg23
g2
(g24
g4
Ntp2164
Rp2165
(dp2166
g28
F-36.24671299999994
sg29
g30
sg31
F148.19009500000004
sbsg32
g33
((lp2167
g60
atp2168
Rp2169
sg38
g9
sg39
I2012
sbsVAUS0000463
p2170
g2
(g3
g4
Ntp2171
Rp2172
(dp2173
g8
g9
sg10
F0.35
sg11
VUmuwa
p2174
sg13
Nsg14
g15
sg16
g17
sg18
g19
sg20
g9
sg21
g2170
sg22
Nsg23
g2
(g24
g4
Ntp2175
Rp2176
(dp2177
g28
F-26.47355590099994
sg29
g30
sg31
F132.01465681700006
sbsg32
g33
((lp2178
g902
atp2179
Rp2180
sg38
g9
sg39
I2012
sbsVAUS0000462
p2181
g2
(g3
g4
Ntp2182
Rp2183
(dp2184
g8
g9
sg10
F0.01
sg11
VErnabella
p2185
sg13
Nsg14
g15
sg16
g17
sg18
g19
sg20
g9
sg21
g2181
sg22
Nsg23
g2
(g24
g4
Ntp2186
Rp2187
(dp2188
g28
F-26.277960621999966
sg29
g30
sg31
F132.1313709970001
sbsg32
g33
((lp2189
g195
atp2190
Rp2191
sg38
g9
sg39
I2012
sbsVAUS0000461
p2192
g2
(g3
g4
Ntp2193
Rp2194
(dp2195
g8
g9
sg10
F120.0
sg11
VCape Lambert
p2196
sg13
Nsg14
g15
sg16
g17
sg18
g19
sg20
g9
sg21
g2192
sg22
Nsg23
g2
(g24
g4
Ntp2197
Rp2198
(dp2199
g28
F-20.648770635999938
sg29
g30
sg31
F117.14073131500004
sbsg32
g33
((lp2200
g35
atp2201
Rp2202
sg38
g9
sg39
I2014
sbsVAUS0000460
p2203
g2
(g3
g4
Ntp2204
Rp2205
(dp2206
g8
g9
sg10
F33.0
sg11
VBulwer Island
p2207
sg13
Nsg14
g15
sg16
g17
sg18
g19
sg20
g9
sg21
g2203
sg22
Nsg23
g2
(g24
g4
Ntp2208
Rp2209
(dp2210
g28
F-27.40357955299993
sg29
g30
sg31
F153.13628579200008
sbsg32
g33
((lp2211
g35
atp2212
Rp2213
sg38
g9
sg39
NsbsVAUS0000467
p2214
g2
(g3
g4
Ntp2215
Rp2216
(dp2217
g8
g9
sg10
F0.3
sg11
VDoubleTree by Hilton Hotel
p2218
sg13
Nsg14
g15
sg16
g17
sg18
g19
sg20
g9
sg21
g2214
sg22
Nsg23
g2
(g24
g4
Ntp2219
Rp2220
(dp2221
g28
F-23.714967607999938
sg29
g30
sg31
F133.87945391000005
sbsg32
g33
((lp2222
g902
atp2223
Rp2224
sg38
g9
sg39
I2014
sbsVAUS0000466
p2225
g2
(g3
g4
Ntp2226
Rp2227
(dp2228
g8
g9
sg10
F0.13
sg11
VWindorah
p2229
sg13
Nsg14
g15
sg16
g17
sg18
g19
sg20
g9
sg21
g2225
sg22
Nsg23
g2
(g24
g4
Ntp2230
Rp2231
(dp2232
g28
F-25.412664425999935
sg29
g30
sg31
F142.66076150300012
sbsg32
g33
((lp2233
g902
atp2234
Rp2235
sg38
g9
sg39
I2014
sbsVAUS0000465
p2236
g2
(g3
g4
Ntp2237
Rp2238
(dp2239
g8
g9
sg10
F0.29
sg11
VLajamanu
p2240
sg13
Nsg14
g15
sg16
g17
sg18
g19
sg20
g9
sg21
g2236
sg22
Nsg23
g2
(g24
g4
Ntp2241
Rp2242
(dp2243
g28
F-18.32650366699994
sg29
g30
sg31
F130.62948965300006
sbsg32
g33
((lp2244
g902
atp2245
Rp2246
sg38
g9
sg39
I2014
sbsVAUS0000464
p2247
g2
(g3
g4
Ntp2248
Rp2249
(dp2250
g8
g9
sg10
F0.24
sg11
VYuendumu
p2251
sg13
Nsg14
g15
sg16
g17
sg18
g19
sg20
g9
sg21
g2247
sg22
Nsg23
g2
(g24
g4
Ntp2252
Rp2253
(dp2254
g28
F-22.242590623999945
sg29
g30
sg31
F131.79314572300007
sbsg32
g33
((lp2255
g902
atp2256
Rp2257
sg38
g9
sg39
I2014
sbsVAUS0000469
p2258
g2
(g3
g4
Ntp2259
Rp2260
(dp2261
g8
g9
sg10
F1.0
sg11
VUterne Solar
p2262
sg13
Nsg14
g15
sg16
g17
sg18
g19
sg20
g9
sg21
g2258
sg22
Nsg23
g2
(g24
g4
Ntp2263
Rp2264
(dp2265
g28
F-23.768517390999932
sg29
g30
sg31
F133.86821016400006
sbsg32
g33
((lp2266
g902
atp2267
Rp2268
sg38
g9
sg39
I2014
sbsVAUS0000468
p2269
g2
(g3
g4
Ntp2270
Rp2271
(dp2272
g8
g9
sg10
F0.24
sg11
VAlice Springs Airport
p2273
sg13
Nsg14
g15
sg16
g17
sg18
g19
sg20
g9
sg21
g2269
sg22
Nsg23
g2
(g24
g4
Ntp2274
Rp2275
(dp2276
g28
F-23.796569829999953
sg29
g30
sg31
F133.89712081200003
sbsg32
g33
((lp2277
g902
atp2278
Rp2279
sg38
g9
sg39
I2014
sbsVAUS0000355
p2280
g2
(g3
g4
Ntp2281
Rp2282
(dp2283
g8
g9
sg10
F3.2
sg11
VHenderson
p2284
sg13
Nsg14
g15
sg16
g17
sg18
g19
sg20
g9
sg21
g2280
sg22
Nsg23
g2
(g24
g4
Ntp2285
Rp2286
(dp2287
g28
F-32.16502101899994
sg29
g30
sg31
F115.80080012300004
sbsg32
g33
((lp2288
g229
atp2289
Rp2290
sg38
g9
sg39
I2012
sbsVAUS0000354
p2291
g2
(g3
g4
Ntp2292
Rp2293
(dp2294
g8
g9
sg10
F1.8
sg11
VWoodman Point
p2295
sg13
Nsg14
g15
sg16
g17
sg18
g19
sg20
g9
sg21
g2291
sg22
Nsg23
g2
(g24
g4
Ntp2296
Rp2297
(dp2298
g28
F-32.14241985999996
sg29
g30
sg31
F115.77130495800009
sbsg32
g33
((lp2299
g229
atp2300
Rp2301
sg38
g9
sg39
I2012
sbsVAUS0000357
p2302
g2
(g3
g4
Ntp2303
Rp2304
(dp2305
g8
g9
sg10
F1.3
sg11
VMandurah
p2306
sg13
Nsg14
g15
sg16
g17
sg18
g19
sg20
g9
sg21
g2302
sg22
Nsg23
g2
(g24
g4
Ntp2307
Rp2308
(dp2309
g28
F-32.50791826999995
sg29
g30
sg31
F115.75895724000009
sbsg32
g33
((lp2310
g229
atp2311
Rp2312
sg38
g9
sg39
I2012
sbsVAUS0000356
p2313
g2
(g3
g4
Ntp2314
Rp2315
(dp2316
g8
g9
sg10
F4.65
sg11
VTamala Park
p2317
sg13
Nsg14
g15
sg16
g17
sg18
g19
sg20
g9
sg21
g2313
sg22
Nsg23
g2
(g24
g4
Ntp2318
Rp2319
(dp2320
g28
F-31.707786128999942
sg29
g30
sg31
F115.72664485300004
sbsg32
g33
((lp2321
g229
atp2322
Rp2323
sg38
g9
sg39
I2012
sbsVAUS0000218
p2324
g2
(g3
g4
Ntp2325
Rp2326
(dp2327
g8
g9
sg10
F180.0
sg11
VYurralyi Maya (Karratha Seven Mile)
p2328
sg13
Nsg14
g15
sg16
g17
sg18
g19
sg20
g9
sg21
g2324
sg22
Nsg23
g2
(g24
g4
Ntp2329
Rp2330
(dp2331
g28
F-20.761999999999944
sg29
g30
sg31
F116.74200000000008
sbsg32
g33
((lp2332
g35
atp2333
Rp2334
sg38
g9
sg39
I2012
sbsVAUS0000219
p2335
g2
(g3
g4
Ntp2336
Rp2337
(dp2338
g8
g9
sg10
F30.6
sg11
VLaverton (Granny Smith Gold Mine)
p2339
sg13
Nsg14
g15
sg16
g17
sg18
g19
sg20
g9
sg21
g2335
sg22
Nsg23
g2
(g24
g4
Ntp2340
Rp2341
(dp2342
g28
F-28.80964899999998
sg29
g30
sg31
F122.41502900000012
sbsg32
g33
((lp2343
g195
atp2344
Rp2345
sg38
g9
sg39
I2012
sbsVAUS0000353
p2346
g2
(g3
g4
Ntp2347
Rp2348
(dp2349
g8
g9
sg10
F1.6
sg11
VDenham Diesel Backup
p2350
sg13
Nsg14
g15
sg16
g17
sg18
g19
sg20
g9
sg21
g2346
sg22
Nsg23
g2
(g24
g4
Ntp2351
Rp2352
(dp2353
g28
F-25.916724838999983
sg29
g30
sg31
F113.5339545280001
sbsg32
g33
((lp2354
g195
atp2355
Rp2356
sg38
g9
sg39
I2012
sbsVAUS0000352
p2357
g2
(g3
g4
Ntp2358
Rp2359
(dp2360
g8
g9
sg10
F0.92
sg11
VDenham Wind Turbines
p2361
sg13
Nsg14
g15
sg16
g17
sg18
g19
sg20
g9
sg21
g2357
sg22
Nsg23
g2
(g24
g4
Ntp2362
Rp2363
(dp2364
g28
F-25.91152386799996
sg29
g30
sg31
F113.54931095000006
sbsg32
g33
((lp2365
g172
atp2366
Rp2367
sg38
g9
sg39
I2012
sbsVAUS0000214
p2368
g2
(g3
g4
Ntp2369
Rp2370
(dp2371
g8
g9
sg10
F400.0
sg11
VMuja C
p2372
sg13
Nsg14
g15
sg16
g17
sg18
g19
sg20
g9
sg21
g2368
sg22
Nsg23
g2
(g24
g4
Ntp2373
Rp2374
(dp2375
g28
F-33.445810999999935
sg29
g30
sg31
F116.30601200000001
sbsg32
g33
((lp2376
g72
atp2377
Rp2378
sg38
g9
sg39
I2012
sbsVAUS0000215
p2379
g2
(g3
g4
Ntp2380
Rp2381
(dp2382
g8
g9
sg10
F454.0
sg11
VMuja D
p2383
sg13
Nsg14
g15
sg16
g17
sg18
g19
sg20
g9
sg21
g2379
sg22
Nsg23
g2
(g24
g4
Ntp2384
Rp2385
(dp2386
g28
F-33.44615999999996
sg29
g30
sg31
F116.30721300000005
sbsg32
g33
((lp2387
g72
atp2388
Rp2389
sg38
g9
sg39
I2012
sbsVAUS0000216
p2390
g2
(g3
g4
Ntp2391
Rp2392
(dp2393
g8
g9
sg10
F112.0
sg11
VMungarra
p2394
sg13
Nsg14
g15
sg16
g17
sg18
g19
sg20
g9
sg21
g2390
sg22
Nsg23
g2
(g24
g4
Ntp2395
Rp2396
(dp2397
g28
F-28.889321999999936
sg29
g30
sg31
F115.1179380000001
sbsg32
g33
((lp2398
g35
atp2399
Rp2400
sg38
g9
sg39
I2012
sbsVAUS0000217
p2401
g2
(g3
g4
Ntp2402
Rp2403
(dp2404
g8
g9
sg10
F106.0
sg11
VWorsley Cogeneration
p2405
sg13
Nsg14
g15
sg16
g17
sg18
g19
sg20
g9
sg21
g2401
sg22
Nsg23
g2
(g24
g4
Ntp2406
Rp2407
(dp2408
g28
F-33.23654589699993
sg29
g30
sg31
F116.06373772800009
sbsg32
g33
((lp2409
g35
atp2410
Rp2411
sg38
g9
sg39
I2012
sbsVAUS0000210
p2412
g2
(g3
g4
Ntp2413
Rp2414
(dp2415
g8
g9
sg10
F42.0
sg11
VKambalda
p2416
sg13
Nsg14
g15
sg16
g17
sg18
g19
sg20
g9
sg21
g2412
sg22
Nsg23
g2
(g24
g4
Ntp2417
Rp2418
(dp2419
g28
F-31.191934793999962
sg29
g30
sg31
F121.67408425000008
sbsg32
g33
((lp2420
g35
atp2421
Rp2422
sg38
g9
sg39
I2012
sbsVAUS0000211
p2423
g2
(g3
g4
Ntp2424
Rp2425
(dp2426
g8
g9
sg10
F310.0
sg11
VKemerton
p2427
sg13
Nsg14
g15
sg16
g17
sg18
g19
sg20
g9
sg21
g2423
sg22
Nsg23
g2
(g24
g4
Ntp2428
Rp2429
(dp2430
g28
F-33.16324999999995
sg29
g30
sg31
F115.78054000000009
sbsg32
g33
((lp2431
g35
atp2432
Rp2433
sg38
g9
sg39
I2012
sbsVAUS0000212
p2434
g2
(g3
g4
Ntp2435
Rp2436
(dp2437
g8
g9
sg10
F59.0
sg11
VLeinster Nickel Mine
p2438
sg13
Nsg14
g15
sg16
g17
sg18
g19
sg20
g9
sg21
g2434
sg22
Nsg23
g2
(g24
g4
Ntp2439
Rp2440
(dp2441
g28
F-27.814121499999942
sg29
g30
sg31
F120.69899650000002
sbsg32
g33
((lp2442
g35
atp2443
Rp2444
sg38
g9
sg39
I2012
sbsVAUS0000213
p2445
g2
(g3
g4
Ntp2446
Rp2447
(dp2448
g8
g9
sg10
F112.0
sg11
VMount Keith Nickel Mine
p2449
sg13
Nsg14
g15
sg16
g17
sg18
g19
sg20
g9
sg21
g2445
sg22
Nsg23
g2
(g24
g4
Ntp2450
Rp2451
(dp2452
g28
F-27.214582999999948
sg29
g30
sg31
F120.54797900000005
sbsg32
g33
((lp2453
g35
atp2454
Rp2455
sg38
g9
sg39
I2012
sbsVAUS0000070
p2456
g2
(g3
g4
Ntp2457
Rp2458
(dp2459
g8
g9
sg10
F3.3
sg11
VTi Tree Bioenergy
p2460
sg13
Nsg14
g15
sg16
g17
sg18
g19
sg20
g9
sg21
g2456
sg22
Nsg23
g2
(g24
g4
Ntp2461
Rp2462
(dp2463
g28
F-27.680163999999934
sg29
g30
sg31
F152.65929500000004
sbsg32
g33
((lp2464
g229
atp2465
Rp2466
sg38
g9
sg39
I2012
sbsVAUS0000071
p2467
g2
(g3
g4
Ntp2468
Rp2469
(dp2470
g8
g9
sg10
F4.12
sg11
VSpringvale
p2471
sg13
Nsg14
g15
sg16
g17
sg18
g19
sg20
g9
sg21
g2467
sg22
Nsg23
g2
(g24
g4
Ntp2472
Rp2473
(dp2474
g28
F-37.973296999999945
sg29
g30
sg31
F145.1396350000001
sbsg32
g33
((lp2475
g229
atp2476
Rp2477
sg38
g9
sg39
I2012
sbsVAUS0000072
p2478
g2
(g3
g4
Ntp2479
Rp2480
(dp2481
g8
g9
sg10
F1.0
sg11
VRoghan Road
p2482
sg13
Nsg14
g15
sg16
g17
sg18
g19
sg20
g9
sg21
g2478
sg22
Nsg23
g2
(g24
g4
Ntp2483
Rp2484
(dp2485
g28
F-27.33876799999996
sg29
g30
sg31
F153.03435000000002
sbsg32
g33
((lp2486
g229
atp2487
Rp2488
sg38
g9
sg39
I2012
sbsVAUS0000073
p2489
g2
(g3
g4
Ntp2490
Rp2491
(dp2492
g8
g9
sg10
F4.2
sg11
VRochedale
p2493
sg13
Nsg14
g15
sg16
g17
sg18
g19
sg20
g9
sg21
g2489
sg22
Nsg23
g2
(g24
g4
Ntp2494
Rp2495
(dp2496
g28
F-27.559116999999958
sg29
g30
sg31
F153.12363400000004
sbsg32
g33
((lp2497
g229
atp2498
Rp2499
sg38
g9
sg39
I2012
sbsVAUS0000074
p2500
g2
(g3
g4
Ntp2501
Rp2502
(dp2503
g8
g9
sg10
F14.0
sg11
VPlane Creek Sugar Mill
p2504
sg13
Nsg14
g15
sg16
g17
sg18
g19
sg20
g9
sg21
g2500
sg22
Nsg23
g2
(g24
g4
Ntp2505
Rp2506
(dp2507
g28
F-21.428222999999946
sg29
g30
sg31
F149.21591200000012
sbsg32
g33
((lp2508
g285
atp2509
Rp2510
sg38
g9
sg39
I2012
sbsVAUS0000075
p2511
g2
(g3
g4
Ntp2512
Rp2513
(dp2514
g8
g9
sg10
F1000.0
sg11
VLoy Yang B
p2515
sg13
Nsg14
g15
sg16
g17
sg18
g19
sg20
g9
sg21
g2511
sg22
Nsg23
g2
(g24
g4
Ntp2516
Rp2517
(dp2518
g28
F-38.25644699999998
sg29
g30
sg31
F146.5863700000001
sbsg32
g33
((lp2519
g72
atp2520
Rp2521
sg38
g9
sg39
I2012
sbsVAUS0000076
p2522
g2
(g3
g4
Ntp2523
Rp2524
(dp2525
g8
g9
sg10
F58.0
sg11
VHume
p2526
sg13
Nsg14
g15
sg16
g17
sg18
g19
sg20
g9
sg21
g2522
sg22
Nsg23
g2
(g24
g4
Ntp2527
Rp2528
(dp2529
g28
F-36.10661899999997
sg29
g30
sg31
F147.03262200000006
sbsg32
g33
((lp2530
g60
atp2531
Rp2532
sg38
g9
sg39
I2012
sbsVAUS0000077
p2533
g2
(g3
g4
Ntp2534
Rp2535
(dp2536
g8
g9
sg10
F6.7
sg11
VHallam Road
p2537
sg13
Nsg14
g15
sg16
g17
sg18
g19
sg20
g9
sg21
g2533
sg22
Nsg23
g2
(g24
g4
Ntp2538
Rp2539
(dp2540
g28
F-38.053342999999984
sg29
g30
sg31
F145.26985600000012
sbsg32
g33
((lp2541
g229
atp2542
Rp2543
sg38
g9
sg39
I2012
sbsVAUS0000078
p2544
g2
(g3
g4
Ntp2545
Rp2546
(dp2547
g8
g9
sg10
F2.2
sg11
VBrowns Plains
p2548
sg13
Nsg14
g15
sg16
g17
sg18
g19
sg20
g9
sg21
g2544
sg22
Nsg23
g2
(g24
g4
Ntp2549
Rp2550
(dp2551
g28
F-27.67213099999998
sg29
g30
sg31
F153.06634600000007
sbsg32
g33
((lp2552
g229
atp2553
Rp2554
sg38
g9
sg39
I2012
sbsVAUS0000079
p2555
g2
(g3
g4
Ntp2556
Rp2557
(dp2558
g8
g9
sg10
F2.8
sg11
VBrooklyn
p2559
sg13
Nsg14
g15
sg16
g17
sg18
g19
sg20
g9
sg21
g2555
sg22
Nsg23
g2
(g24
g4
Ntp2560
Rp2561
(dp2562
g28
F-37.81796699999995
sg29
g30
sg31
F144.83187600000008
sbsg32
g33
((lp2563
g229
atp2564
Rp2565
sg38
g9
sg39
I2012
sbsVAUS0000238
p2566
g2
(g3
g4
Ntp2567
Rp2568
(dp2569
g8
g9
sg10
F73.5
sg11
VPort Lincoln
p2570
sg13
Nsg14
g15
sg16
g17
sg18
g19
sg20
g9
sg21
g2566
sg22
Nsg23
g2
(g24
g4
Ntp2571
Rp2572
(dp2573
g28
F-34.700189999999964
sg29
g30
sg31
F135.80472800000007
sbsg32
g33
((lp2574
g195
atp2575
Rp2576
sg38
g9
sg39
I2012
sbsVAUS0000330
p2577
g2
(g3
g4
Ntp2578
Rp2579
(dp2580
g8
g9
sg10
F4.0
sg11
VCanning Vale
p2581
sg13
Nsg14
g15
sg16
g17
sg18
g19
sg20
g9
sg21
g2577
sg22
Nsg23
g2
(g24
g4
Ntp2582
Rp2583
(dp2584
g28
F-32.073898749999955
sg29
g30
sg31
F115.89140569100005
sbsg32
g33
((lp2585
g229
atp2586
Rp2587
sg38
g9
sg39
I2012
sbsVAUS0000416
p2588
g2
(g3
g4
Ntp2589
Rp2590
(dp2591
g8
g9
sg10
F150.0
sg11
VBuronga
p2592
sg13
Nsg14
g15
sg16
g17
sg18
g19
sg20
g9
sg21
g2588
sg22
Nsg23
g2
(g24
g4
Ntp2593
Rp2594
(dp2595
g28
F-34.10134192299995
sg29
g30
sg31
F142.26166023300004
sbsg32
g33
((lp2596
g35
atp2597
Rp2598
sg38
g9
sg39
I2012
sbsVAUS0000417
p2599
g2
(g3
g4
Ntp2600
Rp2601
(dp2602
g8
g9
sg10
F420.0
sg11
VMacarthur Wind Farm
p2603
sg13
Nsg14
g15
sg16
g17
sg18
g19
sg20
g9
sg21
g2599
sg22
Nsg23
g2
(g24
g4
Ntp2604
Rp2605
(dp2606
g28
F-38.00752684299994
sg29
g30
sg31
F142.18651013700003
sbsg32
g33
((lp2607
g172
atp2608
Rp2609
sg38
g9
sg39
I2012
sbsVAUS0000429
p2610
g2
(g3
g4
Ntp2611
Rp2612
(dp2613
g8
g9
sg10
F0.25
sg11
VQueen Victoria Market Solar Array
p2614
sg13
Nsg14
g15
sg16
g17
sg18
g19
sg20
g9
sg21
g2610
sg22
Nsg23
g2
(g24
g4
Ntp2615
Rp2616
(dp2617
g28
F-37.80694397399998
sg29
g30
sg31
F144.9569437770001
sbsg32
g33
((lp2618
g902
atp2619
Rp2620
sg38
g9
sg39
I2012
sbsVAUS0000428
p2621
g2
(g3
g4
Ntp2622
Rp2623
(dp2624
g8
g9
sg10
F0.18
sg11
VMonash University (Clayton Campus) Solar Array
p2625
sg13
Nsg14
g15
sg16
g17
sg18
g19
sg20
g9
sg21
g2621
sg22
Nsg23
g2
(g24
g4
Ntp2626
Rp2627
(dp2628
g28
F-37.91178734799996
sg29
g30
sg31
F145.13299610500007
sbsg32
g33
((lp2629
g902
atp2630
Rp2631
sg38
g9
sg39
I2012
sbsVAUS0000427
p2632
g2
(g3
g4
Ntp2633
Rp2634
(dp2635
g8
g9
sg10
F0.14
sg11
VBridgewater Solar
p2636
sg13
Nsg14
g15
sg16
g17
sg18
g19
sg20
g9
sg21
g2632
sg22
Nsg23
g2
(g24
g4
Ntp2637
Rp2638
(dp2639
g28
F-36.61349914099998
sg29
g30
sg31
F143.9528805340001
sbsg32
g33
((lp2640
g902
atp2641
Rp2642
sg38
g9
sg39
I2012
sbsVAUS0000426
p2643
g2
(g3
g4
Ntp2644
Rp2645
(dp2646
g8
g9
sg10
F0.24
sg11
VTulla Calder Interchange Solar Array
p2647
sg13
Nsg14
g15
sg16
g17
sg18
g19
sg20
g9
sg21
g2643
sg22
Nsg23
g2
(g24
g4
Ntp2648
Rp2649
(dp2650
g28
F-37.73527874299998
sg29
g30
sg31
F144.894816826
sbsg32
g33
((lp2651
g902
atp2652
Rp2653
sg38
g9
sg39
I2012
sbsVAUS0000425
p2654
g2
(g3
g4
Ntp2655
Rp2656
(dp2657
g8
g9
sg10
F2.37
sg11
VPerth Zoo
p2658
sg13
Nsg14
g15
sg16
g17
sg18
g19
sg20
g9
sg21
g2654
sg22
Nsg23
g2
(g24
g4
Ntp2659
Rp2660
(dp2661
g28
F-31.976662782999938
sg29
g30
sg31
F115.85478006900007
sbsg32
g33
((lp2662
g902
atp2663
Rp2664
sg38
g9
sg39
I2012
sbsVAUS0000424
p2665
g2
(g3
g4
Ntp2666
Rp2667
(dp2668
g8
g9
sg10
F1.2
sg11
VUniversity of Queensland (St Lucia Campus) Solar Array
p2669
sg13
Nsg14
g15
sg16
g17
sg18
g19
sg20
g9
sg21
g2665
sg22
Nsg23
g2
(g24
g4
Ntp2670
Rp2671
(dp2672
g28
F-27.494958560999976
sg29
g30
sg31
F153.01013752400002
sbsg32
g33
((lp2673
g902
atp2674
Rp2675
sg38
g9
sg39
I2012
sbsVAUS0000423
p2676
g2
(g3
g4
Ntp2677
Rp2678
(dp2679
g8
g9
sg10
F20.9
sg11
VMcArthur River Mine
p2680
sg13
Nsg14
g15
sg16
g17
sg18
g19
sg20
g9
sg21
g2676
sg22
Nsg23
g2
(g24
g4
Ntp2681
Rp2682
(dp2683
g28
F-16.433498250999946
sg29
g30
sg31
F136.09345945200005
sbsg32
g33
((lp2684
g35
atp2685
Rp2686
sg38
g9
sg39
I2012
sbsVAUS0000230
p2687
g2
(g3
g4
Ntp2688
Rp2689
(dp2690
g8
g9
sg10
F159.0
sg11
VTelfer Gold Mine
p2691
sg13
Nsg14
g15
sg16
g17
sg18
g19
sg20
g9
sg21
g2687
sg22
Nsg23
g2
(g24
g4
Ntp2692
Rp2693
(dp2694
g28
F-21.712910999999963
sg29
g30
sg31
F122.20910300000003
sbsg32
g33
((lp2695
g35
atp2696
Rp2697
sg38
g9
sg39
I2012
sbsVAUS0000421
p2698
g2
(g3
g4
Ntp2699
Rp2700
(dp2701
g8
g9
sg10
F0.24
sg11
VKings Canyon
p2702
sg13
Nsg14
g15
sg16
g17
sg18
g19
sg20
g9
sg21
g2698
sg22
Nsg23
g2
(g24
g4
Ntp2703
Rp2704
(dp2705
g28
F-24.25091958799993
sg29
g30
sg31
F131.50064981900005
sbsg32
g33
((lp2706
g902
atp2707
Rp2708
sg38
g9
sg39
I2012
sbsVAUS0000420
p2709
g2
(g3
g4
Ntp2710
Rp2711
(dp2712
g8
g9
sg10
F168.0
sg11
VMusselroe
p2713
sg13
Nsg14
g15
sg16
g17
sg18
g19
sg20
g9
sg21
g2709
sg22
Nsg23
g2
(g24
g4
Ntp2714
Rp2715
(dp2716
g28
F-40.779757995999944
sg29
g30
sg31
F148.00975916900006
sbsg32
g33
((lp2717
g172
atp2718
Rp2719
sg38
g9
sg39
I2013
sbsVAUS0000258
p2720
g2
(g3
g4
Ntp2721
Rp2722
(dp2723
g8
g9
sg10
F34.76
sg11
VPine Creek
p2724
sg13
Nsg14
g15
sg16
g17
sg18
g19
sg20
g9
sg21
g2720
sg22
Nsg23
g2
(g24
g4
Ntp2725
Rp2726
(dp2727
g28
F-13.785609999999963
sg29
g30
sg31
F131.86236200000008
sbsg32
g33
((lp2728
g35
atp2729
Rp2730
sg38
g9
sg39
I2012
sbsVAUS0000259
p2731
g2
(g3
g4
Ntp2732
Rp2733
(dp2734
g8
g9
sg10
F21.0
sg11
VKatherine
p2735
sg13
Nsg14
g15
sg16
g17
sg18
g19
sg20
g9
sg21
g2731
sg22
Nsg23
g2
(g24
g4
Ntp2736
Rp2737
(dp2738
g28
F-14.458692999999926
sg29
g30
sg31
F132.24450600000011
sbsg32
g33
((lp2739
g35
atp2740
Rp2741
sg38
g9
sg39
I2012
sbsVAUS0000393
p2742
g2
(g3
g4
Ntp2743
Rp2744
(dp2745
g8
g9
sg10
F120.0
sg11
VMuja A
p2746
sg13
Nsg14
g15
sg16
g17
sg18
g19
sg20
g9
sg21
g2742
sg22
Nsg23
g2
(g24
g4
Ntp2747
Rp2748
(dp2749
g28
F-33.44667107299995
sg29
g30
sg31
F116.30810859200005
sbsg32
g33
((lp2750
g72
atp2751
Rp2752
sg38
g9
sg39
I2012
sbsVAUS0000231
p2753
g2
(g3
g4
Ntp2754
Rp2755
(dp2756
g8
g9
sg10
F4.0
sg11
VAmcor Gawler
p2757
sg13
Nsg14
g15
sg16
g17
sg18
g19
sg20
g9
sg21
g2753
sg22
Nsg23
g2
(g24
g4
Ntp2758
Rp2759
(dp2760
g28
F-34.55085699999995
sg29
g30
sg31
F138.76586400000008
sbsg32
g33
((lp2761
g195
atp2762
Rp2763
sg38
g9
sg39
I2012
sbsVAUS0000395
p2764
g2
(g3
g4
Ntp2765
Rp2766
(dp2767
g8
g9
sg10
F200.0
sg11
VBen Lomond
p2768
sg13
Nsg14
g15
sg16
g17
sg18
g19
sg20
g9
sg21
g2764
sg22
Nsg23
g2
(g24
g4
Ntp2769
Rp2770
(dp2771
g28
F-29.962256424999964
sg29
g30
sg31
F151.65852993400006
sbsg32
g33
((lp2772
g172
atp2773
Rp2774
sg38
g9
sg39
I2012
sbsVAUS0000394
p2775
g2
(g3
g4
Ntp2776
Rp2777
(dp2778
g8
g9
sg10
F270.0
sg11
VBoco Rock
p2779
sg13
Nsg14
g15
sg16
g17
sg18
g19
sg20
g9
sg21
g2775
sg22
Nsg23
g2
(g24
g4
Ntp2780
Rp2781
(dp2782
g28
F-36.591414215999976
sg29
g30
sg31
F149.12967511600004
sbsg32
g33
((lp2783
g172
atp2784
Rp2785
sg38
g9
sg39
I2012
sbsVAUS0000397
p2786
g2
(g3
g4
Ntp2787
Rp2788
(dp2789
g8
g9
sg10
F320.0
sg11
VBamarang
p2790
sg13
Nsg14
g15
sg16
g17
sg18
g19
sg20
g9
sg21
g2786
sg22
Nsg23
g2
(g24
g4
Ntp2791
Rp2792
(dp2793
g28
F-34.902981058999956
sg29
g30
sg31
F150.52582206400007
sbsg32
g33
((lp2794
g35
atp2795
Rp2796
sg38
g9
sg39
I2012
sbsVAUS0000396
p2797
g2
(g3
g4
Ntp2798
Rp2799
(dp2800
g8
g9
sg10
F600.0
sg11
VBannaby
p2801
sg13
Nsg14
g15
sg16
g17
sg18
g19
sg20
g9
sg21
g2797
sg22
Nsg23
g2
(g24
g4
Ntp2802
Rp2803
(dp2804
g28
F-34.43176223299997
sg29
g30
sg31
F150.05305831200008
sbsg32
g33
((lp2805
g35
atp2806
Rp2807
sg38
g9
sg39
I2012
sbsVAUS0000250
p2808
g2
(g3
g4
Ntp2809
Rp2810
(dp2811
g8
g9
sg10
F228.3
sg11
VHallett
p2812
sg13
Nsg14
g15
sg16
g17
sg18
g19
sg20
g9
sg21
g2808
sg22
Nsg23
g2
(g24
g4
Ntp2813
Rp2814
(dp2815
g28
F-33.34865199999996
sg29
g30
sg31
F138.75165900000002
sbsg32
g33
((lp2816
g35
atp2817
Rp2818
sg38
g9
sg39
I2012
sbsVAUS0000251
p2819
g2
(g3
g4
Ntp2820
Rp2821
(dp2822
g8
g9
sg10
F10.0
sg11
VBerrimah
p2823
sg13
Nsg14
g15
sg16
g17
sg18
g19
sg20
g9
sg21
g2819
sg22
Nsg23
g2
(g24
g4
Ntp2824
Rp2825
(dp2826
g28
F-12.426175999999941
sg29
g30
sg31
F130.91947600000003
sbsg32
g33
((lp2827
g35
atp2828
Rp2829
sg38
g9
sg39
I2012
sbsVAUS0000252
p2830
g2
(g3
g4
Ntp2831
Rp2832
(dp2833
g8
g9
sg10
F1.1
sg11
VLandfill Management Services Shoal Bay
p2834
sg13
Nsg14
g15
sg16
g17
sg18
g19
sg20
g9
sg21
g2830
sg22
Nsg23
g2
(g24
g4
Ntp2835
Rp2836
(dp2837
g28
F-12.389173999999969
sg29
g30
sg31
F130.92540800000006
sbsg32
g33
((lp2838
g229
atp2839
Rp2840
sg38
g9
sg39
I2012
sbsVAUS0000253
p2841
g2
(g3
g4
Ntp2842
Rp2843
(dp2844
g8
g9
sg10
F18.2
sg11
VTennant Creek
p2845
sg13
Nsg14
g15
sg16
g17
sg18
g19
sg20
g9
sg21
g2841
sg22
Nsg23
g2
(g24
g4
Ntp2846
Rp2847
(dp2848
g28
F-19.65492999999998
sg29
g30
sg31
F134.17528500000003
sbsg32
g33
((lp2849
g35
atp2850
Rp2851
sg38
g9
sg39
I2012
sbsVAUS0000254
p2852
g2
(g3
g4
Ntp2853
Rp2854
(dp2855
g8
g9
sg10
F59.6
sg11
VRon Goodin
p2856
sg13
Nsg14
g15
sg16
g17
sg18
g19
sg20
g9
sg21
g2852
sg22
Nsg23
g2
(g24
g4
Ntp2857
Rp2858
(dp2859
g28
F-23.709108999999955
sg29
g30
sg31
F133.8911750000001
sbsg32
g33
((lp2860
g35
atp2861
Rp2862
sg38
g9
sg39
I2012
sbsVAUS0000255
p2863
g2
(g3
g4
Ntp2864
Rp2865
(dp2866
g8
g9
sg10
F36.7
sg11
VOwen Springs
p2867
sg13
Nsg14
g15
sg16
g17
sg18
g19
sg20
g9
sg21
g2863
sg22
Nsg23
g2
(g24
g4
Ntp2868
Rp2869
(dp2870
g28
F-23.863610999999935
sg29
g30
sg31
F133.82548700000007
sbsg32
g33
((lp2871
g35
atp2872
Rp2873
sg38
g9
sg39
I2012
sbsVAUS0000256
p2874
g2
(g3
g4
Ntp2875
Rp2876
(dp2877
g8
g9
sg10
F8.5
sg11
VBrewer
p2878
sg13
Nsg14
g15
sg16
g17
sg18
g19
sg20
g9
sg21
g2874
sg22
Nsg23
g2
(g24
g4
Ntp2879
Rp2880
(dp2881
g28
F-23.88169799999997
sg29
g30
sg31
F133.82814300000007
sbsg32
g33
((lp2882
g35
atp2883
Rp2884
sg38
g9
sg39
I2012
sbsVAUS0000257
p2885
g2
(g3
g4
Ntp2886
Rp2887
(dp2888
g8
g9
sg10
F4.5
sg11
VYulara
p2889
sg13
Nsg14
g15
sg16
g17
sg18
g19
sg20
g9
sg21
g2885
sg22
Nsg23
g2
(g24
g4
Ntp2890
Rp2891
(dp2892
g28
F-25.232312999999976
sg29
g30
sg31
F130.9911810000001
sbsg32
g33
((lp2893
g35
atp2894
Rp2895
sg38
g9
sg39
I2012
sbsVAUS0000153
p2896
g2
(g3
g4
Ntp2897
Rp2898
(dp2899
g8
g9
sg10
F519.0
sg11
VBraemar 2
p2900
sg13
Nsg14
g15
sg16
g17
sg18
g19
sg20
g9
sg21
g2896
sg22
Nsg23
g2
(g24
g4
Ntp2901
Rp2902
(dp2903
g28
F-27.112811267999973
sg29
g30
sg31
F150.90487826100002
sbsg32
g33
((lp2904
g35
atp2905
Rp2906
sg38
g9
sg39
I2013
sbsVAUS0000152
p2907
g2
(g3
g4
Ntp2908
Rp2909
(dp2910
g8
g9
sg10
F504.0
sg11
VBraemar 1
p2911
sg13
Nsg14
g15
sg16
g17
sg18
g19
sg20
g9
sg21
g2907
sg22
Nsg23
g2
(g24
g4
Ntp2912
Rp2913
(dp2914
g28
F-27.11093399999993
sg29
g30
sg31
F150.90533700000003
sbsg32
g33
((lp2915
g35
atp2916
Rp2917
sg38
g9
sg39
I2012
sbsVAUS0000151
p2918
g2
(g3
g4
Ntp2919
Rp2920
(dp2921
g8
g9
sg10
F66.0
sg11
VBarron Gorge
p2922
sg13
Nsg14
g15
sg16
g17
sg18
g19
sg20
g9
sg21
g2918
sg22
Nsg23
g2
(g24
g4
Ntp2923
Rp2924
(dp2925
g28
F-16.850198999999975
sg29
g30
sg31
F145.64649500000007
sbsg32
g33
((lp2926
g60
atp2927
Rp2928
sg38
g9
sg39
I2012
sbsVAUS0000099
p2929
g2
(g3
g4
Ntp2930
Rp2931
(dp2932
g8
g9
sg10
F1.8
sg11
VLake William Hovell
p2933
sg13
Nsg14
g15
sg16
g17
sg18
g19
sg20
g9
sg21
g2929
sg22
Nsg23
g2
(g24
g4
Ntp2934
Rp2935
(dp2936
g28
F-36.91317699999996
sg29
g30
sg31
F146.3915720000001
sbsg32
g33
((lp2937
g60
atp2938
Rp2939
sg38
g9
sg39
I2012
sbsVAUS0000157
p2940
g2
(g3
g4
Ntp2941
Rp2942
(dp2943
g8
g9
sg10
F31.8
sg11
VGerman Creek
p2944
sg13
Nsg14
g15
sg16
g17
sg18
g19
sg20
g9
sg21
g2940
sg22
Nsg23
g2
(g24
g4
Ntp2945
Rp2946
(dp2947
g28
F-22.928146999999967
sg29
g30
sg31
F148.55149700000004
sbsg32
g33
((lp2948
g35
atp2949
Rp2950
sg38
g9
sg39
I2012
sbsVAUS0000156
p2951
g2
(g3
g4
Ntp2952
Rp2953
(dp2954
g8
g9
sg10
F644.0
sg11
VDarling Downs
p2955
sg13
Nsg14
g15
sg16
g17
sg18
g19
sg20
g9
sg21
g2951
sg22
Nsg23
g2
(g24
g4
Ntp2956
Rp2957
(dp2958
g28
F-27.116891412999962
sg29
g30
sg31
F150.89421701800006
sbsg32
g33
((lp2959
g35
atp2960
Rp2961
sg38
g9
sg39
I2012
sbsVAUS0000155
p2962
g2
(g3
g4
Ntp2963
Rp2964
(dp2965
g8
g9
sg10
F30.0
sg11
VDaandine
p2966
sg13
Nsg14
g15
sg16
g17
sg18
g19
sg20
g9
sg21
g2962
sg22
Nsg23
g2
(g24
g4
Ntp2967
Rp2968
(dp2969
g28
F-27.08631996699995
sg29
g30
sg31
F150.94300545900012
sbsg32
g33
((lp2970
g35
atp2971
Rp2972
sg38
g9
sg39
I2012
sbsVAUS0000154
p2973
g2
(g3
g4
Ntp2974
Rp2975
(dp2976
g8
g9
sg10
F144.0
sg11
VCondamine A
p2977
sg13
Nsg14
g15
sg16
g17
sg18
g19
sg20
g9
sg21
g2973
sg22
Nsg23
g2
(g24
g4
Ntp2978
Rp2979
(dp2980
g28
F-26.668222211999932
sg29
g30
sg31
F150.27001446500003
sbsg32
g33
((lp2981
g35
atp2982
Rp2983
sg38
g9
sg39
I2012
sbsVAUS0000092
p2984
g2
(g3
g4
Ntp2985
Rp2986
(dp2987
g8
g9
sg10
F2180.0
sg11
VLoy Yang A
p2988
sg13
Nsg14
g15
sg16
g17
sg18
g19
sg20
g9
sg21
g2984
sg22
Nsg23
g2
(g24
g4
Ntp2989
Rp2990
(dp2991
g28
F-38.25359999999995
sg29
g30
sg31
F146.5745690000001
sbsg32
g33
((lp2992
g72
atp2993
Rp2994
sg38
g9
sg39
I2012
sbsVAUS0000093
p2995
g2
(g3
g4
Ntp2996
Rp2997
(dp2998
g8
g9
sg10
F0.8
sg11
VMornington
p2999
sg13
Nsg14
g15
sg16
g17
sg18
g19
sg20
g9
sg21
g2995
sg22
Nsg23
g2
(g24
g4
Ntp3000
Rp3001
(dp3002
g28
F-38.39163099999996
sg29
g30
sg31
F144.85532200000011
sbsg32
g33
((lp3003
g229
atp3004
Rp3005
sg38
g9
sg39
I2012
sbsVAUS0000090
p3006
g2
(g3
g4
Ntp3007
Rp3008
(dp3009
g8
g9
sg10
F312.0
sg11
VLaverton North
p3010
sg13
Nsg14
g15
sg16
g17
sg18
g19
sg20
g9
sg21
g3006
sg22
Nsg23
g2
(g24
g4
Ntp3011
Rp3012
(dp3013
g28
F-37.841579999999965
sg29
g30
sg31
F144.78871100000003
sbsg32
g33
((lp3014
g35
atp3015
Rp3016
sg38
g9
sg39
I2012
sbsVAUS0000091
p3017
g2
(g3
g4
Ntp3018
Rp3019
(dp3020
g8
g9
sg10
F31.8
sg11
VLongford
p3021
sg13
Nsg14
g15
sg16
g17
sg18
g19
sg20
g9
sg21
g3017
sg22
Nsg23
g2
(g24
g4
Ntp3022
Rp3023
(dp3024
g28
F-38.16399999999993
sg29
g30
sg31
F147.0870000000001
sbsg32
g33
((lp3025
g35
atp3026
Rp3027
sg38
g9
sg39
I2012
sbsVAUS0000096
p3028
g2
(g3
g4
Ntp3029
Rp3030
(dp3031
g8
g9
sg10
F160.0
sg11
VSomerton
p3032
sg13
Nsg14
g15
sg16
g17
sg18
g19
sg20
g9
sg21
g3028
sg22
Nsg23
g2
(g24
g4
Ntp3033
Rp3034
(dp3035
g28
F-37.63182199999994
sg29
g30
sg31
F144.95307700000012
sbsg32
g33
((lp3036
g35
atp3037
Rp3038
sg38
g9
sg39
I2012
sbsVAUS0000097
p3039
g2
(g3
g4
Ntp3040
Rp3041
(dp3042
g8
g9
sg10
F5.9
sg11
VSymex Port Melbourne
p3043
sg13
Nsg14
g15
sg16
g17
sg18
g19
sg20
g9
sg21
g3039
sg22
Nsg23
g2
(g24
g4
Ntp3044
Rp3045
(dp3046
g28
F-37.829793999999936
sg29
g30
sg31
F144.94436500000006
sbsg32
g33
((lp3047
g35
atp3048
Rp3049
sg38
g9
sg39
I2012
sbsVAUS0000094
p3050
g2
(g3
g4
Ntp3051
Rp3052
(dp3053
g8
g9
sg10
F500.0
sg11
VNewport
p3054
sg13
Nsg14
g15
sg16
g17
sg18
g19
sg20
g9
sg21
g3050
sg22
Nsg23
g2
(g24
g4
Ntp3055
Rp3056
(dp3057
g28
F-37.84146199999998
sg29
g30
sg31
F144.89419700000008
sbsg32
g33
((lp3058
g35
atp3059
Rp3060
sg38
g9
sg39
I2012
sbsVAUS0000095
p3061
g2
(g3
g4
Ntp3062
Rp3063
(dp3064
g8
g9
sg10
F9.6
sg11
VRubicon
p3065
sg13
Nsg14
g15
sg16
g17
sg18
g19
sg20
g9
sg21
g3061
sg22
Nsg23
g2
(g24
g4
Ntp3066
Rp3067
(dp3068
g28
F-37.327219999999954
sg29
g30
sg31
F145.86052000000007
sbsg32
g33
((lp3069
g60
atp3070
Rp3071
sg38
g9
sg39
I2012
sbsVAUS0000418
p3072
g2
(g3
g4
Ntp3073
Rp3074
(dp3075
g8
g9
sg10
F1.6
sg11
VGlenorchy
p3076
sg13
Nsg14
g15
sg16
g17
sg18
g19
sg20
g9
sg21
g3072
sg22
Nsg23
g2
(g24
g4
Ntp3077
Rp3078
(dp3079
g28
F-42.84146316999994
sg29
g30
sg31
F147.25504660000001
sbsg32
g33
((lp3080
g229
atp3081
Rp3082
sg38
g9
sg39
I2012
sbsVAUS0000419
p3083
g2
(g3
g4
Ntp3084
Rp3085
(dp3086
g8
g9
sg10
F1.0
sg11
VHobart
p3087
sg13
Nsg14
g15
sg16
g17
sg18
g19
sg20
g9
sg21
g3083
sg22
Nsg23
g2
(g24
g4
Ntp3088
Rp3089
(dp3090
g28
F-42.88825951299998
sg29
g30
sg31
F147.28882975800002
sbsg32
g33
((lp3091
g229
atp3092
Rp3093
sg38
g9
sg39
I2012
sbsVAUS0000458
p3094
g2
(g3
g4
Ntp3095
Rp3096
(dp3097
g8
g9
sg10
F242.0
sg11
VDiamantina
p3098
sg13
Nsg14
g15
sg16
g17
sg18
g19
sg20
g9
sg21
g3094
sg22
Nsg23
g2
(g24
g4
Ntp3099
Rp3100
(dp3101
g28
F-20.78374957699998
sg29
g30
sg31
F139.48326740100003
sbsg32
g33
((lp3102
g35
atp3103
Rp3104
sg38
g9
sg39
NsbsVAUS0000459
p3105
g2
(g3
g4
Ntp3106
Rp3107
(dp3108
g8
g9
sg10
F60.0
sg11
VLeichhardt
p3109
sg13
Nsg14
g15
sg16
g17
sg18
g19
sg20
g9
sg21
g3105
sg22
Nsg23
g2
(g24
g4
Ntp3110
Rp3111
(dp3112
g28
F-20.783335197999975
sg29
g30
sg31
F139.48622070400006
sbsg32
g33
((lp3113
g35
atp3114
Rp3115
sg38
g9
sg39
NsbsVAUS0000452
p3116
g2
(g3
g4
Ntp3117
Rp3118
(dp3119
g8
g9
sg10
F94.5
sg11
VHallett 1 Brown Hill  Wind Farm
p3120
sg13
Nsg14
g15
sg16
g17
sg18
g19
sg20
g9
sg21
g3116
sg22
Nsg23
g2
(g24
g4
Ntp3121
Rp3122
(dp3123
g28
F-33.39496020399997
sg29
g30
sg31
F138.7299433710001
sbsg32
g33
((lp3124
g172
atp3125
Rp3126
sg38
g9
sg39
I2012
sbsVAUS0000453
p3127
g2
(g3
g4
Ntp3128
Rp3129
(dp3130
g8
g9
sg10
F94.5
sg11
VHallett 5 The Bluff  Wind Farm
p3131
sg13
Nsg14
g15
sg16
g17
sg18
g19
sg20
g9
sg21
g3127
sg22
Nsg23
g2
(g24
g4
Ntp3132
Rp3133
(dp3134
g28
F-33.385546259999956
sg29
g30
sg31
F138.79283152200003
sbsg32
g33
((lp3135
g172
atp3136
Rp3137
sg38
g9
sg39
I2012
sbsVAUS0000450
p3138
g2
(g3
g4
Ntp3139
Rp3140
(dp3141
g8
g9
sg10
F86.0
sg11
VWest Angelas Mine
p3142
sg13
Nsg14
g15
sg16
g17
sg18
g19
sg20
g9
sg21
g3138
sg22
Nsg23
g2
(g24
g4
Ntp3143
Rp3144
(dp3145
g28
F-23.154648546999965
sg29
g30
sg31
F118.72452167400002
sbsg32
g33
((lp3146
g35
atp3147
Rp3148
sg38
g9
sg39
NsbsVAUS0000451
p3149
g2
(g3
g4
Ntp3150
Rp3151
(dp3152
g8
g9
sg10
F40.0
sg11
VCannington Mine
p3153
sg13
Nsg14
g15
sg16
g17
sg18
g19
sg20
g9
sg21
g3149
sg22
Nsg23
g2
(g24
g4
Ntp3154
Rp3155
(dp3156
g28
F-21.86013328799993
sg29
g30
sg31
F140.91576749900003
sbsg32
g33
((lp3157
g35
atp3158
Rp3159
sg38
g9
sg39
NsbsVAUS0000456
p3160
g2
(g3
g4
Ntp3161
Rp3162
(dp3163
g8
g9
sg10
F450.0
sg11
VCape Preston
p3164
sg13
Nsg14
g15
sg16
g17
sg18
g19
sg20
g9
sg21
g3160
sg22
Nsg23
g2
(g24
g4
Ntp3165
Rp3166
(dp3167
g28
F-21.076706137999963
sg29
g30
sg31
F116.15901566800005
sbsg32
g33
((lp3168
g35
atp3169
Rp3170
sg38
g9
sg39
NsbsVAUS0000201
p3171
g2
(g3
g4
Ntp3172
Rp3173
(dp3174
g8
g9
sg10
F280.0
sg11
VPinjarra Bauxite Mine and Alumina Refinery
p3175
sg13
Nsg14
g15
sg16
g17
sg18
g19
sg20
g9
sg21
g3171
sg22
Nsg23
g2
(g24
g4
Ntp3176
Rp3177
(dp3178
g28
F-32.647302999999965
sg29
g30
sg31
F115.94689400000004
sbsg32
g33
((lp3179
g35
atp3180
Rp3181
sg38
g9
sg39
I2012
sbsVAUS0000454
p3182
g2
(g3
g4
Ntp3183
Rp3184
(dp3185
g8
g9
sg10
F71.4
sg11
VHallett 2 Hallet Hill  Wind Farm
p3186
sg13
Nsg14
g15
sg16
g17
sg18
g19
sg20
g9
sg21
g3182
sg22
Nsg23
g2
(g24
g4
Ntp3187
Rp3188
(dp3189
g28
F-33.57166811999997
sg29
g30
sg31
F138.85795056000006
sbsg32
g33
((lp3190
g172
atp3191
Rp3192
sg38
g9
sg39
I2012
sbsVAUS0000422
p3193
g2
(g3
g4
Ntp3194
Rp3195
(dp3196
g8
g9
sg10
F100.0
sg11
VBodangora Wind Farm
p3197
sg13
Nsg14
g15
sg16
g17
sg18
g19
sg20
g9
sg21
g3193
sg22
Nsg23
g2
(g24
g4
Ntp3198
Rp3199
(dp3200
g28
F-32.41367217299995
sg29
g30
sg31
F149.05896359300004
sbsg32
g33
((lp3201
g172
atp3202
Rp3203
sg38
g9
sg39
I2012
sbsVAUS0000200
p3204
g2
(g3
g4
Ntp3205
Rp3206
(dp3207
g8
g9
sg10
F584.0
sg11
VPinjar
p3208
sg13
Nsg14
g15
sg16
g17
sg18
g19
sg20
g9
sg21
g3204
sg22
Nsg23
g2
(g24
g4
Ntp3209
Rp3210
(dp3211
g28
F-31.557681354999943
sg29
g30
sg31
F115.82041110400007
sbsg32
g33
((lp3212
g35
atp3213
Rp3214
sg38
g9
sg39
I2012
sbsVAUS0000328
p3215
g2
(g3
g4
Ntp3216
Rp3217
(dp3218
g8
g9
sg10
F1.0
sg11
VShenton Park WMRC Project
p3219
sg13
Nsg14
g15
sg16
g17
sg18
g19
sg20
g9
sg21
g3215
sg22
Nsg23
g2
(g24
g4
Ntp3220
Rp3221
(dp3222
g28
F-31.957666655999958
sg29
g30
sg31
F115.79244349800001
sbsg32
g33
((lp3223
g229
atp3224
Rp3225
sg38
g9
sg39
I2012
sbsVAUS0000329
p3226
g2
(g3
g4
Ntp3227
Rp3228
(dp3229
g8
g9
sg10
F1.3
sg11
VKalamunda
p3230
sg13
Nsg14
g15
sg16
g17
sg18
g19
sg20
g9
sg21
g3226
sg22
Nsg23
g2
(g24
g4
Ntp3231
Rp3232
(dp3233
g28
F-31.976778615999933
sg29
g30
sg31
F115.99879332700004
sbsg32
g33
((lp3234
g195
atp3235
Rp3236
sg38
g9
sg39
I2012
sbsVAUS0000324
p3237
g2
(g3
g4
Ntp3238
Rp3239
(dp3240
g8
g9
sg10
F36.0
sg11
VCloudbreak
p3241
sg13
Nsg14
g15
sg16
g17
sg18
g19
sg20
g9
sg21
g3237
sg22
Nsg23
g2
(g24
g4
Ntp3242
Rp3243
(dp3244
g28
F-22.324710271999948
sg29
g30
sg31
F119.40401695100002
sbsg32
g33
((lp3245
g195
atp3246
Rp3247
sg38
g9
sg39
I2012
sbsVAUS0000325
p3248
g2
(g3
g4
Ntp3249
Rp3250
(dp3251
g8
g9
sg10
F84.0
sg11
VPort Hedland
p3252
sg13
Nsg14
g15
sg16
g17
sg18
g19
sg20
g9
sg21
g3248
sg22
Nsg23
g2
(g24
g4
Ntp3253
Rp3254
(dp3255
g28
F-20.378178960999946
sg29
g30
sg31
F118.53837434500008
sbsg32
g33
((lp3256
g35
atp3257
Rp3258
sg38
g9
sg39
I2012
sbsVAUS0000326
p3259
g2
(g3
g4
Ntp3260
Rp3261
(dp3262
g8
g9
sg10
F1.1
sg11
VNoranda
p3263
sg13
Nsg14
g15
sg16
g17
sg18
g19
sg20
g9
sg21
g3259
sg22
Nsg23
g2
(g24
g4
Ntp3264
Rp3265
(dp3266
g28
F-31.86538940199995
sg29
g30
sg31
F115.87732708800002
sbsg32
g33
((lp3267
g229
atp3268
Rp3269
sg38
g9
sg39
I2012
sbsVAUS0000327
p3270
g2
(g3
g4
Ntp3271
Rp3272
(dp3273
g8
g9
sg10
F3.65
sg11
VRed Hill
p3274
sg13
Nsg14
g15
sg16
g17
sg18
g19
sg20
g9
sg21
g3270
sg22
Nsg23
g2
(g24
g4
Ntp3275
Rp3276
(dp3277
g28
F-31.83165058299994
sg29
g30
sg31
F116.09923967700001
sbsg32
g33
((lp3278
g229
atp3279
Rp3280
sg38
g9
sg39
I2012
sbsVAUS0000320
p3281
g2
(g3
g4
Ntp3282
Rp3283
(dp3284
g8
g9
sg10
F9.0
sg11
VNorseman Mine
p3285
sg13
Nsg14
g15
sg16
g17
sg18
g19
sg20
g9
sg21
g3281
sg22
Nsg23
g2
(g24
g4
Ntp3286
Rp3287
(dp3288
g28
F-32.19626480499994
sg29
g30
sg31
F121.79433384300012
sbsg32
g33
((lp3289
g195
atp3290
Rp3291
sg38
g9
sg39
I2012
sbsVAUS0000321
p3292
g2
(g3
g4
Ntp3293
Rp3294
(dp3295
g8
g9
sg10
F11.7
sg11
VDarlot Gold Mine
p3296
sg13
Nsg14
g15
sg16
g17
sg18
g19
sg20
g9
sg21
g3292
sg22
Nsg23
g2
(g24
g4
Ntp3297
Rp3298
(dp3299
g28
F-27.897207160999983
sg29
g30
sg31
F121.26976610500003
sbsg32
g33
((lp3300
g35
atp3301
Rp3302
sg38
g9
sg39
I2012
sbsVAUS0000322
p3303
g2
(g3
g4
Ntp3304
Rp3305
(dp3306
g8
g9
sg10
F23.7
sg11
VWindimurra Vanadium Mine
p3307
sg13
Nsg14
g15
sg16
g17
sg18
g19
sg20
g9
sg21
g3303
sg22
Nsg23
g2
(g24
g4
Ntp3308
Rp3309
(dp3310
g28
F-28.29331302099996
sg29
g30
sg31
F118.53714696400004
sbsg32
g33
((lp3311
g35
atp3312
Rp3313
sg38
g9
sg39
I2012
sbsVAUS0000323
p3314
g2
(g3
g4
Ntp3315
Rp3316
(dp3317
g8
g9
sg10
F0.6
sg11
VRottnest Island Wind Turbine
p3318
sg13
Nsg14
g15
sg16
g17
sg18
g19
sg20
g9
sg21
g3314
sg22
Nsg23
g2
(g24
g4
Ntp3319
Rp3320
(dp3321
g28
F-31.993751991999943
sg29
g30
sg31
F115.52891392800007
sbsg32
g33
((lp3322
g172
atp3323
Rp3324
sg38
g9
sg39
I2012
sbsVAUS0000391
p3325
g2
(g3
g4
Ntp3326
Rp3327
(dp3328
g8
g9
sg10
F2.03
sg11
VEsperance Wind Farm Ten Mile Lagoon
p3329
sg13
Nsg14
g15
sg16
g17
sg18
g19
sg20
g9
sg21
g3325
sg22
Nsg23
g2
(g24
g4
Ntp3330
Rp3331
(dp3332
g28
F-33.88016906299998
sg29
g30
sg31
F121.76903887500009
sbsg32
g33
((lp3333
g172
atp3334
Rp3335
sg38
g9
sg39
I2012
sbsVAUS0000390
p3336
g2
(g3
g4
Ntp3337
Rp3338
(dp3339
g8
g9
sg10
F0.02
sg11
VKalbarri PV System
p3340
sg13
Nsg14
g15
sg16
g17
sg18
g19
sg20
g9
sg21
g3336
sg22
Nsg23
g2
(g24
g4
Ntp3341
Rp3342
(dp3343
g28
F-27.71524694699997
sg29
g30
sg31
F114.16969177900012
sbsg32
g33
((lp3344
g902
atp3345
Rp3346
sg38
g9
sg39
I2012
sbsVAUS0000392
p3347
g2
(g3
g4
Ntp3348
Rp3349
(dp3350
g8
g9
sg10
F120.0
sg11
VMuja B
p3351
sg13
Nsg14
g15
sg16
g17
sg18
g19
sg20
g9
sg21
g3347
sg22
Nsg23
g2
(g24
g4
Ntp3352
Rp3353
(dp3354
g28
F-33.446806831999936
sg29
g30
sg31
F116.30871950900007
sbsg32
g33
((lp3355
g72
atp3356
Rp3357
sg38
g9
sg39
I2012
sbsVAUS0000209
p3358
g2
(g3
g4
Ntp3359
Rp3360
(dp3361
g8
g9
sg10
F37.0
sg11
VKalgoorlie Nickel Smelter
p3362
sg13
Nsg14
g15
sg16
g17
sg18
g19
sg20
g9
sg21
g3358
sg22
Nsg23
g2
(g24
g4
Ntp3363
Rp3364
(dp3365
g28
F-30.87366899999995
sg29
g30
sg31
F121.48418800000002
sbsg32
g33
((lp3366
g35
atp3367
Rp3368
sg38
g9
sg39
I2012
sbsVAUS0000208
p3369
g2
(g3
g4
Ntp3370
Rp3371
(dp3372
g8
g9
sg10
F340.0
sg11
VCollie A
p3373
sg13
Nsg14
g15
sg16
g17
sg18
g19
sg20
g9
sg21
g3369
sg22
Nsg23
g2
(g24
g4
Ntp3374
Rp3375
(dp3376
g28
F-33.34218099999998
sg29
g30
sg31
F116.261165
sbsg32
g33
((lp3377
g72
atp3378
Rp3379
sg38
g9
sg39
I2012
sbsVAUS0000399
p3380
g2
(g3
g4
Ntp3381
Rp3382
(dp3383
g8
g9
sg10
F2.1
sg11
VBankstown Sports Club
p3384
sg13
Nsg14
g15
sg16
g17
sg18
g19
sg20
g9
sg21
g3380
sg22
Nsg23
g2
(g24
g4
Ntp3385
Rp3386
(dp3387
g28
F-33.919699597999966
sg29
g30
sg31
F151.03324363800004
sbsg32
g33
((lp3388
g195
atp3389
Rp3390
sg38
g9
sg39
I2012
sbsVAUS0000398
p3391
g2
(g3
g4
Ntp3392
Rp3393
(dp3394
g8
g9
sg10
F200.0
sg11
VBango Wind Farm
p3395
sg13
Nsg14
g15
sg16
g17
sg18
g19
sg20
g9
sg21
g3391
sg22
Nsg23
g2
(g24
g4
Ntp3396
Rp3397
(dp3398
g28
F-34.60577781699993
sg29
g30
sg31
F148.86955733900004
sbsg32
g33
((lp3399
g172
atp3400
Rp3401
sg38
g9
sg39
I2012
sbsVAUS0000050
p3402
g2
(g3
g4
Ntp3403
Rp3404
(dp3405
g8
g9
sg10
F111.0
sg11
VWaterloo Wind Farm
p3406
sg13
Nsg14
g15
sg16
g17
sg18
g19
sg20
g9
sg21
g3402
sg22
Nsg23
g2
(g24
g4
Ntp3407
Rp3408
(dp3409
g28
F-34.000357623999946
sg29
g30
sg31
F138.91531889200007
sbsg32
g33
((lp3410
g172
atp3411
Rp3412
sg38
g9
sg39
I2012
sbsVAUS0000180
p3413
g2
(g3
g4
Ntp3414
Rp3415
(dp3416
g8
g9
sg10
F39.6
sg11
VBroome
p3417
sg13
Nsg14
g15
sg16
g17
sg18
g19
sg20
g9
sg21
g3413
sg22
Nsg23
g2
(g24
g4
Ntp3418
Rp3419
(dp3420
g28
F-17.981026999999926
sg29
g30
sg31
F122.20460200000002
sbsg32
g33
((lp3421
g35
atp3422
Rp3423
sg38
g9
sg39
I2012
sbsVAUS0000181
p3424
g2
(g3
g4
Ntp3425
Rp3426
(dp3427
g8
g9
sg10
F240.0
sg11
VBurrup Peninsula (Karratha Gas Plant)
p3428
sg13
Nsg14
g15
sg16
g17
sg18
g19
sg20
g9
sg21
g3424
sg22
Nsg23
g2
(g24
g4
Ntp3429
Rp3430
(dp3431
g28
F-20.62864899999994
sg29
g30
sg31
F116.78214700000001
sbsg32
g33
((lp3432
g35
atp3433
Rp3434
sg38
g9
sg39
I2012
sbsVAUS0000182
p3435
g2
(g3
g4
Ntp3436
Rp3437
(dp3438
g8
g9
sg10
F160.0
sg11
VBurrup Peninsula (Pluto Phase 1)
p3439
sg13
Nsg14
g15
sg16
g17
sg18
g19
sg20
g9
sg21
g3435
sg22
Nsg23
g2
(g24
g4
Ntp3440
Rp3441
(dp3442
g28
F-20.59367999999995
sg29
g30
sg31
F116.78015000000005
sbsg32
g33
((lp3443
g35
atp3444
Rp3445
sg38
g9
sg39
I2012
sbsVAUS0000183
p3446
g2
(g3
g4
Ntp3447
Rp3448
(dp3449
g8
g9
sg10
F240.0
sg11
VCockburn
p3450
sg13
Nsg14
g15
sg16
g17
sg18
g19
sg20
g9
sg21
g3446
sg22
Nsg23
g2
(g24
g4
Ntp3451
Rp3452
(dp3453
g28
F-32.20011899999997
sg29
g30
sg31
F115.77367900000002
sbsg32
g33
((lp3454
g35
atp3455
Rp3456
sg38
g9
sg39
I2012
sbsVAUS0000184
p3457
g2
(g3
g4
Ntp3458
Rp3459
(dp3460
g8
g9
sg10
F416.0
sg11
VCollie (Bluewaters)
p3461
sg13
Nsg14
g15
sg16
g17
sg18
g19
sg20
g9
sg21
g3457
sg22
Nsg23
g2
(g24
g4
Ntp3462
Rp3463
(dp3464
g28
F-33.33099999999996
sg29
g30
sg31
F116.22900000000004
sbsg32
g33
((lp3465
g72
atp3466
Rp3467
sg38
g9
sg39
I2012
sbsVAUS0000185
p3468
g2
(g3
g4
Ntp3469
Rp3470
(dp3471
g8
g9
sg10
F120.0
sg11
VDampier
p3472
sg13
Nsg14
g15
sg16
g17
sg18
g19
sg20
g9
sg21
g3468
sg22
Nsg23
g2
(g24
g4
Ntp3473
Rp3474
(dp3475
g28
F-20.64798499999995
sg29
g30
sg31
F116.72190400000011
sbsg32
g33
((lp3476
g35
atp3477
Rp3478
sg38
g9
sg39
I2012
sbsVAUS0000186
p3479
g2
(g3
g4
Ntp3480
Rp3481
(dp3482
g8
g9
sg10
F39.0
sg11
VEsperance
p3483
sg13
Nsg14
g15
sg16
g17
sg18
g19
sg20
g9
sg21
g3479
sg22
Nsg23
g2
(g24
g4
Ntp3484
Rp3485
(dp3486
g28
F-33.87619999999998
sg29
g30
sg31
F121.89980000000003
sbsg32
g33
((lp3487
g35
atp3488
Rp3489
sg38
g9
sg39
I2012
sbsVAUS0000187
p3490
g2
(g3
g4
Ntp3491
Rp3492
(dp3493
g8
g9
sg10
F21.0
sg11
VGeraldton
p3494
sg13
Nsg14
g15
sg16
g17
sg18
g19
sg20
g9
sg21
g3490
sg22
Nsg23
g2
(g24
g4
Ntp3495
Rp3496
(dp3497
g28
F-28.77010699999994
sg29
g30
sg31
F114.64848200000006
sbsg32
g33
((lp3498
g35
atp3499
Rp3500
sg38
g9
sg39
I2012
sbsVAUS0000188
p3501
g2
(g3
g4
Ntp3502
Rp3503
(dp3504
g8
g9
sg10
F110.0
sg11
VKalgoorlie (Parkeston)
p3505
sg13
Nsg14
g15
sg16
g17
sg18
g19
sg20
g9
sg21
g3501
sg22
Nsg23
g2
(g24
g4
Ntp3506
Rp3507
(dp3508
g28
F-30.737809999999968
sg29
g30
sg31
F121.50654300000008
sbsg32
g33
((lp3509
g35
atp3510
Rp3511
sg38
g9
sg39
I2012
sbsVAUS0000189
p3512
g2
(g3
g4
Ntp3513
Rp3514
(dp3515
g8
g9
sg10
F86.0
sg11
VKarratha
p3516
sg13
Nsg14
g15
sg16
g17
sg18
g19
sg20
g9
sg21
g3512
sg22
Nsg23
g2
(g24
g4
Ntp3517
Rp3518
(dp3519
g28
F-20.762566999999933
sg29
g30
sg31
F116.83747300000005
sbsg32
g33
((lp3520
g35
atp3521
Rp3522
sg38
g9
sg39
I2012
sbsVAUS0000021
p3523
g2
(g3
g4
Ntp3524
Rp3525
(dp3526
g8
g9
sg10
F1.1
sg11
VJindabyne Dam Mini Hydro
p3527
sg13
Nsg14
g15
sg16
g17
sg18
g19
sg20
g9
sg21
g3523
sg22
Nsg23
g2
(g24
g4
Ntp3528
Rp3529
(dp3530
g28
F-36.435149999999965
sg29
g30
sg31
F148.6332500000001
sbsg32
g33
((lp3531
g60
atp3532
Rp3533
sg38
g9
sg39
I2012
sbsVAUS0000020
p3534
g2
(g3
g4
Ntp3535
Rp3536
(dp3537
g8
g9
sg10
F30.0
sg11
VYambuk Wind Farm
p3538
sg13
Nsg14
g15
sg16
g17
sg18
g19
sg20
g9
sg21
g3534
sg22
Nsg23
g2
(g24
g4
Ntp3539
Rp3540
(dp3541
g28
F-38.30835520699998
sg29
g30
sg31
F142.0100325850001
sbsg32
g33
((lp3542
g172
atp3543
Rp3544
sg38
g9
sg39
I2012
sbsVAUS0000027
p3545
g2
(g3
g4
Ntp3546
Rp3547
(dp3548
g8
g9
sg10
F9.9
sg11
VBlayney Wind Farm
p3549
sg13
Nsg14
g15
sg16
g17
sg18
g19
sg20
g9
sg21
g3545
sg22
Nsg23
g2
(g24
g4
Ntp3550
Rp3551
(dp3552
g28
F-33.62188999999995
sg29
g30
sg31
F149.19821000000002
sbsg32
g33
((lp3553
g172
atp3554
Rp3555
sg38
g9
sg39
I2012
sbsVAUS0000026
p3556
g2
(g3
g4
Ntp3557
Rp3558
(dp3559
g8
g9
sg10
F20.0
sg11
VWyangala A
p3560
sg13
Nsg14
g15
sg16
g17
sg18
g19
sg20
g9
sg21
g3556
sg22
Nsg23
g2
(g24
g4
Ntp3561
Rp3562
(dp3563
g28
F-33.980988999999965
sg29
g30
sg31
F148.94730600000003
sbsg32
g33
((lp3564
g60
atp3565
Rp3566
sg38
g9
sg39
I2012
sbsVAUS0000025
p3567
g2
(g3
g4
Ntp3568
Rp3569
(dp3570
g8
g9
sg10
F56.7
sg11
VClements Gap Wind Farm
p3571
sg13
Nsg14
g15
sg16
g17
sg18
g19
sg20
g9
sg21
g3567
sg22
Nsg23
g2
(g24
g4
Ntp3572
Rp3573
(dp3574
g28
F-33.508567708999976
sg29
g30
sg31
F138.11917519200006
sbsg32
g33
((lp3575
g172
atp3576
Rp3577
sg38
g9
sg39
I2012
sbsVAUS0000024
p3578
g2
(g3
g4
Ntp3579
Rp3580
(dp3581
g8
g9
sg10
F132.3
sg11
VHallett 4 North Brown Hill  Wind Farm
p3582
sg13
Nsg14
g15
sg16
g17
sg18
g19
sg20
g9
sg21
g3578
sg22
Nsg23
g2
(g24
g4
Ntp3583
Rp3584
(dp3585
g28
F-33.30925994199998
sg29
g30
sg31
F138.72959554200008
sbsg32
g33
((lp3586
g172
atp3587
Rp3588
sg38
g9
sg39
I2012
sbsVAUS0000051
p3589
g2
(g3
g4
Ntp3590
Rp3591
(dp3592
g8
g9
sg10
F12.0
sg11
VWindy Hill Wind Farm
p3593
sg13
Nsg14
g15
sg16
g17
sg18
g19
sg20
g9
sg21
g3589
sg22
Nsg23
g2
(g24
g4
Ntp3594
Rp3595
(dp3596
g28
F-17.592199999999934
sg29
g30
sg31
F145.53060000000005
sbsg32
g33
((lp3597
g172
atp3598
Rp3599
sg38
g9
sg39
I2012
sbsVAUS0000098
p3600
g2
(g3
g4
Ntp3601
Rp3602
(dp3603
g8
g9
sg10
F300.0
sg11
VValley (Peaking Facility)
p3604
sg13
Nsg14
g15
sg16
g17
sg18
g19
sg20
g9
sg21
g3600
sg22
Nsg23
g2
(g24
g4
Ntp3605
Rp3606
(dp3607
g28
F-38.25362199999995
sg29
g30
sg31
F146.5891660000001
sbsg32
g33
((lp3608
g35
atp3609
Rp3610
sg38
g9
sg39
I2012
sbsVAUS0000150
p3611
g2
(g3
g4
Ntp3612
Rp3613
(dp3614
g8
g9
sg10
F500.0
sg11
VWivenhoe Hydroelectric
p3615
sg13
Nsg14
g15
sg16
g17
sg18
g19
sg20
g9
sg21
g3611
sg22
Nsg23
g2
(g24
g4
Ntp3616
Rp3617
(dp3618
g28
F-27.372220999999968
sg29
g30
sg31
F152.6320280000001
sbsg32
g33
((lp3619
g60
atp3620
Rp3621
sg38
g9
sg39
I2012
sbsVAUS0000159
p3622
g2
(g3
g4
Ntp3623
Rp3624
(dp3625
g8
g9
sg10
F25.0
sg11
VIsis Central Sugar Mill
p3626
sg13
Nsg14
g15
sg16
g17
sg18
g19
sg20
g9
sg21
g3622
sg22
Nsg23
g2
(g24
g4
Ntp3627
Rp3628
(dp3629
g28
F-25.19398599999994
sg29
g30
sg31
F152.20855600000004
sbsg32
g33
((lp3630
g285
atp3631
Rp3632
sg38
g9
sg39
I2012
sbsVAUS0000294
p3633
g2
(g3
g4
Ntp3634
Rp3635
(dp3636
g8
g9
sg10
F664.0
sg11
VUranquinty
p3637
sg13
Nsg14
g15
sg16
g17
sg18
g19
sg20
g9
sg21
g3633
sg22
Nsg23
g2
(g24
g4
Ntp3638
Rp3639
(dp3640
g28
F-35.17939499999994
sg29
g30
sg31
F147.2156920000001
sbsg32
g33
((lp3641
g35
atp3642
Rp3643
sg38
g9
sg39
I2012
sbsVAUS0000295
p3644
g2
(g3
g4
Ntp3645
Rp3646
(dp3647
g8
g9
sg10
F1320.0
sg11
VVales Point B
p3648
sg13
Nsg14
g15
sg16
g17
sg18
g19
sg20
g9
sg21
g3644
sg22
Nsg23
g2
(g24
g4
Ntp3649
Rp3650
(dp3651
g28
F-33.16074499999996
sg29
g30
sg31
F151.5431460000001
sbsg32
g33
((lp3652
g72
atp3653
Rp3654
sg38
g9
sg39
I2012
sbsVAUS0000296
p3655
g2
(g3
g4
Ntp3656
Rp3657
(dp3658
g8
g9
sg10
F1000.0
sg11
VWallerawang C
p3659
sg13
Nsg14
g15
sg16
g17
sg18
g19
sg20
g9
sg21
g3655
sg22
Nsg23
g2
(g24
g4
Ntp3660
Rp3661
(dp3662
g28
F-33.40282399999995
sg29
g30
sg31
F150.08334500000012
sbsg32
g33
((lp3663
g72
atp3664
Rp3665
sg38
g9
sg39
I2012
sbsVAUS0000297
p3666
g2
(g3
g4
Ntp3667
Rp3668
(dp3669
g8
g9
sg10
F50.0
sg11
VWarragamba
p3670
sg13
Nsg14
g15
sg16
g17
sg18
g19
sg20
g9
sg21
g3666
sg22
Nsg23
g2
(g24
g4
Ntp3671
Rp3672
(dp3673
g28
F-33.88324199999994
sg29
g30
sg31
F150.59654100000012
sbsg32
g33
((lp3674
g60
atp3675
Rp3676
sg38
g9
sg39
I2012
sbsVAUS0000290
p3677
g2
(g3
g4
Ntp3678
Rp3679
(dp3680
g8
g9
sg10
F810.0
sg11
VTomago Aluminium Smelter
p3681
sg13
Nsg14
g15
sg16
g17
sg18
g19
sg20
g9
sg21
g3677
sg22
Nsg23
g2
(g24
g4
Ntp3682
Rp3683
(dp3684
g28
F-32.821650999999974
sg29
g30
sg31
F151.7178090000001
sbsg32
g33
((lp3685
g35
atp3686
Rp3687
sg38
g9
sg39
I2012
sbsVAUS0000291
p3688
g2
(g3
g4
Ntp3689
Rp3690
(dp3691
g8
g9
sg10
F41.2
sg11
VTower Mine
p3692
sg13
Nsg14
g15
sg16
g17
sg18
g19
sg20
g9
sg21
g3688
sg22
Nsg23
g2
(g24
g4
Ntp3693
Rp3694
(dp3695
g28
F-34.22069199999993
sg29
g30
sg31
F150.7179410000001
sbsg32
g33
((lp3696
g35
atp3697
Rp3698
sg38
g9
sg39
I2012
sbsVAUS0000292
p3699
g2
(g3
g4
Ntp3700
Rp3701
(dp3702
g8
g9
sg10
F384.0
sg11
VTumut 1 (Upper Tumut)
p3703
sg13
Nsg14
g15
sg16
g17
sg18
g19
sg20
g9
sg21
g3699
sg22
Nsg23
g2
(g24
g4
Ntp3704
Rp3705
(dp3706
g28
F-35.95172899999994
sg29
g30
sg31
F148.36371000000008
sbsg32
g33
((lp3707
g60
atp3708
Rp3709
sg38
g9
sg39
I2012
sbsVAUS0000293
p3710
g2
(g3
g4
Ntp3711
Rp3712
(dp3713
g8
g9
sg10
F336.0
sg11
VTumut 2 (Upper Tumut)
p3714
sg13
Nsg14
g15
sg16
g17
sg18
g19
sg20
g9
sg21
g3710
sg22
Nsg23
g2
(g24
g4
Ntp3715
Rp3716
(dp3717
g28
F-35.881290999999976
sg29
g30
sg31
F148.36725200000012
sbsg32
g33
((lp3718
g60
atp3719
Rp3720
sg38
g9
sg39
I2012
sbsVAUS0000117
p3721
g2
(g3
g4
Ntp3722
Rp3723
(dp3724
g8
g9
sg10
F125.0
sg11
VTungatinah
p3725
sg13
Nsg14
g15
sg16
g17
sg18
g19
sg20
g9
sg21
g3721
sg22
Nsg23
g2
(g24
g4
Ntp3726
Rp3727
(dp3728
g28
F-42.29667099999995
sg29
g30
sg31
F146.456543
sbsg32
g33
((lp3729
g60
atp3730
Rp3731
sg38
g9
sg39
I2012
sbsVAUS0000116
p3732
g2
(g3
g4
Ntp3733
Rp3734
(dp3735
g8
g9
sg10
F38.3
sg11
VWayatinah
p3736
sg13
Nsg14
g15
sg16
g17
sg18
g19
sg20
g9
sg21
g3732
sg22
Nsg23
g2
(g24
g4
Ntp3737
Rp3738
(dp3739
g28
F-42.427175999999974
sg29
g30
sg31
F146.53470900000002
sbsg32
g33
((lp3740
g60
atp3741
Rp3742
sg38
g9
sg39
I2012
sbsVAUS0000115
p3743
g2
(g3
g4
Ntp3744
Rp3745
(dp3746
g8
g9
sg10
F2.2
sg11
VRemount
p3747
sg13
Nsg14
g15
sg16
g17
sg18
g19
sg20
g9
sg21
g3743
sg22
Nsg23
g2
(g24
g4
Ntp3748
Rp3749
(dp3750
g28
F-41.39504899999997
sg29
g30
sg31
F147.15542500000004
sbsg32
g33
((lp3751
g229
atp3752
Rp3753
sg38
g9
sg39
I2012
sbsVAUS0000114
p3754
g2
(g3
g4
Ntp3755
Rp3756
(dp3757
g8
g9
sg10
F150.0
sg11
VAnglesea
p3758
sg13
Nsg14
g15
sg16
g17
sg18
g19
sg20
g9
sg21
g3754
sg22
Nsg23
g2
(g24
g4
Ntp3759
Rp3760
(dp3761
g28
F-38.38605599999994
sg29
g30
sg31
F144.18278900000007
sbsg32
g33
((lp3762
g72
atp3763
Rp3764
sg38
g9
sg39
I2012
sbsVAUS0000298
p3765
g2
(g3
g4
Ntp3766
Rp3767
(dp3768
g8
g9
sg10
F1.0
sg11
VWest Illawarra Leagues Club
p3769
sg13
Nsg14
g15
sg16
g17
sg18
g19
sg20
g9
sg21
g3765
sg22
Nsg23
g2
(g24
g4
Ntp3770
Rp3771
(dp3772
g28
F-34.45153699999997
sg29
g30
sg31
F150.84290700000008
sbsg32
g33
((lp3773
g195
atp3774
Rp3775
sg38
g9
sg39
I2012
sbsVAUS0000299
p3776
g2
(g3
g4
Ntp3777
Rp3778
(dp3779
g8
g9
sg10
F1.3
sg11
VWestern Suburbs Leagues Club (Campbelltown)
p3780
sg13
Nsg14
g15
sg16
g17
sg18
g19
sg20
g9
sg21
g3776
sg22
Nsg23
g2
(g24
g4
Ntp3781
Rp3782
(dp3783
g28
F-34.05132599999996
sg29
g30
sg31
F150.8328600000001
sbsg32
g33
((lp3784
g195
atp3785
Rp3786
sg38
g9
sg39
I2012
sbsVAUS0000111
p3787
g2
(g3
g4
Ntp3788
Rp3789
(dp3790
g8
g9
sg10
F44.0
sg11
VCape Nelson South Wind Farm
p3791
sg13
Nsg14
g15
sg16
g17
sg18
g19
sg20
g9
sg21
g3787
sg22
Nsg23
g2
(g24
g4
Ntp3792
Rp3793
(dp3794
g28
F-38.41199999999998
sg29
g30
sg31
F141.54300000000012
sbsg32
g33
((lp3795
g172
atp3796
Rp3797
sg38
g9
sg39
I2012
sbsVAUS0000110
p3798
g2
(g3
g4
Ntp3799
Rp3800
(dp3801
g8
g9
sg10
F54.0
sg11
VCape Sir William Grant Wind Farm
p3802
sg13
Nsg14
g15
sg16
g17
sg18
g19
sg20
g9
sg21
g3798
sg22
Nsg23
g2
(g24
g4
Ntp3803
Rp3804
(dp3805
g28
F-38.39759299999997
sg29
g30
sg31
F141.62085000000002
sbsg32
g33
((lp3806
g172
atp3807
Rp3808
sg38
g9
sg39
I2012
sbsVAUS0000368
p3809
g2
(g3
g4
Ntp3810
Rp3811
(dp3812
g8
g9
sg10
F3.69
sg11
VHalls Creek
p3813
sg13
Nsg14
g15
sg16
g17
sg18
g19
sg20
g9
sg21
g3809
sg22
Nsg23
g2
(g24
g4
Ntp3814
Rp3815
(dp3816
g28
F-18.232751479999934
sg29
g30
sg31
F127.66189702200006
sbsg32
g33
((lp3817
g35
atp3818
Rp3819
sg38
g9
sg39
I2012
sbsVAUS0000369
p3820
g2
(g3
g4
Ntp3821
Rp3822
(dp3823
g8
g9
sg10
F1.3
sg11
VWarmun
p3824
sg13
Nsg14
g15
sg16
g17
sg18
g19
sg20
g9
sg21
g3820
sg22
Nsg23
g2
(g24
g4
Ntp3825
Rp3826
(dp3827
g28
F-17.025883502999932
sg29
g30
sg31
F128.21131963900007
sbsg32
g33
((lp3828
g195
atp3829
Rp3830
sg38
g9
sg39
I2012
sbsVAUS0000414
p3831
g2
(g3
g4
Ntp3832
Rp3833
(dp3834
g8
g9
sg10
F1.04
sg11
VCamballin
p3835
sg13
Nsg14
g15
sg16
g17
sg18
g19
sg20
g9
sg21
g3831
sg22
Nsg23
g2
(g24
g4
Ntp3836
Rp3837
(dp3838
g28
F-18.027757491999978
sg29
g30
sg31
F124.16208514900006
sbsg32
g33
((lp3839
g35
atp3840
Rp3841
sg38
g9
sg39
I2012
sbsVAUS0000415
p3842
g2
(g3
g4
Ntp3843
Rp3844
(dp3845
g8
g9
sg10
F16.5
sg11
VCawse Nickel Mine
p3846
sg13
Nsg14
g15
sg16
g17
sg18
g19
sg20
g9
sg21
g3842
sg22
Nsg23
g2
(g24
g4
Ntp3847
Rp3848
(dp3849
g28
F-30.380805807999934
sg29
g30
sg31
F121.16348091600003
sbsg32
g33
((lp3850
g35
atp3851
Rp3852
sg38
g9
sg39
I2012
sbsVAUS0000412
p3853
g2
(g3
g4
Ntp3854
Rp3855
(dp3856
g8
g9
sg10
F1.3
sg11
VHopetoun Diesel Backup
p3857
sg13
Nsg14
g15
sg16
g17
sg18
g19
sg20
g9
sg21
g3853
sg22
Nsg23
g2
(g24
g4
Ntp3858
Rp3859
(dp3860
g28
F-33.90504892299998
sg29
g30
sg31
F120.12993402100005
sbsg32
g33
((lp3861
g195
atp3862
Rp3863
sg38
g9
sg39
I2012
sbsVAUS0000413
p3864
g2
(g3
g4
Ntp3865
Rp3866
(dp3867
g8
g9
sg10
F1.2
sg11
VHopetoun Wind Turbines
p3868
sg13
Nsg14
g15
sg16
g17
sg18
g19
sg20
g9
sg21
g3864
sg22
Nsg23
g2
(g24
g4
Ntp3869
Rp3870
(dp3871
g28
F-33.90776359299997
sg29
g30
sg31
F120.1296811840001
sbsg32
g33
((lp3872
g172
atp3873
Rp3874
sg38
g9
sg39
I2012
sbsVAUS0000410
p3875
g2
(g3
g4
Ntp3876
Rp3877
(dp3878
g8
g9
sg10
F0.3
sg11
VMenzies
p3879
sg13
Nsg14
g15
sg16
g17
sg18
g19
sg20
g9
sg21
g3875
sg22
Nsg23
g2
(g24
g4
Ntp3880
Rp3881
(dp3882
g28
F-29.690601898999944
sg29
g30
sg31
F121.0251779460001
sbsg32
g33
((lp3883
g195
atp3884
Rp3885
sg38
g9
sg39
I2012
sbsVAUS0000411
p3886
g2
(g3
g4
Ntp3887
Rp3888
(dp3889
g8
g9
sg10
F3.6
sg11
VOnslow
p3890
sg13
Nsg14
g15
sg16
g17
sg18
g19
sg20
g9
sg21
g3886
sg22
Nsg23
g2
(g24
g4
Ntp3891
Rp3892
(dp3893
g28
F-21.65822155199993
sg29
g30
sg31
F115.09902478800007
sbsg32
g33
((lp3894
g35
atp3895
Rp3896
sg38
g9
sg39
I2012
sbsVAUS0000360
p3897
g2
(g3
g4
Ntp3898
Rp3899
(dp3900
g8
g9
sg10
F0.8
sg11
VCue
p3901
sg13
Nsg14
g15
sg16
g17
sg18
g19
sg20
g9
sg21
g3897
sg22
Nsg23
g2
(g24
g4
Ntp3902
Rp3903
(dp3904
g28
F-27.421247747999928
sg29
g30
sg31
F117.88948432200004
sbsg32
g33
((lp3905
g195
atp3906
Rp3907
sg38
g9
sg39
I2012
sbsVAUS0000361
p3908
g2
(g3
g4
Ntp3909
Rp3910
(dp3911
g8
g9
sg10
F0.4
sg11
VSandstone
p3912
sg13
Nsg14
g15
sg16
g17
sg18
g19
sg20
g9
sg21
g3908
sg22
Nsg23
g2
(g24
g4
Ntp3913
Rp3914
(dp3915
g28
F-27.985269348999964
sg29
g30
sg31
F119.29495929900008
sbsg32
g33
((lp3916
g195
atp3917
Rp3918
sg38
g9
sg39
I2012
sbsVAUS0000362
p3919
g2
(g3
g4
Ntp3920
Rp3921
(dp3922
g8
g9
sg10
F0.2
sg11
VNullagine Solar Farm
p3923
sg13
Nsg14
g15
sg16
g17
sg18
g19
sg20
g9
sg21
g3919
sg22
Nsg23
g2
(g24
g4
Ntp3924
Rp3925
(dp3926
g28
F-21.87950110099996
sg29
g30
sg31
F120.11172335900005
sbsg32
g33
((lp3927
g902
atp3928
Rp3929
sg38
g9
sg39
I2012
sbsVAUS0000363
p3930
g2
(g3
g4
Ntp3931
Rp3932
(dp3933
g8
g9
sg10
F0.96
sg11
VNullagine Diesel Backup
p3934
sg13
Nsg14
g15
sg16
g17
sg18
g19
sg20
g9
sg21
g3930
sg22
Nsg23
g2
(g24
g4
Ntp3935
Rp3936
(dp3937
g28
F-21.87944414599997
sg29
g30
sg31
F120.112862457
sbsg32
g33
((lp3938
g195
atp3939
Rp3940
sg38
g9
sg39
I2012
sbsVAUS0000364
p3941
g2
(g3
g4
Ntp3942
Rp3943
(dp3944
g8
g9
sg10
F0.3
sg11
VMarble Bar Solar Farm
p3945
sg13
Nsg14
g15
sg16
g17
sg18
g19
sg20
g9
sg21
g3941
sg22
Nsg23
g2
(g24
g4
Ntp3946
Rp3947
(dp3948
g28
F-21.164344633999974
sg29
g30
sg31
F119.7412000060001
sbsg32
g33
((lp3949
g902
atp3950
Rp3951
sg38
g9
sg39
I2012
sbsVAUS0000365
p3952
g2
(g3
g4
Ntp3953
Rp3954
(dp3955
g8
g9
sg10
F1.28
sg11
VMarble Bar Diesel Backup
p3956
sg13
Nsg14
g15
sg16
g17
sg18
g19
sg20
g9
sg21
g3952
sg22
Nsg23
g2
(g24
g4
Ntp3957
Rp3958
(dp3959
g28
F-21.164922926999964
sg29
g30
sg31
F119.74185150000005
sbsg32
g33
((lp3960
g195
atp3961
Rp3962
sg38
g9
sg39
I2012
sbsVAUS0000366
p3963
g2
(g3
g4
Ntp3964
Rp3965
(dp3966
g8
g9
sg10
F12.53
sg11
VDerby
p3967
sg13
Nsg14
g15
sg16
g17
sg18
g19
sg20
g9
sg21
g3963
sg22
Nsg23
g2
(g24
g4
Ntp3968
Rp3969
(dp3970
g28
F-17.31414106999995
sg29
g30
sg31
F123.64414998000007
sbsg32
g33
((lp3971
g35
atp3972
Rp3973
sg38
g9
sg39
I2012
sbsVAUS0000367
p3974
g2
(g3
g4
Ntp3975
Rp3976
(dp3977
g8
g9
sg10
F4.06
sg11
VFitzroy Crossing
p3978
sg13
Nsg14
g15
sg16
g17
sg18
g19
sg20
g9
sg21
g3974
sg22
Nsg23
g2
(g24
g4
Ntp3979
Rp3980
(dp3981
g28
F-18.195575047999967
sg29
g30
sg31
F125.55971118500008
sbsg32
g33
((lp3982
g35
atp3983
Rp3984
sg38
g9
sg39
I2012
sbsVAUS0000203
p3985
g2
(g3
g4
Ntp3986
Rp3987
(dp3988
g8
g9
sg10
F98.0
sg11
VWagerup Bauxite Mine and Alumina Refinery
p3989
sg13
Nsg14
g15
sg16
g17
sg18
g19
sg20
g9
sg21
g3985
sg22
Nsg23
g2
(g24
g4
Ntp3990
Rp3991
(dp3992
g28
F-32.91449499999993
sg29
g30
sg31
F115.91699500000004
sbsg32
g33
((lp3993
g35
atp3994
Rp3995
sg38
g9
sg39
I2012
sbsVAUS0000202
p3996
g2
(g3
g4
Ntp3997
Rp3998
(dp3999
g8
g9
sg10
F56.0
sg11
VRavensthorpe
p4000
sg13
Nsg14
g15
sg16
g17
sg18
g19
sg20
g9
sg21
g3996
sg22
Nsg23
g2
(g24
g4
Ntp4001
Rp4002
(dp4003
g28
F-33.60999999999996
sg29
g30
sg31
F120.36000000000001
sbsg32
g33
((lp4004
g195
atp4005
Rp4006
sg38
g9
sg39
I2012
sbsVAUS0000168
p4007
g2
(g3
g4
Ntp4008
Rp4009
(dp4010
g8
g9
sg10
F1460.0
sg11
VStanwell
p4011
sg13
Nsg14
g15
sg16
g17
sg18
g19
sg20
g9
sg21
g4007
sg22
Nsg23
g2
(g24
g4
Ntp4012
Rp4013
(dp4014
g28
F-23.50971999999996
sg29
g30
sg31
F150.31946600000003
sbsg32
g33
((lp4015
g72
atp4016
Rp4017
sg38
g9
sg39
I2012
sbsVAUS0000169
p4018
g2
(g3
g4
Ntp4019
Rp4020
(dp4021
g8
g9
sg10
F15.0
sg11
VTarong
p4022
sg13
Nsg14
g15
sg16
g17
sg18
g19
sg20
g9
sg21
g4018
sg22
Nsg23
g2
(g24
g4
Ntp4023
Rp4024
(dp4025
g28
F-26.785766999999964
sg29
g30
sg31
F151.91716400000007
sbsg32
g33
((lp4026
g195
atp4027
Rp4028
sg38
g9
sg39
I2012
sbsVAUS0000207
p4029
g2
(g3
g4
Ntp4030
Rp4031
(dp4032
g8
g9
sg10
F1.9
sg11
VMount Magnet
p4033
sg13
Nsg14
g15
sg16
g17
sg18
g19
sg20
g9
sg21
g4029
sg22
Nsg23
g2
(g24
g4
Ntp4034
Rp4035
(dp4036
g28
F-28.087084337999954
sg29
g30
sg31
F117.83271097700003
sbsg32
g33
((lp4037
g35
atp4038
Rp4039
sg38
g9
sg39
I2012
sbsVAUS0000206
p4040
g2
(g3
g4
Ntp4041
Rp4042
(dp4043
g8
g9
sg10
F126.0
sg11
VPort Hedland
p4044
sg13
Nsg14
g15
sg16
g17
sg18
g19
sg20
g9
sg21
g4040
sg22
Nsg23
g2
(g24
g4
Ntp4045
Rp4046
(dp4047
g28
F-20.42829999999998
sg29
g30
sg31
F118.54980000000012
sbsg32
g33
((lp4048
g35
atp4049
Rp4050
sg38
g9
sg39
I2012
sbsVAUS0000205
p4051
g2
(g3
g4
Ntp4052
Rp4053
(dp4054
g8
g9
sg10
F60.0
sg11
VWest Kalgoorlie
p4055
sg13
Nsg14
g15
sg16
g17
sg18
g19
sg20
g9
sg21
g4051
sg22
Nsg23
g2
(g24
g4
Ntp4056
Rp4057
(dp4058
g28
F-30.78063499999996
sg29
g30
sg31
F121.42335500000002
sbsg32
g33
((lp4059
g195
atp4060
Rp4061
sg38
g9
sg39
I2012
sbsVAUS0000204
p4062
g2
(g3
g4
Ntp4063
Rp4064
(dp4065
g8
g9
sg10
F380.0
sg11
VWagerup
p4066
sg13
Nsg14
g15
sg16
g17
sg18
g19
sg20
g9
sg21
g4062
sg22
Nsg23
g2
(g24
g4
Ntp4067
Rp4068
(dp4069
g28
F-32.916016999999954
sg29
g30
sg31
F115.91864700000008
sbsg32
g33
((lp4070
g35
atp4071
Rp4072
sg38
g9
sg39
I2012
sbsVAUS0000162
p4073
g2
(g3
g4
Ntp4074
Rp4075
(dp4076
g8
g9
sg10
F744.0
sg11
VKogan Creek
p4077
sg13
Nsg14
g15
sg16
g17
sg18
g19
sg20
g9
sg21
g4073
sg22
Nsg23
g2
(g24
g4
Ntp4078
Rp4079
(dp4080
g28
F-26.917683332999957
sg29
g30
sg31
F150.7492833330001
sbsg32
g33
((lp4081
g72
atp4082
Rp4083
sg38
g9
sg39
I2013
sbsVAUS0000163
p4084
g2
(g3
g4
Ntp4085
Rp4086
(dp4087
g8
g9
sg10
F856.0
sg11
VMillmerran
p4088
sg13
Nsg14
g15
sg16
g17
sg18
g19
sg20
g9
sg21
g4084
sg22
Nsg23
g2
(g24
g4
Ntp4089
Rp4090
(dp4091
g28
F-27.96154199999995
sg29
g30
sg31
F151.278949
sbsg32
g33
((lp4092
g72
atp4093
Rp4094
sg38
g9
sg39
I2012
sbsVAUS0000160
p4095
g2
(g3
g4
Ntp4096
Rp4097
(dp4098
g8
g9
sg10
F9.0
sg11
VKalamia Sugar Mill
p4099
sg13
Nsg14
g15
sg16
g17
sg18
g19
sg20
g9
sg21
g4095
sg22
Nsg23
g2
(g24
g4
Ntp4100
Rp4101
(dp4102
g28
F-19.52233899999993
sg29
g30
sg31
F147.41523700000005
sbsg32
g33
((lp4103
g285
atp4104
Rp4105
sg38
g9
sg39
I2012
sbsVAUS0000161
p4106
g2
(g3
g4
Ntp4107
Rp4108
(dp4109
g8
g9
sg10
F88.0
sg11
VKareeya
p4110
sg13
Nsg14
g15
sg16
g17
sg18
g19
sg20
g9
sg21
g4106
sg22
Nsg23
g2
(g24
g4
Ntp4111
Rp4112
(dp4113
g28
F-17.767001999999934
sg29
g30
sg31
F145.5778650000001
sbsg32
g33
((lp4114
g60
atp4115
Rp4116
sg38
g9
sg39
I2012
sbsVAUS0000166
p4117
g2
(g3
g4
Ntp4118
Rp4119
(dp4120
g8
g9
sg10
F282.0
sg11
VOakey
p4121
sg13
Nsg14
g15
sg16
g17
sg18
g19
sg20
g9
sg21
g4117
sg22
Nsg23
g2
(g24
g4
Ntp4122
Rp4123
(dp4124
g28
F-27.418361999999945
sg29
g30
sg31
F151.67976700000008
sbsg32
g33
((lp4125
g35
atp4126
Rp4127
sg38
g9
sg39
I2012
sbsVAUS0000167
p4128
g2
(g3
g4
Ntp4129
Rp4130
(dp4131
g8
g9
sg10
F20.0
sg11
VOaky Creek
p4132
sg13
Nsg14
g15
sg16
g17
sg18
g19
sg20
g9
sg21
g4128
sg22
Nsg23
g2
(g24
g4
Ntp4133
Rp4134
(dp4135
g28
F-22.98777599999994
sg29
g30
sg31
F148.58170200000006
sbsg32
g33
((lp4136
g35
atp4137
Rp4138
sg38
g9
sg39
I2012
sbsVAUS0000164
p4139
g2
(g3
g4
Ntp4140
Rp4141
(dp4142
g8
g9
sg10
F12.0
sg11
VMoranbah
p4143
sg13
Nsg14
g15
sg16
g17
sg18
g19
sg20
g9
sg21
g4139
sg22
Nsg23
g2
(g24
g4
Ntp4144
Rp4145
(dp4146
g28
F-21.98513020799993
sg29
g30
sg31
F148.02464716200006
sbsg32
g33
((lp4147
g35
atp4148
Rp4149
sg38
g9
sg39
I2012
sbsVAUS0000165
p4150
g2
(g3
g4
Ntp4151
Rp4152
(dp4153
g8
g9
sg10
F424.0
sg11
VMount Stuart
p4154
sg13
Nsg14
g15
sg16
g17
sg18
g19
sg20
g9
sg21
g4150
sg22
Nsg23
g2
(g24
g4
Ntp4155
Rp4156
(dp4157
g28
F-19.33799799999997
sg29
g30
sg31
F146.85117100000002
sbsg32
g33
((lp4158
g195
atp4159
Rp4160
sg38
g9
sg39
I2012
sbsVAUS0000067
p4161
g2
(g3
g4
Ntp4162
Rp4163
(dp4164
g8
g9
sg10
F4.4
sg11
VWollert
p4165
sg13
Nsg14
g15
sg16
g17
sg18
g19
sg20
g9
sg21
g4161
sg22
Nsg23
g2
(g24
g4
Ntp4166
Rp4167
(dp4168
g28
F-37.582956999999965
sg29
g30
sg31
F145.04870400000004
sbsg32
g33
((lp4169
g229
atp4170
Rp4171
sg38
g9
sg39
I2012
sbsVAUS0000066
p4172
g2
(g3
g4
Ntp4173
Rp4174
(dp4175
g8
g9
sg10
F1.1
sg11
VWyndham
p4176
sg13
Nsg14
g15
sg16
g17
sg18
g19
sg20
g9
sg21
g4172
sg22
Nsg23
g2
(g24
g4
Ntp4177
Rp4178
(dp4179
g28
F-37.93748799999997
sg29
g30
sg31
F144.59017900000003
sbsg32
g33
((lp4180
g229
atp4181
Rp4182
sg38
g9
sg39
I2012
sbsVAUS0000065
p4183
g2
(g3
g4
Ntp4184
Rp4185
(dp4186
g8
g9
sg10
F21.6
sg11
VAlbany Wind Farm
p4187
sg13
Nsg14
g15
sg16
g17
sg18
g19
sg20
g9
sg21
g4183
sg22
Nsg23
g2
(g24
g4
Ntp4188
Rp4189
(dp4190
g28
F-35.064146999999934
sg29
g30
sg31
F117.79769500000009
sbsg32
g33
((lp4191
g172
atp4192
Rp4193
sg38
g9
sg39
I2012
sbsVAUS0000064
p4194
g2
(g3
g4
Ntp4195
Rp4196
(dp4197
g8
g9
sg10
F46.0
sg11
VCanunda Wind Farm
p4198
sg13
Nsg14
g15
sg16
g17
sg18
g19
sg20
g9
sg21
g4194
sg22
Nsg23
g2
(g24
g4
Ntp4199
Rp4200
(dp4201
g28
F-37.76025335999998
sg29
g30
sg31
F140.40331128800005
sbsg32
g33
((lp4202
g172
atp4203
Rp4204
sg38
g9
sg39
I2012
sbsVAUS0000063
p4205
g2
(g3
g4
Ntp4206
Rp4207
(dp4208
g8
g9
sg10
F66.0
sg11
VCathedral Rocks Wind Farm
p4209
sg13
Nsg14
g15
sg16
g17
sg18
g19
sg20
g9
sg21
g4205
sg22
Nsg23
g2
(g24
g4
Ntp4210
Rp4211
(dp4212
g28
F-34.85086099999995
sg29
g30
sg31
F135.58517200000006
sbsg32
g33
((lp4213
g172
atp4214
Rp4215
sg38
g9
sg39
I2012
sbsVAUS0000062
p4216
g2
(g3
g4
Ntp4217
Rp4218
(dp4219
g8
g9
sg10
F159.0
sg11
VLake Bonney Wind Farm
p4220
sg13
Nsg14
g15
sg16
g17
sg18
g19
sg20
g9
sg21
g4216
sg22
Nsg23
g2
(g24
g4
Ntp4221
Rp4222
(dp4223
g28
F-37.77134988199998
sg29
g30
sg31
F140.39808392700002
sbsg32
g33
((lp4224
g172
atp4225
Rp4226
sg38
g9
sg39
I2012
sbsVAUS0000061
p4227
g2
(g3
g4
Ntp4228
Rp4229
(dp4230
g8
g9
sg10
F70.0
sg11
VMount Millar Wind Farm
p4231
sg13
Nsg14
g15
sg16
g17
sg18
g19
sg20
g9
sg21
g4227
sg22
Nsg23
g2
(g24
g4
Ntp4232
Rp4233
(dp4234
g28
F-33.62672799999996
sg29
g30
sg31
F136.704562
sbsg32
g33
((lp4235
g172
atp4236
Rp4237
sg38
g9
sg39
I2012
sbsVAUS0000060
p4238
g2
(g3
g4
Ntp4239
Rp4240
(dp4241
g8
g9
sg10
F30.0
sg11
VRocky Point Sugar Sugar Mill
p4242
sg13
Nsg14
g15
sg16
g17
sg18
g19
sg20
g9
sg21
g4238
sg22
Nsg23
g2
(g24
g4
Ntp4243
Rp4244
(dp4245
g28
F-27.73344899999995
sg29
g30
sg31
F153.32760700000006
sbsg32
g33
((lp4246
g285
atp4247
Rp4248
sg38
g9
sg39
I2012
sbsVAUS0000069
p4249
g2
(g3
g4
Ntp4250
Rp4251
(dp4252
g8
g9
sg10
F21.0
sg11
VToora Wind Farm
p4253
sg13
Nsg14
g15
sg16
g17
sg18
g19
sg20
g9
sg21
g4249
sg22
Nsg23
g2
(g24
g4
Ntp4254
Rp4255
(dp4256
g28
F-38.645059999999944
sg29
g30
sg31
F146.34413200000006
sbsg32
g33
((lp4257
g172
atp4258
Rp4259
sg38
g9
sg39
I2012
sbsVAUS0000068
p4260
g2
(g3
g4
Ntp4261
Rp4262
(dp4263
g8
g9
sg10
F1.1
sg11
VWhitwood Road
p4264
sg13
Nsg14
g15
sg16
g17
sg18
g19
sg20
g9
sg21
g4260
sg22
Nsg23
g2
(g24
g4
Ntp4265
Rp4266
(dp4267
g28
F-27.659013999999956
sg29
g30
sg31
F152.82374300000004
sbsg32
g33
((lp4268
g229
atp4269
Rp4270
sg38
g9
sg39
I2012
sbsVAUS0000028
p4271
g2
(g3
g4
Ntp4272
Rp4273
(dp4274
g8
g9
sg10
F48.3
sg11
VWoodlawn Wind Farm
p4275
sg13
Nsg14
g15
sg16
g17
sg18
g19
sg20
g9
sg21
g4271
sg22
Nsg23
g2
(g24
g4
Ntp4276
Rp4277
(dp4278
g28
F-35.086059700999954
sg29
g30
sg31
F149.57160577900004
sbsg32
g33
((lp4279
g172
atp4280
Rp4281
sg38
g9
sg39
I2012
sbsVAUS0000012
p4282
g2
(g3
g4
Ntp4283
Rp4284
(dp4285
g8
g9
sg10
F5.7
sg11
VPindari
p4286
sg13
Nsg14
g15
sg16
g17
sg18
g19
sg20
g9
sg21
g4282
sg22
Nsg23
g2
(g24
g4
Ntp4287
Rp4288
(dp4289
g28
F-29.38862599999993
sg29
g30
sg31
F151.2442020000001
sbsg32
g33
((lp4290
g60
atp4291
Rp4292
sg38
g9
sg39
I2012
sbsVAUS0000013
p4293
g2
(g3
g4
Ntp4294
Rp4295
(dp4296
g8
g9
sg10
F2.2
sg11
VNieterana
p4297
sg13
Nsg14
g15
sg16
g17
sg18
g19
sg20
g9
sg21
g4293
sg22
Nsg23
g2
(g24
g4
Ntp4298
Rp4299
(dp4300
g28
F-42.26858699999997
sg29
g30
sg31
F146.2628830000001
sbsg32
g33
((lp4301
g60
atp4302
Rp4303
sg38
g9
sg39
I2012
sbsVAUS0000010
p4304
g2
(g3
g4
Ntp4305
Rp4306
(dp4307
g8
g9
sg10
F75.0
sg11
VStudland Bay (Woolnorth) Wind Farm
p4308
sg13
Nsg14
g15
sg16
g17
sg18
g19
sg20
g9
sg21
g4304
sg22
Nsg23
g2
(g24
g4
Ntp4309
Rp4310
(dp4311
g28
F-40.778753999999935
sg29
g30
sg31
F144.73620400000004
sbsg32
g33
((lp4312
g172
atp4313
Rp4314
sg38
g9
sg39
I2012
sbsVAUS0000011
p4315
g2
(g3
g4
Ntp4316
Rp4317
(dp4318
g8
g9
sg10
F2.5
sg11
VThe Drop
p4319
sg13
Nsg14
g15
sg16
g17
sg18
g19
sg20
g9
sg21
g4315
sg22
Nsg23
g2
(g24
g4
Ntp4320
Rp4321
(dp4322
g28
F-35.60434699999996
sg29
g30
sg31
F145.78372500000012
sbsg32
g33
((lp4323
g60
atp4324
Rp4325
sg38
g9
sg39
I2012
sbsVAUS0000016
p4326
g2
(g3
g4
Ntp4327
Rp4328
(dp4329
g8
g9
sg10
F67.2
sg11
VOakland Hills Wind Farm
p4330
sg13
Nsg14
g15
sg16
g17
sg18
g19
sg20
g9
sg21
g4326
sg22
Nsg23
g2
(g24
g4
Ntp4331
Rp4332
(dp4333
g28
F-37.66380099999998
sg29
g30
sg31
F142.5480560000001
sbsg32
g33
((lp4334
g172
atp4335
Rp4336
sg38
g9
sg39
I2012
sbsVAUS0000017
p4337
g2
(g3
g4
Ntp4338
Rp4339
(dp4340
g8
g9
sg10
F1.1
sg11
VShepparton Biogas Generation Plant
p4341
sg13
Nsg14
g15
sg16
g17
sg18
g19
sg20
g9
sg21
g4337
sg22
Nsg23
g2
(g24
g4
Ntp4342
Rp4343
(dp4344
g28
F-36.321774999999946
sg29
g30
sg31
F145.37898300000006
sbsg32
g33
((lp4345
g229
atp4346
Rp4347
sg38
g9
sg39
I2012
sbsVAUS0000014
p4348
g2
(g3
g4
Ntp4349
Rp4350
(dp4351
g8
g9
sg10
F12.5
sg11
VBanimboola
p4352
sg13
Nsg14
g15
sg16
g17
sg18
g19
sg20
g9
sg21
g4348
sg22
Nsg23
g2
(g24
g4
Ntp4353
Rp4354
(dp4355
g28
F-36.534208999999976
sg29
g30
sg31
F147.45942600000012
sbsg32
g33
((lp4356
g60
atp4357
Rp4358
sg38
g9
sg39
I2012
sbsVAUS0000015
p4359
g2
(g3
g4
Ntp4360
Rp4361
(dp4362
g8
g9
sg10
F18.2
sg11
VCodrington Wind Farm
p4363
sg13
Nsg14
g15
sg16
g17
sg18
g19
sg20
g9
sg21
g4359
sg22
Nsg23
g2
(g24
g4
Ntp4364
Rp4365
(dp4366
g28
F-38.28351622699995
sg29
g30
sg31
F141.9547286720001
sbsg32
g33
((lp4367
g172
atp4368
Rp4369
sg38
g9
sg39
I2012
sbsVAUS0000018
p4370
g2
(g3
g4
Ntp4371
Rp4372
(dp4373
g8
g9
sg10
F1.1
sg11
VTatura Biogas Generation Plant
p4374
sg13
Nsg14
g15
sg16
g17
sg18
g19
sg20
g9
sg21
g4370
sg22
Nsg23
g2
(g24
g4
Ntp4375
Rp4376
(dp4377
g28
F-36.47926099999995
sg29
g30
sg31
F145.23502600000006
sbsg32
g33
((lp4378
g229
atp4379
Rp4380
sg38
g9
sg39
I2012
sbsVAUS0000019
p4381
g2
(g3
g4
Ntp4382
Rp4383
(dp4384
g8
g9
sg10
F192.0
sg11
VWaubra Wind Farm
p4385
sg13
Nsg14
g15
sg16
g17
sg18
g19
sg20
g9
sg21
g4381
sg22
Nsg23
g2
(g24
g4
Ntp4386
Rp4387
(dp4388
g28
F-37.355981499999984
sg29
g30
sg31
F143.6059150000001
sbsg32
g33
((lp4389
g172
atp4390
Rp4391
sg38
g9
sg39
I2012
sbsVAUS0000158
p4392
g2
(g3
g4
Ntp4393
Rp4394
(dp4395
g8
g9
sg10
F1680.0
sg11
VGladstone
p4396
sg13
Nsg14
g15
sg16
g17
sg18
g19
sg20
g9
sg21
g4392
sg22
Nsg23
g2
(g24
g4
Ntp4397
Rp4398
(dp4399
g28
F-23.85075299999994
sg29
g30
sg31
F151.21865300000002
sbsg32
g33
((lp4400
g72
atp4401
Rp4402
sg38
g9
sg39
I2012
sbsVAUS0000058
p4403
g2
(g3
g4
Ntp4404
Rp4405
(dp4406
g8
g9
sg10
F2.5
sg11
VTerminal Storage
p4407
sg13
Nsg14
g15
sg16
g17
sg18
g19
sg20
g9
sg21
g4403
sg22
Nsg23
g2
(g24
g4
Ntp4408
Rp4409
(dp4410
g28
F-34.83932299999998
sg29
g30
sg31
F138.711226
sbsg32
g33
((lp4411
g60
atp4412
Rp4413
sg38
g9
sg39
I2012
sbsVAUS0000059
p4414
g2
(g3
g4
Ntp4415
Rp4416
(dp4417
g8
g9
sg10
F1.5
sg11
VSuncoast Gold Macadamia
p4418
sg13
Nsg14
g15
sg16
g17
sg18
g19
sg20
g9
sg21
g4414
sg22
Nsg23
g2
(g24
g4
Ntp4419
Rp4420
(dp4421
g28
F-26.226124999999968
sg29
g30
sg31
F152.69810200000006
sbsg32
g33
((lp4422
g285
atp4423
Rp4424
sg38
g9
sg39
I2012
sbsVAUS0000457
p4425
g2
(g3
g4
Ntp4426
Rp4427
(dp4428
g8
g9
sg10
F125.0
sg11
VSolomon Iron Ore Mine
p4429
sg13
Nsg14
g15
sg16
g17
sg18
g19
sg20
g9
sg21
g4425
sg22
Nsg23
g2
(g24
g4
Ntp4430
Rp4431
(dp4432
g28
F-22.158138793999967
sg29
g30
sg31
F117.98486380600002
sbsg32
g33
((lp4433
g35
atp4434
Rp4435
sg38
g9
sg39
NsbsVAUS0000455
p4436
g2
(g3
g4
Ntp4437
Rp4438
(dp4439
g8
g9
sg10
F98.7
sg11
VSnowtown Wind Farm Stage 2
p4440
sg13
Nsg14
g15
sg16
g17
sg18
g19
sg20
g9
sg21
g4436
sg22
Nsg23
g2
(g24
g4
Ntp4441
Rp4442
(dp4443
g28
F-33.83008204299995
sg29
g30
sg31
F138.11841139700005
sbsg32
g33
((lp4444
g172
atp4445
Rp4446
sg38
g9
sg39
I2012
sbsVAUS0000249
p4447
g2
(g3
g4
Ntp4448
Rp4449
(dp4450
g8
g9
sg10
F90.0
sg11
VMintaro
p4451
sg13
Nsg14
g15
sg16
g17
sg18
g19
sg20
g9
sg21
g4447
sg22
Nsg23
g2
(g24
g4
Ntp4452
Rp4453
(dp4454
g28
F-33.90309999999994
sg29
g30
sg31
F138.7383000000001
sbsg32
g33
((lp4455
g35
atp4456
Rp4457
sg38
g9
sg39
I2012
sbsVAUS0000248
p4458
g2
(g3
g4
Ntp4459
Rp4460
(dp4461
g8
g9
sg10
F530.0
sg11
VNorthern
p4462
sg13
Nsg14
g15
sg16
g17
sg18
g19
sg20
g9
sg21
g4458
sg22
Nsg23
g2
(g24
g4
Ntp4463
Rp4464
(dp4465
g28
F-32.54325399999993
sg29
g30
sg31
F137.78820400000006
sbsg32
g33
((lp4466
g72
atp4467
Rp4468
sg38
g9
sg39
I2012
sbsVAUS0000247
p4469
g2
(g3
g4
Ntp4470
Rp4471
(dp4472
g8
g9
sg10
F240.0
sg11
VPlayford
p4473
sg13
Nsg14
g15
sg16
g17
sg18
g19
sg20
g9
sg21
g4469
sg22
Nsg23
g2
(g24
g4
Ntp4474
Rp4475
(dp4476
g28
F-32.539278999999965
sg29
g30
sg31
F137.78188000000011
sbsg32
g33
((lp4477
g72
atp4478
Rp4479
sg38
g9
sg39
I2012
sbsVAUS0000246
p4480
g2
(g3
g4
Ntp4481
Rp4482
(dp4483
g8
g9
sg10
F0.0
sg11
VSnowtown
p4484
sg13
Nsg14
g15
sg16
g17
sg18
g19
sg20
g9
sg21
g4480
sg22
Nsg23
g2
(g24
g4
Ntp4485
Rp4486
(dp4487
g28
F-33.71386699999994
sg29
g30
sg31
F138.14036700000008
sbsg32
g33
((lp4488
g35
atp4489
Rp4490
sg38
g9
sg39
I2012
sbsVAUS0000245
p4491
g2
(g3
g4
Ntp4492
Rp4493
(dp4494
g8
g9
sg10
F63.0
sg11
VSnuggery
p4495
sg13
Nsg14
g15
sg16
g17
sg18
g19
sg20
g9
sg21
g4491
sg22
Nsg23
g2
(g24
g4
Ntp4496
Rp4497
(dp4498
g28
F-37.66455099999996
sg29
g30
sg31
F140.41555800000003
sbsg32
g33
((lp4499
g35
atp4500
Rp4501
sg38
g9
sg39
I2012
sbsVAUS0000244
p4502
g2
(g3
g4
Ntp4503
Rp4504
(dp4505
g8
g9
sg10
F80.0
sg11
VLadbroke Grove
p4506
sg13
Nsg14
g15
sg16
g17
sg18
g19
sg20
g9
sg21
g4502
sg22
Nsg23
g2
(g24
g4
Ntp4507
Rp4508
(dp4509
g28
F-37.45667299999997
sg29
g30
sg31
F140.7826920000001
sbsg32
g33
((lp4510
g35
atp4511
Rp4512
sg38
g9
sg39
I2012
sbsVAUS0000243
p4513
g2
(g3
g4
Ntp4514
Rp4515
(dp4516
g8
g9
sg10
F4.1
sg11
VWingfield II
p4517
sg13
Nsg14
g15
sg16
g17
sg18
g19
sg20
g9
sg21
g4513
sg22
Nsg23
g2
(g24
g4
Ntp4518
Rp4519
(dp4520
g28
F-34.83208099999996
sg29
g30
sg31
F138.5489030000001
sbsg32
g33
((lp4521
g229
atp4522
Rp4523
sg38
g9
sg39
I2012
sbsVAUS0000242
p4524
g2
(g3
g4
Ntp4525
Rp4526
(dp4527
g8
g9
sg10
F4.1
sg11
VWingfield I
p4528
sg13
Nsg14
g15
sg16
g17
sg18
g19
sg20
g9
sg21
g4524
sg22
Nsg23
g2
(g24
g4
Ntp4529
Rp4530
(dp4531
g28
F-34.83481999999998
sg29
g30
sg31
F138.55724700000007
sbsg32
g33
((lp4532
g229
atp4533
Rp4534
sg38
g9
sg39
I2012
sbsVAUS0000241
p4535
g2
(g3
g4
Ntp4536
Rp4537
(dp4538
g8
g9
sg10
F800.0
sg11
VTorrens Island B
p4539
sg13
Nsg14
g15
sg16
g17
sg18
g19
sg20
g9
sg21
g4535
sg22
Nsg23
g2
(g24
g4
Ntp4540
Rp4541
(dp4542
g28
F-34.80517099999997
sg29
g30
sg31
F138.52262000000007
sbsg32
g33
((lp4543
g35
atp4544
Rp4545
sg38
g9
sg39
I2012
sbsVAUS0000240
p4546
g2
(g3
g4
Ntp4547
Rp4548
(dp4549
g8
g9
sg10
F480.0
sg11
VTorrens Island A
p4550
sg13
Nsg14
g15
sg16
g17
sg18
g19
sg20
g9
sg21
g4546
sg22
Nsg23
g2
(g24
g4
Ntp4551
Rp4552
(dp4553
g28
F-34.806843999999955
sg29
g30
sg31
F138.52132200000005
sbsg32
g33
((lp4554
g35
atp4555
Rp4556
sg38
g9
sg39
I2012
sbsVAUS0000126
p4557
g2
(g3
g4
Ntp4558
Rp4559
(dp4560
g8
g9
sg10
F48.0
sg11
VCatagunya
p4561
sg13
Nsg14
g15
sg16
g17
sg18
g19
sg20
g9
sg21
g4557
sg22
Nsg23
g2
(g24
g4
Ntp4562
Rp4563
(dp4564
g28
F-42.452380999999946
sg29
g30
sg31
F146.59768700000006
sbsg32
g33
((lp4565
g60
atp4566
Rp4567
sg38
g9
sg39
I2012
sbsVAUS0000088
p4568
g2
(g3
g4
Ntp4569
Rp4570
(dp4571
g8
g9
sg10
F212.0
sg11
VJeeralang A
p4572
sg13
Nsg14
g15
sg16
g17
sg18
g19
sg20
g9
sg21
g4568
sg22
Nsg23
g2
(g24
g4
Ntp4573
Rp4574
(dp4575
g28
F-38.27532499999995
sg29
g30
sg31
F146.4262960000001
sbsg32
g33
((lp4576
g35
atp4577
Rp4578
sg38
g9
sg39
I2012
sbsVAUS0000124
p4579
g2
(g3
g4
Ntp4580
Rp4581
(dp4582
g8
g9
sg10
F32.0
sg11
VLake Echo
p4583
sg13
Nsg14
g15
sg16
g17
sg18
g19
sg20
g9
sg21
g4579
sg22
Nsg23
g2
(g24
g4
Ntp4584
Rp4585
(dp4586
g28
F-42.253701999999976
sg29
g30
sg31
F146.62069900000006
sbsg32
g33
((lp4587
g60
atp4588
Rp4589
sg38
g9
sg39
I2012
sbsVAUS0000125
p4590
g2
(g3
g4
Ntp4591
Rp4592
(dp4593
g8
g9
sg10
F17.0
sg11
VCluny
p4594
sg13
Nsg14
g15
sg16
g17
sg18
g19
sg20
g9
sg21
g4590
sg22
Nsg23
g2
(g24
g4
Ntp4595
Rp4596
(dp4597
g28
F-42.506422999999984
sg29
g30
sg31
F146.68116200000009
sbsg32
g33
((lp4598
g60
atp4599
Rp4600
sg38
g9
sg39
I2012
sbsVAUS0000122
p4601
g2
(g3
g4
Ntp4602
Rp4603
(dp4604
g8
g9
sg10
F40.0
sg11
VMeadowbank
p4605
sg13
Nsg14
g15
sg16
g17
sg18
g19
sg20
g9
sg21
g4601
sg22
Nsg23
g2
(g24
g4
Ntp4606
Rp4607
(dp4608
g28
F-42.61119899999994
sg29
g30
sg31
F146.84567600000003
sbsg32
g33
((lp4609
g60
atp4610
Rp4611
sg38
g9
sg39
I2012
sbsVAUS0000123
p4612
g2
(g3
g4
Ntp4613
Rp4614
(dp4615
g8
g9
sg10
F87.3
sg11
VLiapootah
p4616
sg13
Nsg14
g15
sg16
g17
sg18
g19
sg20
g9
sg21
g4612
sg22
Nsg23
g2
(g24
g4
Ntp4617
Rp4618
(dp4619
g28
F-42.37631699999997
sg29
g30
sg31
F146.50989000000004
sbsg32
g33
((lp4620
g60
atp4621
Rp4622
sg38
g9
sg39
I2012
sbsVAUS0000120
p4623
g2
(g3
g4
Ntp4624
Rp4625
(dp4626
g8
g9
sg10
F28.0
sg11
VRepulse
p4627
sg13
Nsg14
g15
sg16
g17
sg18
g19
sg20
g9
sg21
g4623
sg22
Nsg23
g2
(g24
g4
Ntp4628
Rp4629
(dp4630
g28
F-42.507694999999956
sg29
g30
sg31
F146.64696000000004
sbsg32
g33
((lp4631
g60
atp4632
Rp4633
sg38
g9
sg39
I2012
sbsVAUS0000121
p4634
g2
(g3
g4
Ntp4635
Rp4636
(dp4637
g8
g9
sg10
F300.0
sg11
VPoatina
p4638
sg13
Nsg14
g15
sg16
g17
sg18
g19
sg20
g9
sg21
g4634
sg22
Nsg23
g2
(g24
g4
Ntp4639
Rp4640
(dp4641
g28
F-41.81157299999995
sg29
g30
sg31
F146.9190380000001
sbsg32
g33
((lp4642
g60
atp4643
Rp4644
sg38
g9
sg39
I2012
sbsVAUS0000081
p4645
g2
(g3
g4
Ntp4646
Rp4647
(dp4648
g8
g9
sg10
F94.0
sg11
VBairnsdale
p4649
sg13
Nsg14
g15
sg16
g17
sg18
g19
sg20
g9
sg21
g4645
sg22
Nsg23
g2
(g24
g4
Ntp4650
Rp4651
(dp4652
g28
F-37.842858999999976
sg29
g30
sg31
F147.56393000000003
sbsg32
g33
((lp4653
g35
atp4654
Rp4655
sg38
g9
sg39
I2012
sbsVAUS0000080
p4656
g2
(g3
g4
Ntp4657
Rp4658
(dp4659
g8
g9
sg10
F4.6
sg11
VBerwick
p4660
sg13
Nsg14
g15
sg16
g17
sg18
g19
sg20
g9
sg21
g4656
sg22
Nsg23
g2
(g24
g4
Ntp4661
Rp4662
(dp4663
g28
F-38.11970199999996
sg29
g30
sg31
F145.26646100000005
sbsg32
g33
((lp4664
g229
atp4665
Rp4666
sg38
g9
sg39
I2012
sbsVAUS0000083
p4667
g2
(g3
g4
Ntp4668
Rp4669
(dp4670
g8
g9
sg10
F11.0
sg11
VClayton
p4671
sg13
Nsg14
g15
sg16
g17
sg18
g19
sg20
g9
sg21
g4667
sg22
Nsg23
g2
(g24
g4
Ntp4672
Rp4673
(dp4674
g28
F-37.95019999999994
sg29
g30
sg31
F145.11872200000005
sbsg32
g33
((lp4675
g229
atp4676
Rp4677
sg38
g9
sg39
I2012
sbsVAUS0000082
p4678
g2
(g3
g4
Ntp4679
Rp4680
(dp4681
g8
g9
sg10
F6.2
sg11
VBroadmeadows
p4682
sg13
Nsg14
g15
sg16
g17
sg18
g19
sg20
g9
sg21
g4678
sg22
Nsg23
g2
(g24
g4
Ntp4683
Rp4684
(dp4685
g28
F-37.68778599999996
sg29
g30
sg31
F144.9663190000001
sbsg32
g33
((lp4686
g229
atp4687
Rp4688
sg38
g9
sg39
I2012
sbsVAUS0000085
p4689
g2
(g3
g4
Ntp4690
Rp4691
(dp4692
g8
g9
sg10
F189.0
sg11
VEnergy Brix
p4693
sg13
Nsg14
g15
sg16
g17
sg18
g19
sg20
g9
sg21
g4689
sg22
Nsg23
g2
(g24
g4
Ntp4694
Rp4695
(dp4696
g28
F-38.25455999999997
sg29
g30
sg31
F146.41372200000012
sbsg32
g33
((lp4697
g72
atp4698
Rp4699
sg38
g9
sg39
I2012
sbsVAUS0000084
p4700
g2
(g3
g4
Ntp4701
Rp4702
(dp4703
g8
g9
sg10
F135.0
sg11
VEildon
p4704
sg13
Nsg14
g15
sg16
g17
sg18
g19
sg20
g9
sg21
g4700
sg22
Nsg23
g2
(g24
g4
Ntp4705
Rp4706
(dp4707
g28
F-37.22200499999997
sg29
g30
sg31
F145.92145200000004
sbsg32
g33
((lp4708
g60
atp4709
Rp4710
sg38
g9
sg39
I2012
sbsVAUS0000087
p4711
g2
(g3
g4
Ntp4712
Rp4713
(dp4714
g8
g9
sg10
F1600.0
sg11
VHazelwood
p4715
sg13
Nsg14
g15
sg16
g17
sg18
g19
sg20
g9
sg21
g4711
sg22
Nsg23
g2
(g24
g4
Ntp4716
Rp4717
(dp4718
g28
F-38.273102999999935
sg29
g30
sg31
F146.39226300000007
sbsg32
g33
((lp4719
g72
atp4720
Rp4721
sg38
g9
sg39
I2012
sbsVAUS0000086
p4722
g2
(g3
g4
Ntp4723
Rp4724
(dp4725
g8
g9
sg10
F3.8
sg11
VLake Glenmaggie
p4726
sg13
Nsg14
g15
sg16
g17
sg18
g19
sg20
g9
sg21
g4722
sg22
Nsg23
g2
(g24
g4
Ntp4727
Rp4728
(dp4729
g28
F-37.904744999999934
sg29
g30
sg31
F146.80108500000006
sbsg32
g33
((lp4730
g60
atp4731
Rp4732
sg38
g9
sg39
I2012
sbsVAUS0000449
p4733
g2
(g3
g4
Ntp4734
Rp4735
(dp4736
g8
g9
sg10
F82.0
sg11
VMerredin
p4737
sg13
Nsg14
g15
sg16
g17
sg18
g19
sg20
g9
sg21
g4733
sg22
Nsg23
g2
(g24
g4
Ntp4738
Rp4739
(dp4740
g28
F-31.542313845999956
sg29
g30
sg31
F118.22699785900011
sbsg32
g33
((lp4741
g35
atp4742
Rp4743
sg38
g9
sg39
NsbsVAUS0000448
p4744
g2
(g3
g4
Ntp4745
Rp4746
(dp4747
g8
g9
sg10
F8.55
sg11
VKing Island (Currie)
p4748
sg13
Nsg14
g15
sg16
g17
sg18
g19
sg20
g9
sg21
g4744
sg22
Nsg23
g2
(g24
g4
Ntp4749
Rp4750
(dp4751
g28
F-39.93878522399996
sg29
g30
sg31
F143.891964593
sbsg32
g33
((lp4752
g195
atp4753
Rp4754
sg38
g9
sg39
NsbsVAUS0000441
p4755
g2
(g3
g4
Ntp4756
Rp4757
(dp4758
g8
g9
sg10
F0.14
sg11
VStadium Australia
p4759
sg13
Nsg14
g15
sg16
g17
sg18
g19
sg20
g9
sg21
g4755
sg22
Nsg23
g2
(g24
g4
Ntp4760
Rp4761
(dp4762
g28
F-33.84517807299994
sg29
g30
sg31
F151.06403926100006
sbsg32
g33
((lp4763
g902
atp4764
Rp4765
sg38
g9
sg39
I2012
sbsVAUS0000440
p4766
g2
(g3
g4
Ntp4767
Rp4768
(dp4769
g8
g9
sg10
F0.16
sg11
VKogarah Town Square Solar Array
p4770
sg13
Nsg14
g15
sg16
g17
sg18
g19
sg20
g9
sg21
g4766
sg22
Nsg23
g2
(g24
g4
Ntp4771
Rp4772
(dp4773
g28
F-33.965174529999956
sg29
g30
sg31
F151.1331504310001
sbsg32
g33
((lp4774
g902
atp4775
Rp4776
sg38
g9
sg39
I2012
sbsVAUS0000443
p4777
g2
(g3
g4
Ntp4778
Rp4779
(dp4780
g8
g9
sg10
F1.0
sg11
VNarrogin Bioenergy Plant
p4781
sg13
Nsg14
g15
sg16
g17
sg18
g19
sg20
g9
sg21
g4777
sg22
Nsg23
g2
(g24
g4
Ntp4782
Rp4783
(dp4784
g28
F-32.95211794599993
sg29
g30
sg31
F117.19158099000003
sbsg32
g33
((lp4785
g285
atp4786
Rp4787
sg38
g9
sg39
I2013
sbsVAUS0000442
p4788
g2
(g3
g4
Ntp4789
Rp4790
(dp4791
g8
g9
sg10
F10.0
sg11
VMt Gambier
p4792
sg13
Nsg14
g15
sg16
g17
sg18
g19
sg20
g9
sg21
g4788
sg22
Nsg23
g2
(g24
g4
Ntp4793
Rp4794
(dp4795
g28
F-37.83884532999997
sg29
g30
sg31
F140.8056959710001
sbsg32
g33
((lp4796
g285
atp4797
Rp4798
sg38
g9
sg39
I2013
sbsVAUS0000445
p4799
g2
(g3
g4
Ntp4800
Rp4801
(dp4802
g8
g9
sg10
F325.0
sg11
VMica Creek
p4803
sg13
Nsg14
g15
sg16
g17
sg18
g19
sg20
g9
sg21
g4799
sg22
Nsg23
g2
(g24
g4
Ntp4804
Rp4805
(dp4806
g28
F-20.777726239999936
sg29
g30
sg31
F139.49046429100008
sbsg32
g33
((lp4807
g35
atp4808
Rp4809
sg38
g9
sg39
I2013
sbsVAUS0000444
p4810
g2
(g3
g4
Ntp4811
Rp4812
(dp4813
g8
g9
sg10
F2.0
sg11
VVisy Paper Gibson Island
p4814
sg13
Nsg14
g15
sg16
g17
sg18
g19
sg20
g9
sg21
g4810
sg22
Nsg23
g2
(g24
g4
Ntp4815
Rp4816
(dp4817
g28
F-27.44051322399997
sg29
g30
sg31
F153.11579455700007
sbsg32
g33
((lp4818
g285
atp4819
Rp4820
sg38
g9
sg39
NsbsVAUS0000447
p4821
g2
(g3
g4
Ntp4822
Rp4823
(dp4824
g8
g9
sg10
F1.5
sg11
VMildura Solar Farm
p4825
sg13
Nsg14
g15
sg16
g17
sg18
g19
sg20
g9
sg21
g4821
sg22
Nsg23
g2
(g24
g4
Ntp4826
Rp4827
(dp4828
g28
F-34.467089802999965
sg29
g30
sg31
F142.183286693
sbsg32
g33
((lp4829
g902
atp4830
Rp4831
sg38
g9
sg39
I2014
sbsVAUS0000446
p4832
g2
(g3
g4
Ntp4833
Rp4834
(dp4835
g8
g9
sg10
F145.0
sg11
VWilpena Solar Farm
p4836
sg13
Nsg14
g15
sg16
g17
sg18
g19
sg20
g9
sg21
g4832
sg22
Nsg23
g2
(g24
g4
Ntp4837
Rp4838
(dp4839
g28
F-31.523392487999956
sg29
g30
sg31
F138.6197569530001
sbsg32
g33
((lp4840
g902
atp4841
Rp4842
sg38
g9
sg39
I2014
sbsVAUS0000333
p4843
g2
(g3
g4
Ntp4844
Rp4845
(dp4846
g8
g9
sg10
F1.2
sg11
VMelbourne
p4847
sg13
Nsg14
g15
sg16
g17
sg18
g19
sg20
g9
sg21
g4843
sg22
Nsg23
g2
(g24
g4
Ntp4848
Rp4849
(dp4850
g28
F-37.808596002999934
sg29
g30
sg31
F144.96848012300006
sbsg32
g33
((lp4851
g35
atp4852
Rp4853
sg38
g9
sg39
I2012
sbsVAUS0000332
p4854
g2
(g3
g4
Ntp4855
Rp4856
(dp4857
g8
g9
sg10
F4.2
sg11
VKRC Cogeneration Plant
p4858
sg13
Nsg14
g15
sg16
g17
sg18
g19
sg20
g9
sg21
g4854
sg22
Nsg23
g2
(g24
g4
Ntp4859
Rp4860
(dp4861
g28
F-27.445266808999975
sg29
g30
sg31
F153.11846693600012
sbsg32
g33
((lp4862
g35
atp4863
Rp4864
sg38
g9
sg39
I2012
sbsVAUS0000331
p4865
g2
(g3
g4
Ntp4866
Rp4867
(dp4868
g8
g9
sg10
F1.1
sg11
VGosnells
p4869
sg13
Nsg14
g15
sg16
g17
sg18
g19
sg20
g9
sg21
g4865
sg22
Nsg23
g2
(g24
g4
Ntp4870
Rp4871
(dp4872
g28
F-32.022750963999954
sg29
g30
sg31
F116.01287154800002
sbsg32
g33
((lp4873
g229
atp4874
Rp4875
sg38
g9
sg39
I2012
sbsVAUS0000239
p4876
g2
(g3
g4
Ntp4877
Rp4878
(dp4879
g8
g9
sg10
F224.0
sg11
VQuarantine
p4880
sg13
Nsg14
g15
sg16
g17
sg18
g19
sg20
g9
sg21
g4876
sg22
Nsg23
g2
(g24
g4
Ntp4881
Rp4882
(dp4883
g28
F-34.77928399999996
sg29
g30
sg31
F138.52235200000007
sbsg32
g33
((lp4884
g35
atp4885
Rp4886
sg38
g9
sg39
I2012
sbsVAUS0000337
p4887
g2
(g3
g4
Ntp4888
Rp4889
(dp4890
g8
g9
sg10
F0.25
sg11
VSouth East Water Hallam Plant
p4891
sg13
Nsg14
g15
sg16
g17
sg18
g19
sg20
g9
sg21
g4887
sg22
Nsg23
g2
(g24
g4
Ntp4892
Rp4893
(dp4894
g28
F-38.02317811299997
sg29
g30
sg31
F145.2781215440001
sbsg32
g33
((lp4895
g60
atp4896
Rp4897
sg38
g9
sg39
I2012
sbsVAUS0000336
p4898
g2
(g3
g4
Ntp4899
Rp4900
(dp4901
g8
g9
sg10
F1.0
sg11
VCorio
p4902
sg13
Nsg14
g15
sg16
g17
sg18
g19
sg20
g9
sg21
g4898
sg22
Nsg23
g2
(g24
g4
Ntp4903
Rp4904
(dp4905
g28
F-38.05865887699997
sg29
g30
sg31
F144.405575687
sbsg32
g33
((lp4906
g229
atp4907
Rp4908
sg38
g9
sg39
I2012
sbsVAUS0000335
p4909
g2
(g3
g4
Ntp4910
Rp4911
(dp4912
g8
g9
sg10
F4.5
sg11
VEildon Small Hydro
p4913
sg13
Nsg14
g15
sg16
g17
sg18
g19
sg20
g9
sg21
g4909
sg22
Nsg23
g2
(g24
g4
Ntp4914
Rp4915
(dp4916
g28
F-37.24307176099995
sg29
g30
sg31
F145.89740990000007
sbsg32
g33
((lp4917
g60
atp4918
Rp4919
sg38
g9
sg39
I2012
sbsVAUS0000334
p4920
g2
(g3
g4
Ntp4921
Rp4922
(dp4923
g8
g9
sg10
F0.4
sg11
VCarlton
p4924
sg13
Nsg14
g15
sg16
g17
sg18
g19
sg20
g9
sg21
g4920
sg22
Nsg23
g2
(g24
g4
Ntp4925
Rp4926
(dp4927
g28
F-37.806118228999935
sg29
g30
sg31
F144.96065012300005
sbsg32
g33
((lp4928
g35
atp4929
Rp4930
sg38
g9
sg39
I2012
sbsVAUS0000232
p4931
g2
(g3
g4
Ntp4932
Rp4933
(dp4934
g8
g9
sg10
F50.0
sg11
VAngaston
p4935
sg13
Nsg14
g15
sg16
g17
sg18
g19
sg20
g9
sg21
g4931
sg22
Nsg23
g2
(g24
g4
Ntp4936
Rp4937
(dp4938
g28
F-34.50347999999997
sg29
g30
sg31
F139.024537
sbsg32
g33
((lp4939
g195
atp4940
Rp4941
sg38
g9
sg39
I2012
sbsVAUS0000233
p4942
g2
(g3
g4
Ntp4943
Rp4944
(dp4945
g8
g9
sg10
F156.0
sg11
VDry Creek
p4946
sg13
Nsg14
g15
sg16
g17
sg18
g19
sg20
g9
sg21
g4942
sg22
Nsg23
g2
(g24
g4
Ntp4947
Rp4948
(dp4949
g28
F-34.84746299999995
sg29
g30
sg31
F138.58175800000004
sbsg32
g33
((lp4950
g35
atp4951
Rp4952
sg38
g9
sg39
I2012
sbsVAUS0000339
p4953
g2
(g3
g4
Ntp4954
Rp4955
(dp4956
g8
g9
sg10
F0.9
sg11
VRoyston
p4957
sg13
Nsg14
g15
sg16
g17
sg18
g19
sg20
g9
sg21
g4953
sg22
Nsg23
g2
(g24
g4
Ntp4958
Rp4959
(dp4960
g28
F-37.373920675999955
sg29
g30
sg31
F145.86452681800006
sbsg32
g33
((lp4961
g60
atp4962
Rp4963
sg38
g9
sg39
I2012
sbsVAUS0000338
p4964
g2
(g3
g4
Ntp4965
Rp4966
(dp4967
g8
g9
sg10
F2.7
sg11
VLower Rubicon
p4968
sg13
Nsg14
g15
sg16
g17
sg18
g19
sg20
g9
sg21
g4964
sg22
Nsg23
g2
(g24
g4
Ntp4969
Rp4970
(dp4971
g28
F-37.30272459099996
sg29
g30
sg31
F145.84577523000007
sbsg32
g33
((lp4972
g60
atp4973
Rp4974
sg38
g9
sg39
I2012
sbsVAUS0000236
p4975
g2
(g3
g4
Ntp4976
Rp4977
(dp4978
g8
g9
sg10
F3.1
sg11
VPedler Creek
p4979
sg13
Nsg14
g15
sg16
g17
sg18
g19
sg20
g9
sg21
g4975
sg22
Nsg23
g2
(g24
g4
Ntp4980
Rp4981
(dp4982
g28
F-35.20232099999998
sg29
g30
sg31
F138.50209400000006
sbsg32
g33
((lp4983
g229
atp4984
Rp4985
sg38
g9
sg39
I2012
sbsVAUS0000237
p4986
g2
(g3
g4
Ntp4987
Rp4988
(dp4989
g8
g9
sg10
F478.0
sg11
VPelican Point
p4990
sg13
Nsg14
g15
sg16
g17
sg18
g19
sg20
g9
sg21
g4986
sg22
Nsg23
g2
(g24
g4
Ntp4991
Rp4992
(dp4993
g28
F-34.76497199999994
sg29
g30
sg31
F138.50532500000008
sbsg32
g33
((lp4994
g35
atp4995
Rp4996
sg38
g9
sg39
I2012
sbsVAUS0000234
p4997
g2
(g3
g4
Ntp4998
Rp4999
(dp5000
g8
g9
sg10
F20.7
sg11
VLonsdale
p5001
sg13
Nsg14
g15
sg16
g17
sg18
g19
sg20
g9
sg21
g4997
sg22
Nsg23
g2
(g24
g4
Ntp5002
Rp5003
(dp5004
g28
F-35.10966855399994
sg29
g30
sg31
F138.49100682100004
sbsg32
g33
((lp5005
g195
atp5006
Rp5007
sg38
g9
sg39
I2012
sbsVAUS0000235
p5008
g2
(g3
g4
Ntp5009
Rp5010
(dp5011
g8
g9
sg10
F180.0
sg11
VOsborne
p5012
sg13
Nsg14
g15
sg16
g17
sg18
g19
sg20
g9
sg21
g5008
sg22
Nsg23
g2
(g24
g4
Ntp5013
Rp5014
(dp5015
g28
F-34.79802099999995
sg29
g30
sg31
F138.5078840000001
sbsg32
g33
((lp5016
g35
atp5017
Rp5018
sg38
g9
sg39
I2012
sbsVAUS0000433
p5019
g2
(g3
g4
Ntp5020
Rp5021
(dp5022
g8
g9
sg10
F0.34
sg11
VTownsville RSL Stadium Solar Array
p5023
sg13
Nsg14
g15
sg16
g17
sg18
g19
sg20
g9
sg21
g5019
sg22
Nsg23
g2
(g24
g4
Ntp5024
Rp5025
(dp5026
g28
F-19.307861025999955
sg29
g30
sg31
F146.8010542510001
sbsg32
g33
((lp5027
g902
atp5028
Rp5029
sg38
g9
sg39
I2012
sbsVAUS0000351
p5030
g2
(g3
g4
Ntp5031
Rp5032
(dp5033
g8
g9
sg10
F2.24
sg11
VCoral Bay Diesel Backup
p5034
sg13
Nsg14
g15
sg16
g17
sg18
g19
sg20
g9
sg21
g5030
sg22
Nsg23
g2
(g24
g4
Ntp5035
Rp5036
(dp5037
g28
F-23.152144317999955
sg29
g30
sg31
F113.776179006
sbsg32
g33
((lp5038
g195
atp5039
Rp5040
sg38
g9
sg39
I2012
sbsVAUS0000350
p5041
g2
(g3
g4
Ntp5042
Rp5043
(dp5044
g8
g9
sg10
F0.83
sg11
VCoral Bay Wind Turbines
p5045
sg13
Nsg14
g15
sg16
g17
sg18
g19
sg20
g9
sg21
g5041
sg22
Nsg23
g2
(g24
g4
Ntp5046
Rp5047
(dp5048
g28
F-23.154419166999958
sg29
g30
sg31
F113.77206677900006
sbsg32
g33
((lp5049
g172
atp5050
Rp5051
sg38
g9
sg39
I2012
sbsVAUS0000383
p5052
g2
(g3
g4
Ntp5053
Rp5054
(dp5055
g8
g9
sg10
F0.4
sg11
VGascoyne Junction
p5056
sg13
Nsg14
g15
sg16
g17
sg18
g19
sg20
g9
sg21
g5052
sg22
Nsg23
g2
(g24
g4
Ntp5057
Rp5058
(dp5059
g28
F-25.05569375799996
sg29
g30
sg31
F115.20828921500004
sbsg32
g33
((lp5060
g195
atp5061
Rp5062
sg38
g9
sg39
I2012
sbsVAUS0000197
p5063
g2
(g3
g4
Ntp5064
Rp5065
(dp5066
g8
g9
sg10
F120.0
sg11
VKwinana Swift
p5067
sg13
Nsg14
g15
sg16
g17
sg18
g19
sg20
g9
sg21
g5063
sg22
Nsg23
g2
(g24
g4
Ntp5068
Rp5069
(dp5070
g28
F-32.22425832899995
sg29
g30
sg31
F115.7782769050001
sbsg32
g33
((lp5071
g35
atp5072
Rp5073
sg38
g9
sg39
I2012
sbsVAUS0000196
p5074
g2
(g3
g4
Ntp5075
Rp5076
(dp5077
g8
g9
sg10
F320.0
sg11
VKwinana (NewGen)
p5078
sg13
Nsg14
g15
sg16
g17
sg18
g19
sg20
g9
sg21
g5074
sg22
Nsg23
g2
(g24
g4
Ntp5079
Rp5080
(dp5081
g28
F-32.201979999999935
sg29
g30
sg31
F115.77282100000002
sbsg32
g33
((lp5082
g35
atp5083
Rp5084
sg38
g9
sg39
I2012
sbsVAUS0000195
p5085
g2
(g3
g4
Ntp5086
Rp5087
(dp5088
g8
g9
sg10
F200.0
sg11
VKwinana High Efficiency Gas Turbine Plant
p5089
sg13
Nsg14
g15
sg16
g17
sg18
g19
sg20
g9
sg21
g5085
sg22
Nsg23
g2
(g24
g4
Ntp5090
Rp5091
(dp5092
g28
F-32.197295434999944
sg29
g30
sg31
F115.77538637200007
sbsg32
g33
((lp5093
g35
atp5094
Rp5095
sg38
g9
sg39
I2012
sbsVAUS0000194
p5096
g2
(g3
g4
Ntp5097
Rp5098
(dp5099
g8
g9
sg10
F21.0
sg11
VKwinan
p5100
sg13
Nsg14
g15
sg16
g17
sg18
g19
sg20
g9
sg21
g5096
sg22
Nsg23
g2
(g24
g4
Ntp5101
Rp5102
(dp5103
g28
F-32.19700263699997
sg29
g30
sg31
F115.7759455040001
sbsg32
g33
((lp5104
g35
atp5105
Rp5106
sg38
g9
sg39
I2012
sbsVAUS0000193
p5107
g2
(g3
g4
Ntp5108
Rp5109
(dp5110
g8
g9
sg10
F123.0
sg11
VKwinana Cogeneration
p5111
sg13
Nsg14
g15
sg16
g17
sg18
g19
sg20
g9
sg21
g5107
sg22
Nsg23
g2
(g24
g4
Ntp5112
Rp5113
(dp5114
g28
F-32.222531999999944
sg29
g30
sg31
F115.76612100000011
sbsg32
g33
((lp5115
g35
atp5116
Rp5117
sg38
g9
sg39
I2012
sbsVAUS0000192
p5118
g2
(g3
g4
Ntp5119
Rp5120
(dp5121
g8
g9
sg10
F400.0
sg11
VKwinana C
p5122
sg13
Nsg14
g15
sg16
g17
sg18
g19
sg20
g9
sg21
g5118
sg22
Nsg23
g2
(g24
g4
Ntp5123
Rp5124
(dp5125
g28
F-32.19922939299994
sg29
g30
sg31
F115.77470218600001
sbsg32
g33
((lp5126
g72
atp5127
Rp5128
sg38
g9
sg39
I2012
sbsVAUS0000191
p5129
g2
(g3
g4
Ntp5130
Rp5131
(dp5132
g8
g9
sg10
F240.0
sg11
VKwinana A
p5133
sg13
Nsg14
g15
sg16
g17
sg18
g19
sg20
g9
sg21
g5129
sg22
Nsg23
g2
(g24
g4
Ntp5134
Rp5135
(dp5136
g28
F-32.19795289599995
sg29
g30
sg31
F115.7751616490001
sbsg32
g33
((lp5137
g72
atp5138
Rp5139
sg38
g9
sg39
I2012
sbsVAUS0000190
p5140
g2
(g3
g4
Ntp5141
Rp5142
(dp5143
g8
g9
sg10
F66.0
sg11
VKwinana (Alcoa Refinery)
p5144
sg13
Nsg14
g15
sg16
g17
sg18
g19
sg20
g9
sg21
g5140
sg22
Nsg23
g2
(g24
g4
Ntp5145
Rp5146
(dp5147
g28
F-32.19463499999995
sg29
g30
sg31
F115.77967600000011
sbsg32
g33
((lp5148
g35
atp5149
Rp5150
sg38
g9
sg39
I2012
sbsVAUS0000056
p5151
g2
(g3
g4
Ntp5152
Rp5153
(dp5154
g8
g9
sg10
F50.0
sg11
VInvicta Sugar Mill
p5155
sg13
Nsg14
g15
sg16
g17
sg18
g19
sg20
g9
sg21
g5151
sg22
Nsg23
g2
(g24
g4
Ntp5156
Rp5157
(dp5158
g28
F-19.516696999999965
sg29
g30
sg31
F147.10652600000003
sbsg32
g33
((lp5159
g285
atp5160
Rp5161
sg38
g9
sg39
I2012
sbsVAUS0000057
p5162
g2
(g3
g4
Ntp5163
Rp5164
(dp5165
g8
g9
sg10
F4.5
sg11
VWivenhoe
p5166
sg13
Nsg14
g15
sg16
g17
sg18
g19
sg20
g9
sg21
g5162
sg22
Nsg23
g2
(g24
g4
Ntp5167
Rp5168
(dp5169
g28
F-27.395211999999958
sg29
g30
sg31
F152.6091530000001
sbsg32
g33
((lp5170
g60
atp5171
Rp5172
sg38
g9
sg39
I2012
sbsVAUS0000054
p5173
g2
(g3
g4
Ntp5174
Rp5175
(dp5176
g8
g9
sg10
F45.6
sg11
VMoranbah North
p5177
sg13
Nsg14
g15
sg16
g17
sg18
g19
sg20
g9
sg21
g5173
sg22
Nsg23
g2
(g24
g4
Ntp5178
Rp5179
(dp5180
g28
F-21.896655255999974
sg29
g30
sg31
F147.95065540500002
sbsg32
g33
((lp5181
g35
atp5182
Rp5183
sg38
g9
sg39
I2012
sbsVAUS0000055
p5184
g2
(g3
g4
Ntp5185
Rp5186
(dp5187
g8
g9
sg10
F7.3
sg11
VKoombooloomba
p5188
sg13
Nsg14
g15
sg16
g17
sg18
g19
sg20
g9
sg21
g5184
sg22
Nsg23
g2
(g24
g4
Ntp5189
Rp5190
(dp5191
g28
F-17.831283999999982
sg29
g30
sg31
F145.60336200000006
sbsg32
g33
((lp5192
g60
atp5193
Rp5194
sg38
g9
sg39
I2012
sbsVAUS0000052
p5195
g2
(g3
g4
Ntp5196
Rp5197
(dp5198
g8
g9
sg10
F34.5
sg11
VStarfish Hill Wind Farm
p5199
sg13
Nsg14
g15
sg16
g17
sg18
g19
sg20
g9
sg21
g5195
sg22
Nsg23
g2
(g24
g4
Ntp5200
Rp5201
(dp5202
g28
F-35.56776499999995
sg29
g30
sg31
F138.1432380000001
sbsg32
g33
((lp5203
g172
atp5204
Rp5205
sg38
g9
sg39
I2012
sbsVAUS0000053
p5206
g2
(g3
g4
Ntp5207
Rp5208
(dp5209
g8
g9
sg10
F67.8
sg11
VPioneer Sugar Mill
p5210
sg13
Nsg14
g15
sg16
g17
sg18
g19
sg20
g9
sg21
g5206
sg22
Nsg23
g2
(g24
g4
Ntp5211
Rp5212
(dp5213
g28
F-19.55746499999998
sg29
g30
sg31
F147.33080100000006
sbsg32
g33
((lp5214
g285
atp5215
Rp5216
sg38
g9
sg39
I2012
sbsVAUS0000199
p5217
g2
(g3
g4
Ntp5218
Rp5219
(dp5220
g8
g9
sg10
F140.0
sg11
VNewman Iron Ore Mine
p5221
sg13
Nsg14
g15
sg16
g17
sg18
g19
sg20
g9
sg21
g5217
sg22
Nsg23
g2
(g24
g4
Ntp5222
Rp5223
(dp5224
g28
F-23.344274999999982
sg29
g30
sg31
F119.70858700000008
sbsg32
g33
((lp5225
g35
atp5226
Rp5227
sg38
g9
sg39
I2012
sbsVAUS0000198
p5228
g2
(g3
g4
Ntp5229
Rp5230
(dp5231
g8
g9
sg10
F330.0
sg11
VNeerabup
p5232
sg13
Nsg14
g15
sg16
g17
sg18
g19
sg20
g9
sg21
g5228
sg22
Nsg23
g2
(g24
g4
Ntp5233
Rp5234
(dp5235
g28
F-31.67124999999993
sg29
g30
sg31
F115.8021490000001
sbsg32
g33
((lp5236
g35
atp5237
Rp5238
sg38
g9
sg39
I2012
sbsVAUS0000359
p5239
g2
(g3
g4
Ntp5240
Rp5241
(dp5242
g8
g9
sg10
F3.3
sg11
VSouth Cardup (Shale Road Landfill)
p5243
sg13
Nsg14
g15
sg16
g17
sg18
g19
sg20
g9
sg21
g5239
sg22
Nsg23
g2
(g24
g4
Ntp5244
Rp5245
(dp5246
g28
F-32.266436158999966
sg29
g30
sg31
F116.01931443900003
sbsg32
g33
((lp5247
g229
atp5248
Rp5249
sg38
g9
sg39
I2012
sbsVAUS0000385
p5250
g2
(g3
g4
Ntp5251
Rp5252
(dp5253
g8
g9
sg10
F0.4
sg11
VYalgoo
p5254
sg13
Nsg14
g15
sg16
g17
sg18
g19
sg20
g9
sg21
g5250
sg22
Nsg23
g2
(g24
g4
Ntp5255
Rp5256
(dp5257
g28
F-28.337536633999946
sg29
g30
sg31
F116.68349161800006
sbsg32
g33
((lp5258
g195
atp5259
Rp5260
sg38
g9
sg39
I2012
sbsVAUS0000358
p5261
g2
(g3
g4
Ntp5262
Rp5263
(dp5264
g8
g9
sg10
F2.1
sg11
VRockingham
p5265
sg13
Nsg14
g15
sg16
g17
sg18
g19
sg20
g9
sg21
g5261
sg22
Nsg23
g2
(g24
g4
Ntp5266
Rp5267
(dp5268
g28
F-32.28632251299996
sg29
g30
sg31
F115.81538889600006
sbsg32
g33
((lp5269
g229
atp5270
Rp5271
sg38
g9
sg39
I2012
sbs.