(dp0
VIND0000212
p1
ccopy_reg
_reconstructor
p2
(cpowerwatch
PowerPlant
p3
c__builtin__
object
p4
Ntp5
Rp6
(dp7
S'coord_source'
p8
V
p9
sS'capacity'
p10
F101.0
sS'name'
p11
VKUTTALAM GT
p12
sS'gen_year'
p13
I2015
sS'source'
p14
VCentral Electricity Authority and REC Registry of India
p15
sS'url'
p16
Vhttp://www.cea.nic.in/,https://www.recregistryindia.nic.in/
p17
sS'country'
p18
VIndia
p19
sS'nat_lang'
p20
g9
sS'idnr'
p21
g1
sS'generation'
p22
F452.527
sS'location'
p23
g2
(cpowerwatch
LocationObject
p24
g4
Ntp25
Rp26
(dp27
S'latitude'
p28
F0.0
sS'description'
p29
S''
p30
sS'longitude'
p31
F0.0
sbsS'fuel'
p32
c__builtin__
set
p33
((lp34
VGas
p35
atp36
Rp37
sS'owner'
p38
g9
sS'cap_year'
p39
I2015
sbsVIND0000213
p40
g2
(g3
g4
Ntp41
Rp42
(dp43
g8
g9
sg10
F125.0
sg11
VKUTTIADI
p44
sg13
I2015
sg14
g15
sg16
g17
sg18
g19
sg20
g9
sg21
g40
sg22
F736.76765
sg23
g2
(g24
g4
Ntp45
Rp46
(dp47
g28
F0.0
sg29
g30
sg31
F0.0
sbsg32
g33
((lp48
VHydro
p49
atp50
Rp51
sg38
g9
sg39
I2015
sbsVIND0000210
p52
g2
(g3
g4
Ntp53
Rp54
(dp55
g8
g9
sg10
F290.0
sg11
VKUTCH LIG.
p56
sg13
I2015
sg14
g15
sg16
g17
sg18
g19
sg20
g9
sg21
g52
sg22
F1393.879
sg23
g2
(g24
g4
Ntp57
Rp58
(dp59
g28
F0.0
sg29
g30
sg31
F0.0
sbsg32
g33
((lp60
VCoal
p61
aVOil
p62
atp63
Rp64
sg38
g9
sg39
I2015
sbsVIND0000211
p65
g2
(g3
g4
Ntp66
Rp67
(dp68
g8
g9
sg10
F21.0
sg11
VKUTHUNGAL
p69
sg13
I2015
sg14
g15
sg16
g17
sg18
g19
sg20
g9
sg21
g65
sg22
F0.0
sg23
g2
(g24
g4
Ntp70
Rp71
(dp72
g28
F0.0
sg29
g30
sg31
F0.0
sbsg32
g33
((lp73
g49
atp74
Rp75
sg38
g9
sg39
I2015
sbsVIND0000216
p76
g2
(g3
g4
Ntp77
Rp78
(dp79
g8
g9
sg10
F157.2
sg11
VLAKWA GT
p80
sg13
I2015
sg14
g15
sg16
g17
sg18
g19
sg20
g9
sg21
g76
sg22
F855.342825
sg23
g2
(g24
g4
Ntp81
Rp82
(dp83
g28
F0.0
sg29
g30
sg31
F0.0
sbsg32
g33
((lp84
g62
ag35
atp85
Rp86
sg38
g9
sg39
I2015
sbsVIND0000217
p87
g2
(g3
g4
Ntp88
Rp89
(dp90
g8
g9
sg10
F126.0
sg11
VLARGI
p91
sg13
I2015
sg14
g15
sg16
g17
sg18
g19
sg20
g9
sg21
g87
sg22
F606.64155
sg23
g2
(g24
g4
Ntp92
Rp93
(dp94
g28
F0.0
sg29
g30
sg31
F0.0
sbsg32
g33
((lp95
g49
atp96
Rp97
sg38
g9
sg39
I2015
sbsVIND0000214
p98
g2
(g3
g4
Ntp99
Rp100
(dp101
g8
g9
sg10
F100.0
sg11
VKUTTIYADI Add ext
p102
sg13
I2015
sg14
g15
sg16
g17
sg18
g19
sg20
g9
sg21
g98
sg22
F0.0
sg23
g2
(g24
g4
Ntp103
Rp104
(dp105
g28
F0.0
sg29
g30
sg31
F0.0
sbsg32
g33
((lp106
g49
atp107
Rp108
sg38
g9
sg39
I2015
sbsVIND0000215
p109
g2
(g3
g4
Ntp110
Rp111
(dp112
g8
g9
sg10
F60.0
sg11
VKYREDEMKULAI
p113
sg13
I2015
sg14
g15
sg16
g17
sg18
g19
sg20
g9
sg21
g109
sg22
F112.5345
sg23
g2
(g24
g4
Ntp114
Rp115
(dp116
g28
F0.0
sg29
g30
sg31
F0.0
sbsg32
g33
((lp117
g49
atp118
Rp119
sg38
g9
sg39
I2015
sbsVIND0000218
p120
g2
(g3
g4
Ntp121
Rp122
(dp123
g8
g9
sg10
F36.0
sg11
VLEIMAKHONG DG
p124
sg13
I2015
sg14
g15
sg16
g17
sg18
g19
sg20
g9
sg21
g120
sg22
F0.0
sg23
g2
(g24
g4
Ntp125
Rp126
(dp127
g28
F0.0
sg29
g30
sg31
F0.0
sbsg32
g33
((lp128
g62
atp129
Rp130
sg38
g9
sg39
I2015
sbsVIND0000219
p131
g2
(g3
g4
Ntp132
Rp133
(dp134
g8
g9
sg10
F55.0
sg11
VLIGANAMAKKI
p135
sg13
I2015
sg14
g15
sg16
g17
sg18
g19
sg20
g9
sg21
g131
sg22
F254.98864999999998
sg23
g2
(g24
g4
Ntp136
Rp137
(dp138
g28
F0.0
sg29
g30
sg31
F0.0
sbsg32
g33
((lp139
g49
atp140
Rp141
sg38
g9
sg39
I2015
sbsVIND0000328
p142
g2
(g3
g4
Ntp143
Rp144
(dp145
g8
g9
sg10
F1371.2
sg11
VPRAGATI CCCP -III
p146
sg13
I2015
sg14
g15
sg16
g17
sg18
g19
sg20
g9
sg21
g142
sg22
F2156.08
sg23
g2
(g24
g4
Ntp147
Rp148
(dp149
g28
F0.0
sg29
g30
sg31
F0.0
sbsg32
g33
((lp150
g35
atp151
Rp152
sg38
g9
sg39
I2015
sbsVIND0000049
p153
g2
(g3
g4
Ntp154
Rp155
(dp156
g8
g9
sg10
F30.0
sg11
VBHAWANI KATTALAI -III
p157
sg13
I2015
sg14
g15
sg16
g17
sg18
g19
sg20
g9
sg21
g153
sg22
F0.0
sg23
g2
(g24
g4
Ntp158
Rp159
(dp160
g28
F0.0
sg29
g30
sg31
F0.0
sbsg32
g33
((lp161
g49
atp162
Rp163
sg38
g9
sg39
I2015
sbsVIND0000048
p164
g2
(g3
g4
Ntp165
Rp166
(dp167
g8
g9
sg10
F30.0
sg11
VBHAWANI KATTALAI -II
p168
sg13
I2015
sg14
g15
sg16
g17
sg18
g19
sg20
g9
sg21
g164
sg22
F136.8722
sg23
g2
(g24
g4
Ntp169
Rp170
(dp171
g28
F0.0
sg29
g30
sg31
F0.0
sbsg32
g33
((lp172
g49
atp173
Rp174
sg38
g9
sg39
I2015
sbsVIND0000047
p175
g2
(g3
g4
Ntp176
Rp177
(dp178
g8
g9
sg10
F30.0
sg11
VBHAWANI KATTALAI BARRAGE
p179
sg13
I2015
sg14
g15
sg16
g17
sg18
g19
sg20
g9
sg21
g175
sg22
F67.5605
sg23
g2
(g24
g4
Ntp180
Rp181
(dp182
g28
F0.0
sg29
g30
sg31
F0.0
sbsg32
g33
((lp183
g49
atp184
Rp185
sg38
g9
sg39
I2015
sbsVIND0000046
p186
g2
(g3
g4
Ntp187
Rp188
(dp189
g8
g9
sg10
F15.0
sg11
VBHATSA
p190
sg13
I2015
sg14
g15
sg16
g17
sg18
g19
sg20
g9
sg21
g186
sg22
F0.0
sg23
g2
(g24
g4
Ntp191
Rp192
(dp193
g28
F0.0
sg29
g30
sg31
F0.0
sbsg32
g33
((lp194
g49
atp195
Rp196
sg38
g9
sg39
I2015
sbsVIND0000045
p197
g2
(g3
g4
Ntp198
Rp199
(dp200
g8
g9
sg10
F16.0
sg11
VBHATGARH
p201
sg13
I2015
sg14
g15
sg16
g17
sg18
g19
sg20
g9
sg21
g197
sg22
F0.0
sg23
g2
(g24
g4
Ntp202
Rp203
(dp204
g28
F0.0
sg29
g30
sg31
F0.0
sbsg32
g33
((lp205
g49
atp206
Rp207
sg38
g9
sg39
I2015
sbsVIND0000044
p208
g2
(g3
g4
Ntp209
Rp210
(dp211
g8
g9
sg10
F34.0
sg11
VBHANDARDHARA
p212
sg13
I2015
sg14
g15
sg16
g17
sg18
g19
sg20
g9
sg21
g208
sg22
F65.07300000000001
sg23
g2
(g24
g4
Ntp213
Rp214
(dp215
g28
F0.0
sg29
g30
sg31
F0.0
sbsg32
g33
((lp216
g49
atp217
Rp218
sg38
g9
sg39
I2015
sbsVIND0000043
p219
g2
(g3
g4
Ntp220
Rp221
(dp222
g8
g9
sg10
F1325.0
sg11
VBHAKRA
p223
sg13
I2015
sg14
g15
sg16
g17
sg18
g19
sg20
g9
sg21
g219
sg22
F5241.809249999999
sg23
g2
(g24
g4
Ntp224
Rp225
(dp226
g28
F0.0
sg29
g30
sg31
F0.0
sbsg32
g33
((lp227
g49
atp228
Rp229
sg38
g9
sg39
I2015
sbsVIND0000042
p230
g2
(g3
g4
Ntp231
Rp232
(dp233
g8
g9
sg10
F39.2
sg11
VBHADRA
p234
sg13
I2015
sg14
g15
sg16
g17
sg18
g19
sg20
g9
sg21
g230
sg22
F50.337050000000005
sg23
g2
(g24
g4
Ntp235
Rp236
(dp237
g28
F0.0
sg29
g30
sg31
F0.0
sbsg32
g33
((lp238
g49
atp239
Rp240
sg38
g9
sg39
I2015
sbsVIND0000041
p241
g2
(g3
g4
Ntp242
Rp243
(dp244
g8
g9
sg10
F1000.0
sg11
VBELLARY TPS
p245
sg13
I2015
sg14
g15
sg16
g17
sg18
g19
sg20
g9
sg21
g241
sg22
F5445.763
sg23
g2
(g24
g4
Ntp246
Rp247
(dp248
g28
F0.0
sg29
g30
sg31
F0.0
sbsg32
g33
((lp249
g61
ag62
atp250
Rp251
sg38
g9
sg39
I2015
sbsVIND0000040
p252
g2
(g3
g4
Ntp253
Rp254
(dp255
g8
g9
sg10
F25.2
sg11
VBELLARY DG
p256
sg13
I2015
sg14
g15
sg16
g17
sg18
g19
sg20
g9
sg21
g252
sg22
F0.0
sg23
g2
(g24
g4
Ntp257
Rp258
(dp259
g28
F0.0
sg29
g30
sg31
F0.0
sbsg32
g33
((lp260
g62
atp261
Rp262
sg38
g9
sg39
I2015
sbsVIND0000289
p263
g2
(g3
g4
Ntp264
Rp265
(dp266
g8
g9
sg10
F5.0
sg11
VNIRGAJANI(Ganga Canal)
p267
sg13
I2015
sg14
g15
sg16
g17
sg18
g19
sg20
g9
sg21
g263
sg22
F0.0
sg23
g2
(g24
g4
Ntp268
Rp269
(dp270
g28
F0.0
sg29
g30
sg31
F0.0
sbsg32
g33
((lp271
g49
atp272
Rp273
sg38
g9
sg39
I2015
sbsVIND0000288
p274
g2
(g3
g4
Ntp275
Rp276
(dp277
g8
g9
sg10
F45.0
sg11
VNIMOO BAZGO
p278
sg13
I2015
sg14
g15
sg16
g17
sg18
g19
sg20
g9
sg21
g274
sg22
F75.17224999999999
sg23
g2
(g24
g4
Ntp279
Rp280
(dp281
g28
F0.0
sg29
g30
sg31
F0.0
sbsg32
g33
((lp282
g49
atp283
Rp284
sg38
g9
sg39
I2015
sbsVIND0000324
p285
g2
(g3
g4
Ntp286
Rp287
(dp288
g8
g9
sg10
F27.0
sg11
VPOCHAMPAD
p289
sg13
I2015
sg14
g15
sg16
g17
sg18
g19
sg20
g9
sg21
g285
sg22
F12.80565
sg23
g2
(g24
g4
Ntp290
Rp291
(dp292
g28
F0.0
sg29
g30
sg31
F0.0
sbsg32
g33
((lp293
g49
atp294
Rp295
sg38
g9
sg39
I2015
sbsVIND0000325
p296
g2
(g3
g4
Ntp297
Rp298
(dp299
g8
g9
sg10
F396.0
sg11
VPONG
p300
sg13
I2015
sg14
g15
sg16
g17
sg18
g19
sg20
g9
sg21
g296
sg22
F1320.7232
sg23
g2
(g24
g4
Ntp301
Rp302
(dp303
g28
F0.0
sg29
g30
sg31
F0.0
sbsg32
g33
((lp304
g49
atp305
Rp306
sg38
g9
sg39
I2015
sbsVIND0000322
p307
g2
(g3
g4
Ntp308
Rp309
(dp310
g8
g9
sg10
F140.0
sg11
VPERIYAR
p311
sg13
I2015
sg14
g15
sg16
g17
sg18
g19
sg20
g9
sg21
g307
sg22
F524.9222
sg23
g2
(g24
g4
Ntp312
Rp313
(dp314
g28
F0.0
sg29
g30
sg31
F0.0
sbsg32
g33
((lp315
g49
atp316
Rp317
sg38
g9
sg39
I2015
sbsVIND0000323
p318
g2
(g3
g4
Ntp319
Rp320
(dp321
g8
g9
sg10
F702.0
sg11
VPIPAVAV CCCP
p322
sg13
I2015
sg14
g15
sg16
g17
sg18
g19
sg20
g9
sg21
g318
sg22
F2.20585
sg23
g2
(g24
g4
Ntp323
Rp324
(dp325
g28
F0.0
sg29
g30
sg31
F0.0
sbsg32
g33
((lp326
g62
ag35
atp327
Rp328
sg38
g9
sg39
I2015
sbsVIND0000320
p329
g2
(g3
g4
Ntp330
Rp331
(dp332
g8
g9
sg10
F160.0
sg11
VPENCH
p333
sg13
I2015
sg14
g15
sg16
g17
sg18
g19
sg20
g9
sg21
g329
sg22
F388.17935
sg23
g2
(g24
g4
Ntp334
Rp335
(dp336
g28
F0.0
sg29
g30
sg31
F0.0
sbsg32
g33
((lp337
g49
atp338
Rp339
sg38
g9
sg39
I2015
sbsVIND0000321
p340
g2
(g3
g4
Ntp341
Rp342
(dp343
g8
g9
sg10
F20.0
sg11
VPENNA AHOBELAM
p344
sg13
I2015
sg14
g15
sg16
g17
sg18
g19
sg20
g9
sg21
g340
sg22
F0.0
sg23
g2
(g24
g4
Ntp345
Rp346
(dp347
g28
F0.0
sg29
g30
sg31
F0.0
sbsg32
g33
((lp348
g49
atp349
Rp350
sg38
g9
sg39
I2015
sbsVIND0000281
p351
g2
(g3
g4
Ntp352
Rp353
(dp354
g8
g9
sg10
F160.0
sg11
VNEWCOSSIPORE
p355
sg13
I2015
sg14
g15
sg16
g17
sg18
g19
sg20
g9
sg21
g351
sg22
F54.0
sg23
g2
(g24
g4
Ntp356
Rp357
(dp358
g28
F0.0
sg29
g30
sg31
F0.0
sbsg32
g33
((lp359
g61
atp360
Rp361
sg38
g9
sg39
I2015
sbsVIND0000280
p362
g2
(g3
g4
Ntp363
Rp364
(dp365
g8
g9
sg10
F0.0
sg11
VNELLORE
p366
sg13
I2015
sg14
g15
sg16
g17
sg18
g19
sg20
g9
sg21
g362
sg22
F0.0
sg23
g2
(g24
g4
Ntp367
Rp368
(dp369
g28
F0.0
sg29
g30
sg31
F0.0
sbsg32
g33
((lp370
g61
ag62
atp371
Rp372
sg38
g9
sg39
I2015
sbsVIND0000283
p373
g2
(g3
g4
Ntp374
Rp375
(dp376
g8
g9
sg10
F600.0
sg11
VNEYVELI ST I
p377
sg13
I2015
sg14
g15
sg16
g17
sg18
g19
sg20
g9
sg21
g373
sg22
F3193.101
sg23
g2
(g24
g4
Ntp378
Rp379
(dp380
g28
F0.0
sg29
g30
sg31
F0.0
sbsg32
g33
((lp381
g61
ag62
atp382
Rp383
sg38
g9
sg39
I2015
sbsVIND0000282
p384
g2
(g3
g4
Ntp385
Rp386
(dp387
g8
g9
sg10
F420.0
sg11
VNEYVELI FST EXT
p388
sg13
I2015
sg14
g15
sg16
g17
sg18
g19
sg20
g9
sg21
g384
sg22
F3107.282
sg23
g2
(g24
g4
Ntp389
Rp390
(dp391
g28
F0.0
sg29
g30
sg31
F0.0
sbsg32
g33
((lp392
g61
ag62
atp393
Rp394
sg38
g9
sg39
I2015
sbsVIND0000285
p395
g2
(g3
g4
Ntp396
Rp397
(dp398
g8
g9
sg10
F500.0
sg11
VNEYVELI TPS EXP -II
p399
sg13
I2015
sg14
g15
sg16
g17
sg18
g19
sg20
g9
sg21
g395
sg22
F125.38
sg23
g2
(g24
g4
Ntp400
Rp401
(dp402
g28
F0.0
sg29
g30
sg31
F0.0
sbsg32
g33
((lp403
g61
ag62
atp404
Rp405
sg38
g9
sg39
I2015
sbsVIND0000284
p406
g2
(g3
g4
Ntp407
Rp408
(dp409
g8
g9
sg10
F1470.0
sg11
VNEYVELI ST II
p410
sg13
I2015
sg14
g15
sg16
g17
sg18
g19
sg20
g9
sg21
g406
sg22
F10063.18
sg23
g2
(g24
g4
Ntp411
Rp412
(dp413
g28
F0.0
sg29
g30
sg31
F0.0
sbsg32
g33
((lp414
g61
ag62
atp415
Rp416
sg38
g9
sg39
I2015
sbsVIND0000287
p417
g2
(g3
g4
Ntp418
Rp419
(dp420
g8
g9
sg10
F1320.0
sg11
VNIGRI
p421
sg13
I2015
sg14
g15
sg16
g17
sg18
g19
sg20
g9
sg21
g417
sg22
F1643.8983
sg23
g2
(g24
g4
Ntp422
Rp423
(dp424
g28
F0.0
sg29
g30
sg31
F0.0
sbsg32
g33
((lp425
g61
ag62
atp426
Rp427
sg38
g9
sg39
I2015
sbsVIND0000329
p428
g2
(g3
g4
Ntp429
Rp430
(dp431
g8
g9
sg10
F330.0
sg11
VPRAGATI CCGT
p432
sg13
I2015
sg14
g15
sg16
g17
sg18
g19
sg20
g9
sg21
g428
sg22
F1799.976
sg23
g2
(g24
g4
Ntp433
Rp434
(dp435
g28
F0.0
sg29
g30
sg31
F0.0
sbsg32
g33
((lp436
g35
atp437
Rp438
sg38
g9
sg39
I2015
sbsVIND0000368
p439
g2
(g3
g4
Ntp440
Rp441
(dp442
g8
g9
sg10
F300.0
sg11
VSABARIGIRI
p443
sg13
I2015
sg14
g15
sg16
g17
sg18
g19
sg20
g9
sg21
g439
sg22
F1218.60635
sg23
g2
(g24
g4
Ntp444
Rp445
(dp446
g28
F0.0
sg29
g30
sg31
F0.0
sbsg32
g33
((lp447
g49
atp448
Rp449
sg38
g9
sg39
I2015
sbsVIND0000133
p450
g2
(g3
g4
Ntp451
Rp452
(dp453
g8
g9
sg10
F156.1
sg11
VHAZIRA CCCP
p454
sg13
I2015
sg14
g15
sg16
g17
sg18
g19
sg20
g9
sg21
g450
sg22
F206.547
sg23
g2
(g24
g4
Ntp455
Rp456
(dp457
g28
F0.0
sg29
g30
sg31
F0.0
sbsg32
g33
((lp458
g35
atp459
Rp460
sg38
g9
sg39
I2015
sbsVIND0000132
p461
g2
(g3
g4
Ntp462
Rp463
(dp464
g8
g9
sg10
F120.0
sg11
VHASDEOBANGO
p465
sg13
I2015
sg14
g15
sg16
g17
sg18
g19
sg20
g9
sg21
g461
sg22
F256.8891
sg23
g2
(g24
g4
Ntp466
Rp467
(dp468
g28
F0.0
sg29
g30
sg31
F0.0
sbsg32
g33
((lp469
g49
atp470
Rp471
sg38
g9
sg39
I2015
sbsVIND0000038
p472
g2
(g3
g4
Ntp473
Rp474
(dp475
g8
g9
sg10
F60.0
sg11
VBASSI
p476
sg13
I2015
sg14
g15
sg16
g17
sg18
g19
sg20
g9
sg21
g472
sg22
F293.53495
sg23
g2
(g24
g4
Ntp477
Rp478
(dp479
g28
F0.0
sg29
g30
sg31
F0.0
sbsg32
g33
((lp480
g49
atp481
Rp482
sg38
g9
sg39
I2015
sbsVIND0000130
p483
g2
(g3
g4
Ntp484
Rp485
(dp486
g8
g9
sg10
F600.0
sg11
VHALDIA
p487
sg13
I2015
sg14
g15
sg16
g17
sg18
g19
sg20
g9
sg21
g483
sg22
F337.232
sg23
g2
(g24
g4
Ntp488
Rp489
(dp490
g28
F0.0
sg29
g30
sg31
F0.0
sbsg32
g33
((lp491
g61
ag62
atp492
Rp493
sg38
g9
sg39
I2015
sbsVIND0000137
p494
g2
(g3
g4
Ntp495
Rp496
(dp497
g8
g9
sg10
F270.0
sg11
VI.P.GT
p498
sg13
I2015
sg14
g15
sg16
g17
sg18
g19
sg20
g9
sg21
g494
sg22
F904.388
sg23
g2
(g24
g4
Ntp499
Rp500
(dp501
g28
F0.0
sg29
g30
sg31
F0.0
sbsg32
g33
((lp502
g62
ag35
atp503
Rp504
sg38
g9
sg39
I2015
sbsVIND0000136
p505
g2
(g3
g4
Ntp506
Rp507
(dp508
g8
g9
sg10
F420.0
sg11
VI.B.VALLEY
p509
sg13
I2015
sg14
g15
sg16
g17
sg18
g19
sg20
g9
sg21
g505
sg22
F2498.546
sg23
g2
(g24
g4
Ntp510
Rp511
(dp512
g28
F0.0
sg29
g30
sg31
F0.0
sbsg32
g33
((lp513
g61
ag62
atp514
Rp515
sg38
g9
sg39
I2015
sbsVIND0000135
p516
g2
(g3
g4
Ntp517
Rp518
(dp519
g8
g9
sg10
F331.5
sg11
VHIRAKUD I&II
p520
sg13
I2015
sg14
g15
sg16
g17
sg18
g19
sg20
g9
sg21
g516
sg22
F882.6645
sg23
g2
(g24
g4
Ntp521
Rp522
(dp523
g28
F0.0
sg29
g30
sg31
F0.0
sbsg32
g33
((lp524
g49
atp525
Rp526
sg38
g9
sg39
I2015
sbsVIND0000134
p527
g2
(g3
g4
Ntp528
Rp529
(dp530
g8
g9
sg10
F351.0
sg11
VHAZIRA-GSECL
p531
sg13
I2015
sg14
g15
sg16
g17
sg18
g19
sg20
g9
sg21
g527
sg22
F0.0
sg23
g2
(g24
g4
Ntp532
Rp533
(dp534
g28
F0.0
sg29
g30
sg31
F0.0
sbsg32
g33
((lp535
g35
atp536
Rp537
sg38
g9
sg39
I2015
sbsVIND0000032
p538
g2
(g3
g4
Ntp539
Rp540
(dp541
g8
g9
sg10
F90.0
sg11
VBARGI
p542
sg13
I2015
sg14
g15
sg16
g17
sg18
g19
sg20
g9
sg21
g538
sg22
F495.9677
sg23
g2
(g24
g4
Ntp543
Rp544
(dp545
g28
F0.0
sg29
g30
sg31
F0.0
sbsg32
g33
((lp546
g49
atp547
Rp548
sg38
g9
sg39
I2015
sbsVIND0000033
p549
g2
(g3
g4
Ntp550
Rp551
(dp552
g8
g9
sg10
F1320.0
sg11
VBARH STPP II
p553
sg13
I2015
sg14
g15
sg16
g17
sg18
g19
sg20
g9
sg21
g549
sg22
F1221.0
sg23
g2
(g24
g4
Ntp554
Rp555
(dp556
g28
F0.0
sg29
g30
sg31
F0.0
sbsg32
g33
((lp557
g61
ag62
atp558
Rp559
sg38
g9
sg39
I2015
sbsVIND0000139
p560
g2
(g3
g4
Ntp561
Rp562
(dp563
g8
g9
sg10
F75.0
sg11
VIDAMALAYAR
p564
sg13
I2015
sg14
g15
sg16
g17
sg18
g19
sg20
g9
sg21
g560
sg22
F370.79670000000004
sg23
g2
(g24
g4
Ntp565
Rp566
(dp567
g28
F0.0
sg29
g30
sg31
F0.0
sbsg32
g33
((lp568
g49
atp569
Rp570
sg38
g9
sg39
I2015
sbsVIND0000138
p571
g2
(g3
g4
Ntp572
Rp573
(dp574
g8
g9
sg10
F0.0
sg11
VI.P.STATION
p575
sg13
I2015
sg14
g15
sg16
g17
sg18
g19
sg20
g9
sg21
g571
sg22
F0.0
sg23
g2
(g24
g4
Ntp576
Rp577
(dp578
g28
F0.0
sg29
g30
sg31
F0.0
sbsg32
g33
((lp579
g61
ag62
atp580
Rp581
sg38
g9
sg39
I2015
sbsVIND0000036
p582
g2
(g3
g4
Ntp583
Rp584
(dp585
g8
g9
sg10
F120.0
sg11
VBASIN BRIDGE GT
p586
sg13
I2015
sg14
g15
sg16
g17
sg18
g19
sg20
g9
sg21
g582
sg22
F2.85387
sg23
g2
(g24
g4
Ntp587
Rp588
(dp589
g28
F0.0
sg29
g30
sg31
F0.0
sbsg32
g33
((lp590
g62
ag35
atp591
Rp592
sg38
g9
sg39
I2015
sbsVIND0000037
p593
g2
(g3
g4
Ntp594
Rp595
(dp596
g8
g9
sg10
F300.0
sg11
VBASPA
p597
sg13
I2015
sg14
g15
sg16
g17
sg18
g19
sg20
g9
sg21
g593
sg22
F1246.3171
sg23
g2
(g24
g4
Ntp598
Rp599
(dp600
g28
F0.0
sg29
g30
sg31
F0.0
sbsg32
g33
((lp601
g49
atp602
Rp603
sg38
g9
sg39
I2015
sbsVIND0000034
p604
g2
(g3
g4
Ntp605
Rp606
(dp607
g8
g9
sg10
F90.0
sg11
VBARKHERA TPP
p608
sg13
I2015
sg14
g15
sg16
g17
sg18
g19
sg20
g9
sg21
g604
sg22
F505.76
sg23
g2
(g24
g4
Ntp609
Rp610
(dp611
g28
F0.0
sg29
g30
sg31
F0.0
sbsg32
g33
((lp612
g61
ag62
atp613
Rp614
sg38
g9
sg39
I2015
sbsVIND0000035
p615
g2
(g3
g4
Ntp616
Rp617
(dp618
g8
g9
sg10
F250.0
sg11
VBARSINGAR LIGNITE
p619
sg13
I2015
sg14
g15
sg16
g17
sg18
g19
sg20
g9
sg21
g615
sg22
F1255.732
sg23
g2
(g24
g4
Ntp620
Rp621
(dp622
g28
F0.0
sg29
g30
sg31
F0.0
sbsg32
g33
((lp623
g61
ag62
atp624
Rp625
sg38
g9
sg39
I2015
sbsVIND0000429
p626
g2
(g3
g4
Ntp627
Rp628
(dp629
g8
g9
sg10
F132.0
sg11
VTEESTA LOW DAM-III
p630
sg13
I2015
sg14
g15
sg16
g17
sg18
g19
sg20
g9
sg21
g626
sg22
F392.21905
sg23
g2
(g24
g4
Ntp631
Rp632
(dp633
g28
F0.0
sg29
g30
sg31
F0.0
sbsg32
g33
((lp634
g49
atp635
Rp636
sg38
g9
sg39
I2015
sbsVIND0000428
p637
g2
(g3
g4
Ntp638
Rp639
(dp640
g8
g9
sg10
F67.5
sg11
VTEESTA  I-III
p641
sg13
I2015
sg14
g15
sg16
g17
sg18
g19
sg20
g9
sg21
g637
sg22
F142.53772999999998
sg23
g2
(g24
g4
Ntp642
Rp643
(dp644
g28
F0.0
sg29
g30
sg31
F0.0
sbsg32
g33
((lp645
g49
atp646
Rp647
sg38
g9
sg39
I2015
sbsVIND0000425
p648
g2
(g3
g4
Ntp649
Rp650
(dp651
g8
g9
sg10
F220.0
sg11
VTANIR BAVI
p652
sg13
I2015
sg14
g15
sg16
g17
sg18
g19
sg20
g9
sg21
g648
sg22
F0.0
sg23
g2
(g24
g4
Ntp653
Rp654
(dp655
g28
F0.0
sg29
g30
sg31
F0.0
sbsg32
g33
((lp656
g35
atp657
Rp658
sg38
g9
sg39
I2015
sbsVIND0000424
p659
g2
(g3
g4
Ntp660
Rp661
(dp662
g8
g9
sg10
F440.0
sg11
VTANDA
p663
sg13
I2015
sg14
g15
sg16
g17
sg18
g19
sg20
g9
sg21
g659
sg22
F2790.0
sg23
g2
(g24
g4
Ntp664
Rp665
(dp666
g28
F0.0
sg29
g30
sg31
F0.0
sbsg32
g33
((lp667
g61
ag62
atp668
Rp669
sg38
g9
sg39
I2015
sbsVIND0000427
p670
g2
(g3
g4
Ntp671
Rp672
(dp673
g8
g9
sg10
F13.5
sg11
VTAWA
p674
sg13
I2015
sg14
g15
sg16
g17
sg18
g19
sg20
g9
sg21
g670
sg22
F0.0
sg23
g2
(g24
g4
Ntp675
Rp676
(dp677
g28
F0.0
sg29
g30
sg31
F0.0
sbsg32
g33
((lp678
g49
atp679
Rp680
sg38
g9
sg39
I2015
sbsVIND0000426
p681
g2
(g3
g4
Ntp682
Rp683
(dp684
g8
g9
sg10
F1400.0
sg11
VTARAPUR
p685
sg13
I2015
sg14
g15
sg16
g17
sg18
g19
sg20
g9
sg21
g681
sg22
F9335.0
sg23
g2
(g24
g4
Ntp686
Rp687
(dp688
g28
F0.0
sg29
g30
sg31
F0.0
sbsg32
g33
((lp689
VNuclear
p690
atp691
Rp692
sg38
g9
sg39
I2015
sbsVIND0000421
p693
g2
(g3
g4
Ntp694
Rp695
(dp696
g8
g9
sg10
F660.0
sg11
VTALWANDI SABO
p697
sg13
I2015
sg14
g15
sg16
g17
sg18
g19
sg20
g9
sg21
g693
sg22
F1423.7245
sg23
g2
(g24
g4
Ntp698
Rp699
(dp700
g28
F0.0
sg29
g30
sg31
F0.0
sbsg32
g33
((lp701
g61
ag62
atp702
Rp703
sg38
g9
sg39
I2015
sbsVIND0000420
p704
g2
(g3
g4
Ntp705
Rp706
(dp707
g8
g9
sg10
F3000.0
sg11
VTALCHER STPS
p708
sg13
I2015
sg14
g15
sg16
g17
sg18
g19
sg20
g9
sg21
g704
sg22
F22215.0
sg23
g2
(g24
g4
Ntp709
Rp710
(dp711
g28
F0.0
sg29
g30
sg31
F0.0
sbsg32
g33
((lp712
g61
ag62
atp713
Rp714
sg38
g9
sg39
I2015
sbsVIND0000423
p715
g2
(g3
g4
Ntp716
Rp717
(dp718
g8
g9
sg10
F94.2
sg11
VTANAKPUR
p719
sg13
I2015
sg14
g15
sg16
g17
sg18
g19
sg20
g9
sg21
g715
sg22
F444.47645
sg23
g2
(g24
g4
Ntp720
Rp721
(dp722
g28
F0.0
sg29
g30
sg31
F0.0
sbsg32
g33
((lp723
g49
atp724
Rp725
sg38
g9
sg39
I2015
sbsVIND0000422
p726
g2
(g3
g4
Ntp727
Rp728
(dp729
g8
g9
sg10
F2400.0
sg11
VTAMNAR TPP
p730
sg13
I2015
sg14
g15
sg16
g17
sg18
g19
sg20
g9
sg21
g726
sg22
F2321.6
sg23
g2
(g24
g4
Ntp731
Rp732
(dp733
g28
F0.0
sg29
g30
sg31
F0.0
sbsg32
g33
((lp734
g61
ag62
atp735
Rp736
sg38
g9
sg39
I2015
sbsVIND0000286
p737
g2
(g3
g4
Ntp738
Rp739
(dp740
g8
g9
sg10
F250.0
sg11
VNEYVELI TPS(Z)
p741
sg13
I2015
sg14
g15
sg16
g17
sg18
g19
sg20
g9
sg21
g737
sg22
F1680.976
sg23
g2
(g24
g4
Ntp742
Rp743
(dp744
g28
F0.0
sg29
g30
sg31
F0.0
sbsg32
g33
((lp745
g61
ag62
atp746
Rp747
sg38
g9
sg39
I2015
sbsVIND0000382
p748
g2
(g3
g4
Ntp749
Rp750
(dp751
g8
g9
sg10
F20.0
sg11
VSERVALAR
p752
sg13
I2015
sg14
g15
sg16
g17
sg18
g19
sg20
g9
sg21
g748
sg22
F0.0
sg23
g2
(g24
g4
Ntp753
Rp754
(dp755
g28
F0.0
sg29
g30
sg31
F0.0
sbsg32
g33
((lp756
g49
atp757
Rp758
sg38
g9
sg39
I2015
sbsVIND0000383
p759
g2
(g3
g4
Ntp760
Rp761
(dp762
g8
g9
sg10
F120.0
sg11
VSEWA-II
p763
sg13
I2015
sg14
g15
sg16
g17
sg18
g19
sg20
g9
sg21
g759
sg22
F594.0746999999999
sg23
g2
(g24
g4
Ntp764
Rp765
(dp766
g28
F0.0
sg29
g30
sg31
F0.0
sbsg32
g33
((lp767
g49
atp768
Rp769
sg38
g9
sg39
I2015
sbsVIND0000455
p770
g2
(g3
g4
Ntp771
Rp772
(dp773
g8
g9
sg10
F300.0
sg11
VUKAI_Hydro
p774
sg13
I2015
sg14
g15
sg16
g17
sg18
g19
sg20
g9
sg21
g770
sg22
F687.17685
sg23
g2
(g24
g4
Ntp775
Rp776
(dp777
g28
F0.0
sg29
g30
sg31
F0.0
sbsg32
g33
((lp778
g49
atp779
Rp780
sg38
g9
sg39
I2015
sbsVIND0000397
p781
g2
(g3
g4
Ntp782
Rp783
(dp784
g8
g9
sg10
F2000.0
sg11
VSINGRAULI STPS
p785
sg13
I2015
sg14
g15
sg16
g17
sg18
g19
sg20
g9
sg21
g781
sg22
F13431.0
sg23
g2
(g24
g4
Ntp786
Rp787
(dp788
g28
F0.0
sg29
g30
sg31
F0.0
sbsg32
g33
((lp789
g61
ag62
atp790
Rp791
sg38
g9
sg39
I2015
sbsVIND0000388
p792
g2
(g3
g4
Ntp793
Rp794
(dp795
g8
g9
sg10
F240.0
sg11
VSHARAVATHY TAIL RACE (Gerusupa)
p796
sg13
I2015
sg14
g15
sg16
g17
sg18
g19
sg20
g9
sg21
g792
sg22
F554.1155
sg23
g2
(g24
g4
Ntp797
Rp798
(dp799
g28
F0.0
sg29
g30
sg31
F0.0
sbsg32
g33
((lp800
g49
atp801
Rp802
sg38
g9
sg39
I2015
sbsVIND0000395
p803
g2
(g3
g4
Ntp804
Rp805
(dp806
g8
g9
sg10
F2000.0
sg11
VSIMHADRI
p807
sg13
I2015
sg14
g15
sg16
g17
sg18
g19
sg20
g9
sg21
g803
sg22
F14196.0
sg23
g2
(g24
g4
Ntp808
Rp809
(dp810
g28
F0.0
sg29
g30
sg31
F0.0
sbsg32
g33
((lp811
g61
ag62
atp812
Rp813
sg38
g9
sg39
I2015
sbsVIND0000394
p814
g2
(g3
g4
Ntp815
Rp816
(dp817
g8
g9
sg10
F490.0
sg11
VSIKKA REP.
p818
sg13
I2015
sg14
g15
sg16
g17
sg18
g19
sg20
g9
sg21
g814
sg22
F829.691
sg23
g2
(g24
g4
Ntp819
Rp820
(dp821
g28
F0.0
sg29
g30
sg31
F0.0
sbsg32
g33
((lp822
g61
ag62
atp823
Rp824
sg38
g9
sg39
I2015
sbsVIND0000393
p825
g2
(g3
g4
Ntp826
Rp827
(dp828
g8
g9
sg10
F1200.0
sg11
VShri Singaji MALWA TPP
p829
sg13
I2015
sg14
g15
sg16
g17
sg18
g19
sg20
g9
sg21
g825
sg22
F1584.581
sg23
g2
(g24
g4
Ntp830
Rp831
(dp832
g28
F0.0
sg29
g30
sg31
F0.0
sbsg32
g33
((lp833
g61
ag62
atp834
Rp835
sg38
g9
sg39
I2015
sbsVIND0000392
p836
g2
(g3
g4
Ntp837
Rp838
(dp839
g8
g9
sg10
F95.0
sg11
VSHOLAYAR I&II
p840
sg13
I2015
sg14
g15
sg16
g17
sg18
g19
sg20
g9
sg21
g836
sg22
F260.27209999999997
sg23
g2
(g24
g4
Ntp841
Rp842
(dp843
g28
F0.0
sg29
g30
sg31
F0.0
sbsg32
g33
((lp844
g49
atp845
Rp846
sg38
g9
sg39
I2015
sbsVIND0000258
p847
g2
(g3
g4
Ntp848
Rp849
(dp850
g8
g9
sg10
F65.4
sg11
VMONARCHAK CCPP
p851
sg13
I2015
sg14
g15
sg16
g17
sg18
g19
sg20
g9
sg21
g847
sg22
F0.0
sg23
g2
(g24
g4
Ntp852
Rp853
(dp854
g28
F0.0
sg29
g30
sg31
F0.0
sbsg32
g33
((lp855
g35
atp856
Rp857
sg38
g9
sg39
I2015
sbsVIND0000259
p858
g2
(g3
g4
Ntp859
Rp860
(dp861
g8
g9
sg10
F1000.0
sg11
VMOUDA STPS
p862
sg13
I2015
sg14
g15
sg16
g17
sg18
g19
sg20
g9
sg21
g858
sg22
F2096.0
sg23
g2
(g24
g4
Ntp863
Rp864
(dp865
g28
F0.0
sg29
g30
sg31
F0.0
sbsg32
g33
((lp866
g61
ag62
atp867
Rp868
sg38
g9
sg39
I2015
sbsVIND0000256
p869
g2
(g3
g4
Ntp870
Rp871
(dp872
g8
g9
sg10
F9.3
sg11
VMOHAMAD PUR
p873
sg13
I2015
sg14
g15
sg16
g17
sg18
g19
sg20
g9
sg21
g869
sg22
F0.0
sg23
g2
(g24
g4
Ntp874
Rp875
(dp876
g28
F0.0
sg29
g30
sg31
F0.0
sbsg32
g33
((lp877
g49
atp878
Rp879
sg38
g9
sg39
I2015
sbsVIND0000257
p880
g2
(g3
g4
Ntp881
Rp882
(dp883
g8
g9
sg10
F9.0
sg11
VMOHARA
p884
sg13
I2015
sg14
g15
sg16
g17
sg18
g19
sg20
g9
sg21
g880
sg22
F0.0
sg23
g2
(g24
g4
Ntp885
Rp886
(dp887
g28
F0.0
sg29
g30
sg31
F0.0
sbsg32
g33
((lp888
g49
atp889
Rp890
sg38
g9
sg39
I2015
sbsVIND0000254
p891
g2
(g3
g4
Ntp892
Rp893
(dp894
g8
g9
sg10
F246.0
sg11
VMIHAN TPP
p895
sg13
I2015
sg14
g15
sg16
g17
sg18
g19
sg20
g9
sg21
g891
sg22
F0.0
sg23
g2
(g24
g4
Ntp896
Rp897
(dp898
g28
F0.0
sg29
g30
sg31
F0.0
sbsg32
g33
((lp899
g61
ag62
atp900
Rp901
sg38
g9
sg39
I2015
sbsVIND0000255
p902
g2
(g3
g4
Ntp903
Rp904
(dp905
g8
g9
sg10
F0.0
sg11
VMOBILE GAS T-G
p906
sg13
I2015
sg14
g15
sg16
g17
sg18
g19
sg20
g9
sg21
g902
sg22
F0.0
sg23
g2
(g24
g4
Ntp907
Rp908
(dp909
g28
F0.0
sg29
g30
sg31
F0.0
sbsg32
g33
((lp910
g35
atp911
Rp912
sg38
g9
sg39
I2015
sbsVIND0000252
p913
g2
(g3
g4
Ntp914
Rp915
(dp916
g8
g9
sg10
F250.0
sg11
VMETTUR DAM
p917
sg13
I2015
sg14
g15
sg16
g17
sg18
g19
sg20
g9
sg21
g913
sg22
F440.4069
sg23
g2
(g24
g4
Ntp918
Rp919
(dp920
g28
F0.0
sg29
g30
sg31
F0.0
sbsg32
g33
((lp921
g49
atp922
Rp923
sg38
g9
sg39
I2015
sbsVIND0000253
p924
g2
(g3
g4
Ntp925
Rp926
(dp927
g8
g9
sg10
F600.0
sg11
VMETTUR TPS EXT
p928
sg13
I2015
sg14
g15
sg16
g17
sg18
g19
sg20
g9
sg21
g924
sg22
F2802.37
sg23
g2
(g24
g4
Ntp929
Rp930
(dp931
g28
F0.0
sg29
g30
sg31
F0.0
sbsg32
g33
((lp932
g61
ag62
atp933
Rp934
sg38
g9
sg39
I2015
sbsVIND0000250
p935
g2
(g3
g4
Ntp936
Rp937
(dp938
g8
g9
sg10
F600.0
sg11
VMELAMARUTHUR (MUTHIARA)
p939
sg13
I2015
sg14
g15
sg16
g17
sg18
g19
sg20
g9
sg21
g935
sg22
F805.76
sg23
g2
(g24
g4
Ntp940
Rp941
(dp942
g28
F0.0
sg29
g30
sg31
F0.0
sbsg32
g33
((lp943
g61
ag62
atp944
Rp945
sg38
g9
sg39
I2015
sbsVIND0000251
p946
g2
(g3
g4
Ntp947
Rp948
(dp949
g8
g9
sg10
F840.0
sg11
VMETTUR
p950
sg13
I2015
sg14
g15
sg16
g17
sg18
g19
sg20
g9
sg21
g946
sg22
F5697.399
sg23
g2
(g24
g4
Ntp951
Rp952
(dp953
g28
F0.0
sg29
g30
sg31
F0.0
sbsg32
g33
((lp954
g61
ag62
atp955
Rp956
sg38
g9
sg39
I2015
sbsVIND0000089
p957
g2
(g3
g4
Ntp958
Rp959
(dp960
g8
g9
sg10
F500.0
sg11
VDHANU
p961
sg13
I2015
sg14
g15
sg16
g17
sg18
g19
sg20
g9
sg21
g957
sg22
F3642.26
sg23
g2
(g24
g4
Ntp962
Rp963
(dp964
g28
F0.0
sg29
g30
sg31
F0.0
sbsg32
g33
((lp965
g61
ag62
atp966
Rp967
sg38
g9
sg39
I2015
sbsVIND0000088
p968
g2
(g3
g4
Ntp969
Rp970
(dp971
g8
g9
sg10
F51.0
sg11
VDHALIPUR
p972
sg13
I2015
sg14
g15
sg16
g17
sg18
g19
sg20
g9
sg21
g968
sg22
F229.9843
sg23
g2
(g24
g4
Ntp973
Rp974
(dp975
g28
F0.0
sg29
g30
sg31
F0.0
sbsg32
g33
((lp976
g49
atp977
Rp978
sg38
g9
sg39
I2015
sbsVIND0000083
p979
g2
(g3
g4
Ntp980
Rp981
(dp982
g8
g9
sg10
F1600.0
sg11
VDAMODARAM SANJEEVAIAH
p983
sg13
I2015
sg14
g15
sg16
g17
sg18
g19
sg20
g9
sg21
g979
sg22
F1025.3845
sg23
g2
(g24
g4
Ntp984
Rp985
(dp986
g28
F0.0
sg29
g30
sg31
F0.0
sbsg32
g33
((lp987
g61
ag62
atp988
Rp989
sg38
g9
sg39
I2015
sbsVIND0000082
p990
g2
(g3
g4
Ntp991
Rp992
(dp993
g8
g9
sg10
F816.4
sg11
VDADRI GT
p994
sg13
I2015
sg14
g15
sg16
g17
sg18
g19
sg20
g9
sg21
g990
sg22
F2462.0
sg23
g2
(g24
g4
Ntp995
Rp996
(dp997
g28
F0.0
sg29
g30
sg31
F0.0
sbsg32
g33
((lp998
g62
ag35
atp999
Rp1000
sg38
g9
sg39
I2015
sbsVIND0000081
p1001
g2
(g3
g4
Ntp1002
Rp1003
(dp1004
g8
g9
sg10
F1820.0
sg11
VDADRI (NCTPP)
p1005
sg13
I2015
sg14
g15
sg16
g17
sg18
g19
sg20
g9
sg21
g1001
sg22
F11466.0
sg23
g2
(g24
g4
Ntp1006
Rp1007
(dp1008
g28
F0.0
sg29
g30
sg31
F0.0
sbsg32
g33
((lp1009
g61
ag62
atp1010
Rp1011
sg38
g9
sg39
I2015
sbsVIND0000080
p1012
g2
(g3
g4
Ntp1013
Rp1014
(dp1015
g8
g9
sg10
F891.0
sg11
VD.P.L.
p1016
sg13
I2015
sg14
g15
sg16
g17
sg18
g19
sg20
g9
sg21
g1012
sg22
F1228.69
sg23
g2
(g24
g4
Ntp1017
Rp1018
(dp1019
g28
F0.0
sg29
g30
sg31
F0.0
sbsg32
g33
((lp1020
g61
ag62
atp1021
Rp1022
sg38
g9
sg39
I2015
sbsVIND0000087
p1023
g2
(g3
g4
Ntp1024
Rp1025
(dp1026
g8
g9
sg10
F33.75
sg11
VDHAKRANI
p1027
sg13
I2015
sg14
g15
sg16
g17
sg18
g19
sg20
g9
sg21
g1023
sg22
F148.66295
sg23
g2
(g24
g4
Ntp1028
Rp1029
(dp1030
g28
F0.0
sg29
g30
sg31
F0.0
sbsg32
g33
((lp1031
g49
atp1032
Rp1033
sg38
g9
sg39
I2015
sbsVIND0000086
p1034
g2
(g3
g4
Ntp1035
Rp1036
(dp1037
g8
g9
sg10
F1200.0
sg11
VDGEN MEGA CCCP
p1038
sg13
I2015
sg14
g15
sg16
g17
sg18
g19
sg20
g9
sg21
g1034
sg22
F0.0
sg23
g2
(g24
g4
Ntp1039
Rp1040
(dp1041
g28
F0.0
sg29
g30
sg31
F0.0
sbsg32
g33
((lp1042
g35
atp1043
Rp1044
sg38
g9
sg39
I2015
sbsVIND0000085
p1045
g2
(g3
g4
Ntp1046
Rp1047
(dp1048
g8
g9
sg10
F1200.0
sg11
VDERANG
p1049
sg13
I2015
sg14
g15
sg16
g17
sg18
g19
sg20
g9
sg21
g1045
sg22
F481.94575000000003
sg23
g2
(g24
g4
Ntp1050
Rp1051
(dp1052
g28
F0.0
sg29
g30
sg31
F0.0
sbsg32
g33
((lp1053
g61
ag62
atp1054
Rp1055
sg38
g9
sg39
I2015
sbsVIND0000084
p1056
g2
(g3
g4
Ntp1057
Rp1058
(dp1059
g8
g9
sg10
F990.0
sg11
VDEHAR
p1060
sg13
I2015
sg14
g15
sg16
g17
sg18
g19
sg20
g9
sg21
g1056
sg22
F3135.3047
sg23
g2
(g24
g4
Ntp1061
Rp1062
(dp1063
g28
F0.0
sg29
g30
sg31
F0.0
sbsg32
g33
((lp1064
g49
atp1065
Rp1066
sg38
g9
sg39
I2015
sbsVIND0000350
p1067
g2
(g3
g4
Ntp1068
Rp1069
(dp1070
g8
g9
sg10
F412.02
sg11
VRAMPUR
p1071
sg13
I2015
sg14
g15
sg16
g17
sg18
g19
sg20
g9
sg21
g1067
sg22
F1310.9821499999998
sg23
g2
(g24
g4
Ntp1072
Rp1073
(dp1074
g28
F0.0
sg29
g30
sg31
F0.0
sbsg32
g33
((lp1075
g49
atp1076
Rp1077
sg38
g9
sg39
I2015
sbsVIND0000146
p1078
g2
(g3
g4
Ntp1079
Rp1080
(dp1081
g8
g9
sg10
F1080.0
sg11
VJALLIPPA KAPURDI TPP
p1082
sg13
I2015
sg14
g15
sg16
g17
sg18
g19
sg20
g9
sg21
g1078
sg22
F6555.64
sg23
g2
(g24
g4
Ntp1083
Rp1084
(dp1085
g28
F0.0
sg29
g30
sg31
F0.0
sbsg32
g33
((lp1086
g61
ag62
atp1087
Rp1088
sg38
g9
sg39
I2015
sbsVIND0000179
p1089
g2
(g3
g4
Ntp1090
Rp1091
(dp1092
g8
g9
sg10
F350.0
sg11
VKAYAM KULAM GT
p1093
sg13
I2015
sg14
g15
sg16
g17
sg18
g19
sg20
g9
sg21
g1089
sg22
F792.0
sg23
g2
(g24
g4
Ntp1094
Rp1095
(dp1096
g28
F0.0
sg29
g30
sg31
F0.0
sbsg32
g33
((lp1097
g35
atp1098
Rp1099
sg38
g9
sg39
I2015
sbsVIND0000147
p1100
g2
(g3
g4
Ntp1101
Rp1102
(dp1103
g8
g9
sg10
F445.674
sg11
VJEGURUPADU GT
p1104
sg13
I2015
sg14
g15
sg16
g17
sg18
g19
sg20
g9
sg21
g1100
sg22
F573.441
sg23
g2
(g24
g4
Ntp1105
Rp1106
(dp1107
g28
F0.0
sg29
g30
sg31
F0.0
sbsg32
g33
((lp1108
g35
atp1109
Rp1110
sg38
g9
sg39
I2015
sbsVIND0000177
p1111
g2
(g3
g4
Ntp1112
Rp1113
(dp1114
g8
g9
sg10
F1320.0
sg11
VKAWAI TPP
p1115
sg13
I2015
sg14
g15
sg16
g17
sg18
g19
sg20
g9
sg21
g1111
sg22
F7399.0
sg23
g2
(g24
g4
Ntp1116
Rp1117
(dp1118
g28
F0.0
sg29
g30
sg31
F0.0
sbsg32
g33
((lp1119
g61
ag62
atp1120
Rp1121
sg38
g9
sg39
I2015
sbsVIND0000176
p1122
g2
(g3
g4
Ntp1123
Rp1124
(dp1125
g8
g9
sg10
F291.0
sg11
VKATHALGURI GT
p1126
sg13
I2015
sg14
g15
sg16
g17
sg18
g19
sg20
g9
sg21
g1122
sg22
F1695.81264
sg23
g2
(g24
g4
Ntp1127
Rp1128
(dp1129
g28
F0.0
sg29
g30
sg31
F0.0
sbsg32
g33
((lp1130
g35
atp1131
Rp1132
sg38
g9
sg39
I2015
sbsVIND0000175
p1133
g2
(g3
g4
Ntp1134
Rp1135
(dp1136
g8
g9
sg10
F35.0
sg11
VKATGHORA TPP
p1137
sg13
I2015
sg14
g15
sg16
g17
sg18
g19
sg20
g9
sg21
g1133
sg22
F0.0
sg23
g2
(g24
g4
Ntp1138
Rp1139
(dp1140
g28
F0.0
sg29
g30
sg31
F0.0
sbsg32
g33
((lp1141
g61
ag62
atp1142
Rp1143
sg38
g9
sg39
I2015
sbsVIND0000174
p1144
g2
(g3
g4
Ntp1145
Rp1146
(dp1147
g8
g9
sg10
F21.84
sg11
VKASARGODE DG
p1148
sg13
I2015
sg14
g15
sg16
g17
sg18
g19
sg20
g9
sg21
g1144
sg22
F0.0
sg23
g2
(g24
g4
Ntp1149
Rp1150
(dp1151
g28
F0.0
sg29
g30
sg31
F0.0
sbsg32
g33
((lp1152
g62
atp1153
Rp1154
sg38
g9
sg39
I2015
sbsVIND0000173
p1155
g2
(g3
g4
Ntp1156
Rp1157
(dp1158
g8
g9
sg10
F270.0
sg11
VKASAIPALLI
p1159
sg13
I2015
sg14
g15
sg16
g17
sg18
g19
sg20
g9
sg21
g1155
sg22
F1564.163
sg23
g2
(g24
g4
Ntp1160
Rp1161
(dp1162
g28
F0.0
sg29
g30
sg31
F0.0
sbsg32
g33
((lp1163
g61
ag62
atp1164
Rp1165
sg38
g9
sg39
I2015
sbsVIND0000172
p1166
g2
(g3
g4
Ntp1167
Rp1168
(dp1169
g8
g9
sg10
F119.8
sg11
VKARUPPUR GT
p1170
sg13
I2015
sg14
g15
sg16
g17
sg18
g19
sg20
g9
sg21
g1166
sg22
F560.352
sg23
g2
(g24
g4
Ntp1171
Rp1172
(dp1173
g28
F0.0
sg29
g30
sg31
F0.0
sbsg32
g33
((lp1174
g35
atp1175
Rp1176
sg38
g9
sg39
I2015
sbsVIND0000171
p1177
g2
(g3
g4
Ntp1178
Rp1179
(dp1180
g8
g9
sg10
F3.75
sg11
VKARGIL
p1181
sg13
I2015
sg14
g15
sg16
g17
sg18
g19
sg20
g9
sg21
g1177
sg22
F0.0
sg23
g2
(g24
g4
Ntp1182
Rp1183
(dp1184
g28
F0.0
sg29
g30
sg31
F0.0
sbsg32
g33
((lp1185
g49
atp1186
Rp1187
sg38
g9
sg39
I2015
sbsVIND0000170
p1188
g2
(g3
g4
Ntp1189
Rp1190
(dp1191
g8
g9
sg10
F1000.0
sg11
VKARCHAM WANGTOO
p1192
sg13
I2015
sg14
g15
sg16
g17
sg18
g19
sg20
g9
sg21
g1188
sg22
F4219.22785
sg23
g2
(g24
g4
Ntp1193
Rp1194
(dp1195
g28
F0.0
sg29
g30
sg31
F0.0
sbsg32
g33
((lp1196
g49
atp1197
Rp1198
sg38
g9
sg39
I2015
sbsVIND0000076
p1199
g2
(g3
g4
Ntp1200
Rp1201
(dp1202
g8
g9
sg10
F240.0
sg11
VCHIBRO (YAMUNA)
p1203
sg13
I2015
sg14
g15
sg16
g17
sg18
g19
sg20
g9
sg21
g1199
sg22
F867.7395
sg23
g2
(g24
g4
Ntp1204
Rp1205
(dp1206
g28
F0.0
sg29
g30
sg31
F0.0
sbsg32
g33
((lp1207
g49
atp1208
Rp1209
sg38
g9
sg39
I2015
sbsVIND0000077
p1210
g2
(g3
g4
Ntp1211
Rp1212
(dp1213
g8
g9
sg10
F144.0
sg11
VCHILLA
p1214
sg13
I2015
sg14
g15
sg16
g17
sg18
g19
sg20
g9
sg21
g1210
sg22
F796.48755
sg23
g2
(g24
g4
Ntp1215
Rp1216
(dp1217
g28
F0.0
sg29
g30
sg31
F0.0
sbsg32
g33
((lp1218
g49
atp1219
Rp1220
sg38
g9
sg39
I2015
sbsVIND0000074
p1221
g2
(g3
g4
Ntp1222
Rp1223
(dp1224
g8
g9
sg10
F30.8
sg11
VCHENANI I&III
p1225
sg13
I2015
sg14
g15
sg16
g17
sg18
g19
sg20
g9
sg21
g1221
sg22
F57.12693
sg23
g2
(g24
g4
Ntp1226
Rp1227
(dp1228
g28
F0.0
sg29
g30
sg31
F0.0
sbsg32
g33
((lp1229
g49
atp1230
Rp1231
sg38
g9
sg39
I2015
sbsVIND0000075
p1232
g2
(g3
g4
Ntp1233
Rp1234
(dp1235
g8
g9
sg10
F1000.0
sg11
VCHHABRA TPS
p1236
sg13
I2015
sg14
g15
sg16
g17
sg18
g19
sg20
g9
sg21
g1232
sg22
F4088.539
sg23
g2
(g24
g4
Ntp1237
Rp1238
(dp1239
g28
F0.0
sg29
g30
sg31
F0.0
sbsg32
g33
((lp1240
g61
ag62
atp1241
Rp1242
sg38
g9
sg39
I2015
sbsVIND0000072
p1243
g2
(g3
g4
Ntp1244
Rp1245
(dp1246
g8
g9
sg10
F890.0
sg11
VCHANDRAPURA
p1247
sg13
I2015
sg14
g15
sg16
g17
sg18
g19
sg20
g9
sg21
g1243
sg22
F4488.057
sg23
g2
(g24
g4
Ntp1248
Rp1249
(dp1250
g28
F0.0
sg29
g30
sg31
F0.0
sbsg32
g33
((lp1251
g61
ag62
atp1252
Rp1253
sg38
g9
sg39
I2015
sbsVIND0000073
p1254
g2
(g3
g4
Ntp1255
Rp1256
(dp1257
g8
g9
sg10
F3.75
sg11
VCHEMBUKADAVU-II
p1258
sg13
I2015
sg14
g15
sg16
g17
sg18
g19
sg20
g9
sg21
g1254
sg22
F0.0
sg23
g2
(g24
g4
Ntp1259
Rp1260
(dp1261
g28
F0.0
sg29
g30
sg31
F0.0
sbsg32
g33
((lp1262
g49
atp1263
Rp1264
sg38
g9
sg39
I2015
sbsVIND0000070
p1265
g2
(g3
g4
Ntp1266
Rp1267
(dp1268
g8
g9
sg10
F2840.0
sg11
VCHANDRAPUR_Coal
p1269
sg13
I2015
sg14
g15
sg16
g17
sg18
g19
sg20
g9
sg21
g1265
sg22
F11385.842
sg23
g2
(g24
g4
Ntp1270
Rp1271
(dp1272
g28
F0.0
sg29
g30
sg31
F0.0
sbsg32
g33
((lp1273
g61
ag62
atp1274
Rp1275
sg38
g9
sg39
I2015
sbsVIND0000071
p1276
g2
(g3
g4
Ntp1277
Rp1278
(dp1279
g8
g9
sg10
F0.0
sg11
VCHANDRAPUR_Oil
p1280
sg13
I2015
sg14
g15
sg16
g17
sg18
g19
sg20
g9
sg21
g1276
sg22
F0.0
sg23
g2
(g24
g4
Ntp1281
Rp1282
(dp1283
g28
F0.0
sg29
g30
sg31
F0.0
sbsg32
g33
((lp1284
g62
atp1285
Rp1286
sg38
g9
sg39
I2015
sbsVIND0000371
p1287
g2
(g3
g4
Ntp1288
Rp1289
(dp1290
g8
g9
sg10
F1200.0
sg11
VSALAYA TPP
p1291
sg13
I2015
sg14
g15
sg16
g17
sg18
g19
sg20
g9
sg21
g1287
sg22
F6224.0
sg23
g2
(g24
g4
Ntp1292
Rp1293
(dp1294
g28
F0.0
sg29
g30
sg31
F0.0
sbsg32
g33
((lp1295
g61
ag62
atp1296
Rp1297
sg38
g9
sg39
I2015
sbsVIND0000370
p1298
g2
(g3
g4
Ntp1299
Rp1300
(dp1301
g8
g9
sg10
F690.0
sg11
VSALAL I & II
p1302
sg13
I2015
sg14
g15
sg16
g17
sg18
g19
sg20
g9
sg21
g1298
sg22
F3474.1221
sg23
g2
(g24
g4
Ntp1303
Rp1304
(dp1305
g28
F0.0
sg29
g30
sg31
F0.0
sbsg32
g33
((lp1306
g49
atp1307
Rp1308
sg38
g9
sg39
I2015
sbsVIND0000373
p1309
g2
(g3
g4
Ntp1310
Rp1311
(dp1312
g8
g9
sg10
F105.7
sg11
VSAMALPATTI DG
p1313
sg13
I2015
sg14
g15
sg16
g17
sg18
g19
sg20
g9
sg21
g1309
sg22
F223.650436183
sg23
g2
(g24
g4
Ntp1314
Rp1315
(dp1316
g28
F0.0
sg29
g30
sg31
F0.0
sbsg32
g33
((lp1317
g62
atp1318
Rp1319
sg38
g9
sg39
I2015
sbsVIND0000372
p1320
g2
(g3
g4
Ntp1321
Rp1322
(dp1323
g8
g9
sg10
F135.0
sg11
VSALORA
p1324
sg13
I2015
sg14
g15
sg16
g17
sg18
g19
sg20
g9
sg21
g1320
sg22
F124.7792
sg23
g2
(g24
g4
Ntp1325
Rp1326
(dp1327
g28
F0.0
sg29
g30
sg31
F0.0
sbsg32
g33
((lp1328
g61
ag62
atp1329
Rp1330
sg38
g9
sg39
I2015
sbsVIND0000375
p1331
g2
(g3
g4
Ntp1332
Rp1333
(dp1334
g8
g9
sg10
F120.0
sg11
VSANJAY BHABA
p1335
sg13
I2015
sg14
g15
sg16
g17
sg18
g19
sg20
g9
sg21
g1331
sg22
F542.36455
sg23
g2
(g24
g4
Ntp1336
Rp1337
(dp1338
g28
F0.0
sg29
g30
sg31
F0.0
sbsg32
g33
((lp1339
g49
atp1340
Rp1341
sg38
g9
sg39
I2015
sbsVIND0000374
p1342
g2
(g3
g4
Ntp1343
Rp1344
(dp1345
g8
g9
sg10
F106.0
sg11
VSAMAYANALLUR DG
p1346
sg13
I2015
sg14
g15
sg16
g17
sg18
g19
sg20
g9
sg21
g1342
sg22
F243.634
sg23
g2
(g24
g4
Ntp1347
Rp1348
(dp1349
g28
F0.0
sg29
g30
sg31
F0.0
sbsg32
g33
((lp1350
g62
atp1351
Rp1352
sg38
g9
sg39
I2015
sbsVIND0000078
p1353
g2
(g3
g4
Ntp1354
Rp1355
(dp1356
g8
g9
sg10
F44.0
sg11
VCHUTAK
p1357
sg13
I2015
sg14
g15
sg16
g17
sg18
g19
sg20
g9
sg21
g1353
sg22
F35.3225
sg23
g2
(g24
g4
Ntp1358
Rp1359
(dp1360
g28
F0.0
sg29
g30
sg31
F0.0
sbsg32
g33
((lp1361
g49
atp1362
Rp1363
sg38
g9
sg39
I2015
sbsVIND0000079
p1364
g2
(g3
g4
Ntp1365
Rp1366
(dp1367
g8
g9
sg10
F99.0
sg11
VCHUZACHEN
p1368
sg13
I2015
sg14
g15
sg16
g17
sg18
g19
sg20
g9
sg21
g1364
sg22
F428.70570000000004
sg23
g2
(g24
g4
Ntp1369
Rp1370
(dp1371
g28
F0.0
sg29
g30
sg31
F0.0
sbsg32
g33
((lp1372
g49
atp1373
Rp1374
sg38
g9
sg39
I2015
sbsVIND0000178
p1375
g2
(g3
g4
Ntp1376
Rp1377
(dp1378
g8
g9
sg10
F645.0
sg11
VKAWAS GT
p1379
sg13
I2015
sg14
g15
sg16
g17
sg18
g19
sg20
g9
sg21
g1375
sg22
F1694.0
sg23
g2
(g24
g4
Ntp1380
Rp1381
(dp1382
g28
F0.0
sg29
g30
sg31
F0.0
sbsg32
g33
((lp1383
g35
atp1384
Rp1385
sg38
g9
sg39
I2015
sbsVIND0000108
p1386
g2
(g3
g4
Ntp1387
Rp1388
(dp1389
g8
g9
sg10
F431.586
sg11
VF_BAD CCGT
p1390
sg13
I2015
sg14
g15
sg16
g17
sg18
g19
sg20
g9
sg21
g1386
sg22
F1527.0
sg23
g2
(g24
g4
Ntp1391
Rp1392
(dp1393
g28
F0.0
sg29
g30
sg31
F0.0
sbsg32
g33
((lp1394
g35
atp1395
Rp1396
sg38
g9
sg39
I2015
sbsVIND0000109
p1397
g2
(g3
g4
Ntp1398
Rp1399
(dp1400
g8
g9
sg10
F0.0
sg11
VF_BAD EXTN.
p1401
sg13
I2015
sg14
g15
sg16
g17
sg18
g19
sg20
g9
sg21
g1397
sg22
F0.0
sg23
g2
(g24
g4
Ntp1402
Rp1403
(dp1404
g28
F0.0
sg29
g30
sg31
F0.0
sbsg32
g33
((lp1405
g61
ag62
atp1406
Rp1407
sg38
g9
sg39
I2015
sbsVIND0000148
p1408
g2
(g3
g4
Ntp1409
Rp1410
(dp1411
g8
g9
sg10
F139.2
sg11
VJOG
p1412
sg13
I2015
sg14
g15
sg16
g17
sg18
g19
sg20
g9
sg21
g1408
sg22
F345.15555
sg23
g2
(g24
g4
Ntp1413
Rp1414
(dp1415
g28
F0.0
sg29
g30
sg31
F0.0
sbsg32
g33
((lp1416
g49
atp1417
Rp1418
sg38
g9
sg39
I2015
sbsVIND0000102
p1419
g2
(g3
g4
Ntp1420
Rp1421
(dp1422
g8
g9
sg10
F1000.0
sg11
VDURGAPUR STEEL TPS
p1423
sg13
I2015
sg14
g15
sg16
g17
sg18
g19
sg20
g9
sg21
g1419
sg22
F3633.396
sg23
g2
(g24
g4
Ntp1424
Rp1425
(dp1426
g28
F0.0
sg29
g30
sg31
F0.0
sbsg32
g33
((lp1427
g61
ag62
atp1428
Rp1429
sg38
g9
sg39
I2015
sbsVIND0000103
p1430
g2
(g3
g4
Ntp1431
Rp1432
(dp1433
g8
g9
sg10
F15.0
sg11
VE.G. CANAL
p1434
sg13
I2015
sg14
g15
sg16
g17
sg18
g19
sg20
g9
sg21
g1430
sg22
F0.0
sg23
g2
(g24
g4
Ntp1435
Rp1436
(dp1437
g28
F0.0
sg29
g30
sg31
F0.0
sbsg32
g33
((lp1438
g49
atp1439
Rp1440
sg38
g9
sg39
I2015
sbsVIND0000100
p1441
g2
(g3
g4
Ntp1442
Rp1443
(dp1444
g8
g9
sg10
F390.0
sg11
VDULHASTI
p1445
sg13
I2015
sg14
g15
sg16
g17
sg18
g19
sg20
g9
sg21
g1441
sg22
F2165.54785
sg23
g2
(g24
g4
Ntp1446
Rp1447
(dp1448
g28
F0.0
sg29
g30
sg31
F0.0
sbsg32
g33
((lp1449
g49
atp1450
Rp1451
sg38
g9
sg39
I2015
sbsVIND0000026
p1452
g2
(g3
g4
Ntp1453
Rp1454
(dp1455
g8
g9
sg10
F30.0
sg11
VBANSAGAR (II)
p1456
sg13
I2015
sg14
g15
sg16
g17
sg18
g19
sg20
g9
sg21
g1452
sg22
F85.65955000000001
sg23
g2
(g24
g4
Ntp1457
Rp1458
(dp1459
g28
F0.0
sg29
g30
sg31
F0.0
sbsg32
g33
((lp1460
g49
atp1461
Rp1462
sg38
g9
sg39
I2015
sbsVIND0000106
p1463
g2
(g3
g4
Ntp1464
Rp1465
(dp1466
g8
g9
sg10
F450.0
sg11
VENNORE
p1467
sg13
I2015
sg14
g15
sg16
g17
sg18
g19
sg20
g9
sg21
g1463
sg22
F485.136
sg23
g2
(g24
g4
Ntp1468
Rp1469
(dp1470
g28
F0.0
sg29
g30
sg31
F0.0
sbsg32
g33
((lp1471
g61
ag62
atp1472
Rp1473
sg38
g9
sg39
I2015
sbsVIND0000107
p1474
g2
(g3
g4
Ntp1475
Rp1476
(dp1477
g8
g9
sg10
F515.0
sg11
VESSAR GT IMP.
p1478
sg13
I2015
sg14
g15
sg16
g17
sg18
g19
sg20
g9
sg21
g1474
sg22
F0.0
sg23
g2
(g24
g4
Ntp1479
Rp1480
(dp1481
g28
F0.0
sg29
g30
sg31
F0.0
sbsg32
g33
((lp1482
g35
atp1483
Rp1484
sg38
g9
sg39
I2015
sbsVIND0000104
p1485
g2
(g3
g4
Ntp1486
Rp1487
(dp1488
g8
g9
sg10
F22.5
sg11
VELDARI
p1489
sg13
I2015
sg14
g15
sg16
g17
sg18
g19
sg20
g9
sg21
g1485
sg22
F0.0
sg23
g2
(g24
g4
Ntp1490
Rp1491
(dp1492
g28
F0.0
sg29
g30
sg31
F0.0
sbsg32
g33
((lp1493
g49
atp1494
Rp1495
sg38
g9
sg39
I2015
sbsVIND0000105
p1496
g2
(g3
g4
Ntp1497
Rp1498
(dp1499
g8
g9
sg10
F600.0
sg11
VEMCO WARORA TPP
p1500
sg13
I2015
sg14
g15
sg16
g17
sg18
g19
sg20
g9
sg21
g1496
sg22
F3277.35
sg23
g2
(g24
g4
Ntp1501
Rp1502
(dp1503
g28
F0.0
sg29
g30
sg31
F0.0
sbsg32
g33
((lp1504
g61
ag62
atp1505
Rp1506
sg38
g9
sg39
I2015
sbsVIND0000454
p1507
g2
(g3
g4
Ntp1508
Rp1509
(dp1510
g8
g9
sg10
F1350.0
sg11
VUKAI_Coal
p1511
sg13
I2015
sg14
g15
sg16
g17
sg18
g19
sg20
g9
sg21
g1507
sg22
F6105.916
sg23
g2
(g24
g4
Ntp1512
Rp1513
(dp1514
g28
F0.0
sg29
g30
sg31
F0.0
sbsg32
g33
((lp1515
g61
ag62
atp1516
Rp1517
sg38
g9
sg39
I2015
sbsVIND0000379
p1518
g2
(g3
g4
Ntp1519
Rp1520
(dp1521
g8
g9
sg10
F3960.0
sg11
VSASAN UMPP
p1522
sg13
I2015
sg14
g15
sg16
g17
sg18
g19
sg20
g9
sg21
g1518
sg22
F15069.0
sg23
g2
(g24
g4
Ntp1523
Rp1524
(dp1525
g28
F0.0
sg29
g30
sg31
F0.0
sbsg32
g33
((lp1526
g61
ag62
atp1527
Rp1528
sg38
g9
sg39
I2015
sbsVIND0000456
p1529
g2
(g3
g4
Ntp1530
Rp1531
(dp1532
g8
g9
sg10
F114.0
sg11
VUMIAM I II &IV
p1533
sg13
I2015
sg14
g15
sg16
g17
sg18
g19
sg20
g9
sg21
g1529
sg22
F251.94395
sg23
g2
(g24
g4
Ntp1534
Rp1535
(dp1536
g28
F0.0
sg29
g30
sg31
F0.0
sbsg32
g33
((lp1537
g49
atp1538
Rp1539
sg38
g9
sg39
I2015
sbsVIND0000457
p1540
g2
(g3
g4
Ntp1541
Rp1542
(dp1543
g8
g9
sg10
F11.2
sg11
VUMTRU
p1544
sg13
I2015
sg14
g15
sg16
g17
sg18
g19
sg20
g9
sg21
g1540
sg22
F0.0
sg23
g2
(g24
g4
Ntp1545
Rp1546
(dp1547
g28
F0.0
sg29
g30
sg31
F0.0
sbsg32
g33
((lp1548
g49
atp1549
Rp1550
sg38
g9
sg39
I2015
sbsVIND0000450
p1551
g2
(g3
g4
Ntp1552
Rp1553
(dp1554
g8
g9
sg10
F8.0
sg11
VU.ROGNICHU
p1555
sg13
I2015
sg14
g15
sg16
g17
sg18
g19
sg20
g9
sg21
g1551
sg22
F0.0
sg23
g2
(g24
g4
Ntp1556
Rp1557
(dp1558
g28
F0.0
sg29
g30
sg31
F0.0
sbsg32
g33
((lp1559
g49
atp1560
Rp1561
sg38
g9
sg39
I2015
sbsVIND0000451
p1562
g2
(g3
g4
Ntp1563
Rp1564
(dp1565
g8
g9
sg10
F1200.0
sg11
VUDUPI TPP
p1566
sg13
I2015
sg14
g15
sg16
g17
sg18
g19
sg20
g9
sg21
g1562
sg22
F6020.85
sg23
g2
(g24
g4
Ntp1567
Rp1568
(dp1569
g28
F0.0
sg29
g30
sg31
F0.0
sbsg32
g33
((lp1570
g61
ag62
atp1571
Rp1572
sg38
g9
sg39
I2015
sbsVIND0000452
p1573
g2
(g3
g4
Ntp1574
Rp1575
(dp1576
g8
g9
sg10
F12.0
sg11
VUJJAINI
p1577
sg13
I2015
sg14
g15
sg16
g17
sg18
g19
sg20
g9
sg21
g1573
sg22
F0.0
sg23
g2
(g24
g4
Ntp1578
Rp1579
(dp1580
g28
F0.0
sg29
g30
sg31
F0.0
sbsg32
g33
((lp1581
g49
atp1582
Rp1583
sg38
g9
sg39
I2015
sbsVIND0000378
p1584
g2
(g3
g4
Ntp1585
Rp1586
(dp1587
g8
g9
sg10
F30.0
sg11
VSARKARPATHY
p1588
sg13
I2015
sg14
g15
sg16
g17
sg18
g19
sg20
g9
sg21
g1584
sg22
F133.5688
sg23
g2
(g24
g4
Ntp1589
Rp1590
(dp1591
g28
F0.0
sg29
g30
sg31
F0.0
sbsg32
g33
((lp1592
g49
atp1593
Rp1594
sg38
g9
sg39
I2015
sbsVIND0000458
p1595
g2
(g3
g4
Ntp1596
Rp1597
(dp1598
g8
g9
sg10
F1050.0
sg11
VUNCHAHAR
p1599
sg13
I2015
sg14
g15
sg16
g17
sg18
g19
sg20
g9
sg21
g1595
sg22
F6925.0
sg23
g2
(g24
g4
Ntp1600
Rp1601
(dp1602
g28
F0.0
sg29
g30
sg31
F0.0
sbsg32
g33
((lp1603
g61
ag62
atp1604
Rp1605
sg38
g9
sg39
I2015
sbsVIND0000459
p1606
g2
(g3
g4
Ntp1607
Rp1608
(dp1609
g8
g9
sg10
F600.0
sg11
VUPPAR INDRAVATI
p1610
sg13
I2015
sg14
g15
sg16
g17
sg18
g19
sg20
g9
sg21
g1606
sg22
F2682.94785
sg23
g2
(g24
g4
Ntp1611
Rp1612
(dp1613
g28
F0.0
sg29
g30
sg31
F0.0
sbsg32
g33
((lp1614
g49
atp1615
Rp1616
sg38
g9
sg39
I2015
sbsVIND0000446
p1617
g2
(g3
g4
Ntp1618
Rp1619
(dp1620
g8
g9
sg10
F1050.0
sg11
VTUTICORIN
p1621
sg13
I2015
sg14
g15
sg16
g17
sg18
g19
sg20
g9
sg21
g1617
sg22
F7043.329
sg23
g2
(g24
g4
Ntp1622
Rp1623
(dp1624
g28
F0.0
sg29
g30
sg31
F0.0
sbsg32
g33
((lp1625
g61
ag62
atp1626
Rp1627
sg38
g9
sg39
I2015
sbsVIND0000201
p1628
g2
(g3
g4
Ntp1629
Rp1630
(dp1631
g8
g9
sg10
F1240.0
sg11
VKOTA
p1632
sg13
I2015
sg14
g15
sg16
g17
sg18
g19
sg20
g9
sg21
g1628
sg22
F8010.253
sg23
g2
(g24
g4
Ntp1633
Rp1634
(dp1635
g28
F0.0
sg29
g30
sg31
F0.0
sbsg32
g33
((lp1636
g61
ag62
atp1637
Rp1638
sg38
g9
sg39
I2015
sbsVIND0000200
p1639
g2
(g3
g4
Ntp1640
Rp1641
(dp1642
g8
g9
sg10
F20.0
sg11
VKOSI
p1643
sg13
I2015
sg14
g15
sg16
g17
sg18
g19
sg20
g9
sg21
g1639
sg22
F0.0
sg23
g2
(g24
g4
Ntp1644
Rp1645
(dp1646
g28
F0.0
sg29
g30
sg31
F0.0
sbsg32
g33
((lp1647
g49
atp1648
Rp1649
sg38
g9
sg39
I2015
sbsVIND0000203
p1650
g2
(g3
g4
Ntp1651
Rp1652
(dp1653
g8
g9
sg10
F77.65
sg11
VKOTLA
p1654
sg13
I2015
sg14
g15
sg16
g17
sg18
g19
sg20
g9
sg21
g1650
sg22
F428.1684
sg23
g2
(g24
g4
Ntp1655
Rp1656
(dp1657
g28
F0.0
sg29
g30
sg31
F0.0
sbsg32
g33
((lp1658
g49
atp1659
Rp1660
sg38
g9
sg39
I2015
sbsVIND0000202
p1661
g2
(g3
g4
Ntp1662
Rp1663
(dp1664
g8
g9
sg10
F400.0
sg11
VKOTESHWAR
p1665
sg13
I2015
sg14
g15
sg16
g17
sg18
g19
sg20
g9
sg21
g1661
sg22
F1204.11915
sg23
g2
(g24
g4
Ntp1666
Rp1667
(dp1668
g28
F0.0
sg29
g30
sg31
F0.0
sbsg32
g33
((lp1669
g49
atp1670
Rp1671
sg38
g9
sg39
I2015
sbsVIND0000205
p1672
g2
(g3
g4
Ntp1673
Rp1674
(dp1675
g8
g9
sg10
F1956.0
sg11
VKOYNA COMPLEX
p1676
sg13
I2015
sg14
g15
sg16
g17
sg18
g19
sg20
g9
sg21
g1672
sg22
F3036.541
sg23
g2
(g24
g4
Ntp1677
Rp1678
(dp1679
g28
F0.0
sg29
g30
sg31
F0.0
sbsg32
g33
((lp1680
g49
atp1681
Rp1682
sg38
g9
sg39
I2015
sbsVIND0000204
p1683
g2
(g3
g4
Ntp1684
Rp1685
(dp1686
g8
g9
sg10
F107.0
sg11
VKOVILKALAPPAL
p1687
sg13
I2015
sg14
g15
sg16
g17
sg18
g19
sg20
g9
sg21
g1683
sg22
F373.2247
sg23
g2
(g24
g4
Ntp1688
Rp1689
(dp1690
g28
F0.0
sg29
g30
sg31
F0.0
sbsg32
g33
((lp1691
g35
atp1692
Rp1693
sg38
g9
sg39
I2015
sbsVIND0000207
p1694
g2
(g3
g4
Ntp1695
Rp1696
(dp1697
g8
g9
sg10
F555.0
sg11
VKUNDAH I-V
p1698
sg13
I2015
sg14
g15
sg16
g17
sg18
g19
sg20
g9
sg21
g1694
sg22
F1542.9166500000001
sg23
g2
(g24
g4
Ntp1699
Rp1700
(dp1701
g28
F0.0
sg29
g30
sg31
F0.0
sbsg32
g33
((lp1702
g49
atp1703
Rp1704
sg38
g9
sg39
I2015
sbsVIND0000206
p1705
g2
(g3
g4
Ntp1706
Rp1707
(dp1708
g8
g9
sg10
F30.0
sg11
VKULHAL
p1709
sg13
I2015
sg14
g15
sg16
g17
sg18
g19
sg20
g9
sg21
g1705
sg22
F155.3792
sg23
g2
(g24
g4
Ntp1710
Rp1711
(dp1712
g28
F0.0
sg29
g30
sg31
F0.0
sbsg32
g33
((lp1713
g49
atp1714
Rp1715
sg38
g9
sg39
I2015
sbsVIND0000209
p1716
g2
(g3
g4
Ntp1717
Rp1718
(dp1719
g8
g9
sg10
F90.0
sg11
VKUNDARKI TPP
p1720
sg13
I2015
sg14
g15
sg16
g17
sg18
g19
sg20
g9
sg21
g1716
sg22
F483.043
sg23
g2
(g24
g4
Ntp1721
Rp1722
(dp1723
g28
F0.0
sg29
g30
sg31
F0.0
sbsg32
g33
((lp1724
g61
ag62
atp1725
Rp1726
sg38
g9
sg39
I2015
sbsVIND0000208
p1727
g2
(g3
g4
Ntp1728
Rp1729
(dp1730
g8
g9
sg10
F1000.0
sg11
VKUNDANKULAM
p1731
sg13
I2015
sg14
g15
sg16
g17
sg18
g19
sg20
g9
sg21
g1727
sg22
F3875.32315
sg23
g2
(g24
g4
Ntp1732
Rp1733
(dp1734
g28
F0.0
sg29
g30
sg31
F0.0
sbsg32
g33
((lp1735
g690
atp1736
Rp1737
sg38
g9
sg39
I2015
sbsVIND0000377
p1738
g2
(g3
g4
Ntp1739
Rp1740
(dp1741
g8
g9
sg10
F980.0
sg11
VSANTALDIH
p1742
sg13
I2015
sg14
g15
sg16
g17
sg18
g19
sg20
g9
sg21
g1738
sg22
F3125.74
sg23
g2
(g24
g4
Ntp1743
Rp1744
(dp1745
g28
F0.0
sg29
g30
sg31
F0.0
sbsg32
g33
((lp1746
g61
ag62
atp1747
Rp1748
sg38
g9
sg39
I2015
sbsVIND0000376
p1749
g2
(g3
g4
Ntp1750
Rp1751
(dp1752
g8
g9
sg10
F1340.0
sg11
VSANJAY GANDHI
p1753
sg13
I2015
sg14
g15
sg16
g17
sg18
g19
sg20
g9
sg21
g1749
sg22
F6229.793
sg23
g2
(g24
g4
Ntp1754
Rp1755
(dp1756
g28
F0.0
sg29
g30
sg31
F0.0
sbsg32
g33
((lp1757
g61
ag62
atp1758
Rp1759
sg38
g9
sg39
I2015
sbsVIND0000326
p1760
g2
(g3
g4
Ntp1761
Rp1762
(dp1763
g8
g9
sg10
F32.0
sg11
VPORINGALKUTTU
p1764
sg13
I2015
sg14
g15
sg16
g17
sg18
g19
sg20
g9
sg21
g1760
sg22
F150.2649
sg23
g2
(g24
g4
Ntp1765
Rp1766
(dp1767
g28
F0.0
sg29
g30
sg31
F0.0
sbsg32
g33
((lp1768
g49
atp1769
Rp1770
sg38
g9
sg39
I2015
sbsVIND0000327
p1771
g2
(g3
g4
Ntp1772
Rp1773
(dp1774
g8
g9
sg10
F16.0
sg11
VPORINGALKUTTU L
p1775
sg13
I2015
sg14
g15
sg16
g17
sg18
g19
sg20
g9
sg21
g1771
sg22
F0.0
sg23
g2
(g24
g4
Ntp1776
Rp1777
(dp1778
g28
F0.0
sg29
g30
sg31
F0.0
sbsg32
g33
((lp1779
g49
atp1780
Rp1781
sg38
g9
sg39
I2015
sbsVIND0000453
p1782
g2
(g3
g4
Ntp1783
Rp1784
(dp1785
g8
g9
sg10
F5.0
sg11
VUKAI LBC
p1786
sg13
I2015
sg14
g15
sg16
g17
sg18
g19
sg20
g9
sg21
g1782
sg22
F0.0
sg23
g2
(g24
g4
Ntp1787
Rp1788
(dp1789
g28
F0.0
sg29
g30
sg31
F0.0
sbsg32
g33
((lp1790
g49
atp1791
Rp1792
sg38
g9
sg39
I2015
sbsVIND0000335
p1793
g2
(g3
g4
Ntp1794
Rp1795
(dp1796
g8
g9
sg10
F172.0
sg11
VR.P.SAGAR
p1797
sg13
I2015
sg14
g15
sg16
g17
sg18
g19
sg20
g9
sg21
g1793
sg22
F379.41339999999997
sg23
g2
(g24
g4
Ntp1798
Rp1799
(dp1800
g28
F0.0
sg29
g30
sg31
F0.0
sbsg32
g33
((lp1801
g49
atp1802
Rp1803
sg38
g9
sg39
I2015
sbsVIND0000334
p1804
g2
(g3
g4
Ntp1805
Rp1806
(dp1807
g8
g9
sg10
F1180.0
sg11
VR.A.P.S.
p1808
sg13
I2015
sg14
g15
sg16
g17
sg18
g19
sg20
g9
sg21
g1804
sg22
F6945.0
sg23
g2
(g24
g4
Ntp1809
Rp1810
(dp1811
g28
F0.0
sg29
g30
sg31
F0.0
sbsg32
g33
((lp1812
g690
atp1813
Rp1814
sg38
g9
sg39
I2015
sbsVIND0000337
p1815
g2
(g3
g4
Ntp1816
Rp1817
(dp1818
g8
g9
sg10
F2600.0
sg11
VR_GUNDEM STPS
p1819
sg13
I2015
sg14
g15
sg16
g17
sg18
g19
sg20
g9
sg21
g1815
sg22
F19224.0
sg23
g2
(g24
g4
Ntp1820
Rp1821
(dp1822
g28
F0.0
sg29
g30
sg31
F0.0
sbsg32
g33
((lp1823
g61
ag62
atp1824
Rp1825
sg38
g9
sg39
I2015
sbsVIND0000336
p1826
g2
(g3
g4
Ntp1827
Rp1828
(dp1829
g8
g9
sg10
F62.5
sg11
VR_GUNDEM - B
p1830
sg13
I2015
sg14
g15
sg16
g17
sg18
g19
sg20
g9
sg21
g1826
sg22
F173.1111
sg23
g2
(g24
g4
Ntp1831
Rp1832
(dp1833
g28
F0.0
sg29
g30
sg31
F0.0
sbsg32
g33
((lp1834
g61
ag62
atp1835
Rp1836
sg38
g9
sg39
I2015
sbsVIND0000331
p1837
g2
(g3
g4
Ntp1838
Rp1839
(dp1840
g8
g9
sg10
F900.0
sg11
VPURULIA PSS
p1841
sg13
I2015
sg14
g15
sg16
g17
sg18
g19
sg20
g9
sg21
g1837
sg22
F1401.80575
sg23
g2
(g24
g4
Ntp1842
Rp1843
(dp1844
g28
F0.0
sg29
g30
sg31
F0.0
sbsg32
g33
((lp1845
g49
atp1846
Rp1847
sg38
g9
sg39
I2015
sbsVIND0000330
p1848
g2
(g3
g4
Ntp1849
Rp1850
(dp1851
g8
g9
sg10
F234.0
sg11
VPRIYADARSHNI JURALA
p1852
sg13
I2015
sg14
g15
sg16
g17
sg18
g19
sg20
g9
sg21
g1848
sg22
F223.52675
sg23
g2
(g24
g4
Ntp1853
Rp1854
(dp1855
g28
F0.0
sg29
g30
sg31
F0.0
sbsg32
g33
((lp1856
g49
atp1857
Rp1858
sg38
g9
sg39
I2015
sbsVIND0000333
p1859
g2
(g3
g4
Ntp1860
Rp1861
(dp1862
g8
g9
sg10
F150.0
sg11
VPYKARA ALIMATE
p1863
sg13
I2015
sg14
g15
sg16
g17
sg18
g19
sg20
g9
sg21
g1859
sg22
F365.19485
sg23
g2
(g24
g4
Ntp1864
Rp1865
(dp1866
g28
F0.0
sg29
g30
sg31
F0.0
sbsg32
g33
((lp1867
g49
atp1868
Rp1869
sg38
g9
sg39
I2015
sbsVIND0000332
p1870
g2
(g3
g4
Ntp1871
Rp1872
(dp1873
g8
g9
sg10
F59.2
sg11
VPYKARA
p1874
sg13
I2015
sg14
g15
sg16
g17
sg18
g19
sg20
g9
sg21
g1870
sg22
F38.805
sg23
g2
(g24
g4
Ntp1875
Rp1876
(dp1877
g28
F0.0
sg29
g30
sg31
F0.0
sbsg32
g33
((lp1878
g49
atp1879
Rp1880
sg38
g9
sg39
I2015
sbsVIND0000339
p1881
g2
(g3
g4
Ntp1882
Rp1883
(dp1884
g8
g9
sg10
F600.0
sg11
VRAGHUNATHPUR TPP PH-I
p1885
sg13
I2015
sg14
g15
sg16
g17
sg18
g19
sg20
g9
sg21
g1881
sg22
F11.472449999999998
sg23
g2
(g24
g4
Ntp1886
Rp1887
(dp1888
g28
F0.0
sg29
g30
sg31
F0.0
sbsg32
g33
((lp1889
g61
ag62
atp1890
Rp1891
sg38
g9
sg39
I2015
sbsVIND0000338
p1892
g2
(g3
g4
Ntp1893
Rp1894
(dp1895
g8
g9
sg10
F4.8
sg11
VRADHANAGRI
p1896
sg13
I2015
sg14
g15
sg16
g17
sg18
g19
sg20
g9
sg21
g1892
sg22
F0.0
sg23
g2
(g24
g4
Ntp1897
Rp1898
(dp1899
g28
F0.0
sg29
g30
sg31
F0.0
sbsg32
g33
((lp1900
g49
atp1901
Rp1902
sg38
g9
sg39
I2015
sbsVIND0000319
p1903
g2
(g3
g4
Ntp1904
Rp1905
(dp1906
g8
g9
sg10
F220.0
sg11
VPEDDAPURAM CCGT(Samalkot)
p1907
sg13
I2015
sg14
g15
sg16
g17
sg18
g19
sg20
g9
sg21
g1903
sg22
F160.8728
sg23
g2
(g24
g4
Ntp1908
Rp1909
(dp1910
g28
F0.0
sg29
g30
sg31
F0.0
sbsg32
g33
((lp1911
g35
atp1912
Rp1913
sg38
g9
sg39
I2015
sbsVIND0000093
p1914
g2
(g3
g4
Ntp1915
Rp1916
(dp1917
g8
g9
sg10
F0.0
sg11
VDHUVARAN
p1918
sg13
I2015
sg14
g15
sg16
g17
sg18
g19
sg20
g9
sg21
g1914
sg22
F0.0
sg23
g2
(g24
g4
Ntp1919
Rp1920
(dp1921
g28
F0.0
sg29
g30
sg31
F0.0
sbsg32
g33
((lp1922
g62
ag35
atp1923
Rp1924
sg38
g9
sg39
I2015
sbsVIND0000029
p1925
g2
(g3
g4
Ntp1926
Rp1927
(dp1928
g8
g9
sg10
F1200.0
sg11
VBARADARHA TPP
p1929
sg13
I2015
sg14
g15
sg16
g17
sg18
g19
sg20
g9
sg21
g1925
sg22
F265.78
sg23
g2
(g24
g4
Ntp1930
Rp1931
(dp1932
g28
F0.0
sg29
g30
sg31
F0.0
sbsg32
g33
((lp1933
g61
ag62
atp1934
Rp1935
sg38
g9
sg39
I2015
sbsVIND0000028
p1936
g2
(g3
g4
Ntp1937
Rp1938
(dp1939
g8
g9
sg10
F20.0
sg11
VBANSAGAR (IV)
p1940
sg13
I2015
sg14
g15
sg16
g17
sg18
g19
sg20
g9
sg21
g1936
sg22
F0.0
sg23
g2
(g24
g4
Ntp1941
Rp1942
(dp1943
g28
F0.0
sg29
g30
sg31
F0.0
sbsg32
g33
((lp1944
g49
atp1945
Rp1946
sg38
g9
sg39
I2015
sbsVIND0000144
p1947
g2
(g3
g4
Ntp1948
Rp1949
(dp1950
g8
g9
sg10
F99.0
sg11
VJ.SAGAR
p1951
sg13
I2015
sg14
g15
sg16
g17
sg18
g19
sg20
g9
sg21
g1947
sg22
F294.68915000000004
sg23
g2
(g24
g4
Ntp1952
Rp1953
(dp1954
g28
F0.0
sg29
g30
sg31
F0.0
sbsg32
g33
((lp1955
g49
atp1956
Rp1957
sg38
g9
sg39
I2015
sbsVIND0000145
p1958
g2
(g3
g4
Ntp1959
Rp1960
(dp1961
g8
g9
sg10
F35.0
sg11
VJALDHAKA I&II
p1962
sg13
I2015
sg14
g15
sg16
g17
sg18
g19
sg20
g9
sg21
g1958
sg22
F108.8729
sg23
g2
(g24
g4
Ntp1963
Rp1964
(dp1965
g28
F0.0
sg29
g30
sg31
F0.0
sbsg32
g33
((lp1966
g49
atp1967
Rp1968
sg38
g9
sg39
I2015
sbsVIND0000142
p1969
g2
(g3
g4
Ntp1970
Rp1971
(dp1972
g8
g9
sg10
F1000.0
sg11
VINDIRA SAGAR
p1973
sg13
I2015
sg14
g15
sg16
g17
sg18
g19
sg20
g9
sg21
g1969
sg22
F2529.1905
sg23
g2
(g24
g4
Ntp1974
Rp1975
(dp1976
g28
F0.0
sg29
g30
sg31
F0.0
sbsg32
g33
((lp1977
g49
atp1978
Rp1979
sg38
g9
sg39
I2015
sbsVIND0000143
p1980
g2
(g3
g4
Ntp1981
Rp1982
(dp1983
g8
g9
sg10
F1500.0
sg11
VINDRA GANDHI STPP
p1984
sg13
I2015
sg14
g15
sg16
g17
sg18
g19
sg20
g9
sg21
g1980
sg22
F6587.527
sg23
g2
(g24
g4
Ntp1985
Rp1986
(dp1987
g28
F0.0
sg29
g30
sg31
F0.0
sbsg32
g33
((lp1988
g61
ag62
atp1989
Rp1990
sg38
g9
sg39
I2015
sbsVIND0000140
p1991
g2
(g3
g4
Ntp1992
Rp1993
(dp1994
g8
g9
sg10
F780.0
sg11
VIDUKKI
p1995
sg13
I2015
sg14
g15
sg16
g17
sg18
g19
sg20
g9
sg21
g1991
sg22
F2481.729
sg23
g2
(g24
g4
Ntp1996
Rp1997
(dp1998
g28
F0.0
sg29
g30
sg31
F0.0
sbsg32
g33
((lp1999
g49
atp2000
Rp2001
sg38
g9
sg39
I2015
sbsVIND0000141
p2002
g2
(g3
g4
Ntp2003
Rp2004
(dp2005
g8
g9
sg10
F270.0
sg11
VIEPL  BELA TPP
p2006
sg13
I2015
sg14
g15
sg16
g17
sg18
g19
sg20
g9
sg21
g2002
sg22
F0.0
sg23
g2
(g24
g4
Ntp2007
Rp2008
(dp2009
g28
F0.0
sg29
g30
sg31
F0.0
sbsg32
g33
((lp2010
g61
ag62
atp2011
Rp2012
sg38
g9
sg39
I2015
sbsVIND0000021
p2013
g2
(g3
g4
Ntp2014
Rp2015
(dp2016
g8
g9
sg10
F1050.0
sg11
VBAKRESWAR
p2017
sg13
I2015
sg14
g15
sg16
g17
sg18
g19
sg20
g9
sg21
g2013
sg22
F7235.281
sg23
g2
(g24
g4
Ntp2018
Rp2019
(dp2020
g28
F0.0
sg29
g30
sg31
F0.0
sbsg32
g33
((lp2021
g61
ag62
atp2022
Rp2023
sg38
g9
sg39
I2015
sbsVIND0000020
p2024
g2
(g3
g4
Ntp2025
Rp2026
(dp2027
g8
g9
sg10
F198.0
sg11
VBAIRA SIUL
p2028
sg13
I2015
sg14
g15
sg16
g17
sg18
g19
sg20
g9
sg21
g2024
sg22
F792.68665
sg23
g2
(g24
g4
Ntp2029
Rp2030
(dp2031
g28
F0.0
sg29
g30
sg31
F0.0
sbsg32
g33
((lp2032
g49
atp2033
Rp2034
sg38
g9
sg39
I2015
sbsVIND0000023
p2035
g2
(g3
g4
Ntp2036
Rp2037
(dp2038
g8
g9
sg10
F450.0
sg11
VBANDEL
p2039
sg13
I2015
sg14
g15
sg16
g17
sg18
g19
sg20
g9
sg21
g2035
sg22
F946.141
sg23
g2
(g24
g4
Ntp2040
Rp2041
(dp2042
g28
F0.0
sg29
g30
sg31
F0.0
sbsg32
g33
((lp2043
g61
ag62
atp2044
Rp2045
sg38
g9
sg39
I2015
sbsVIND0000022
p2046
g2
(g3
g4
Ntp2047
Rp2048
(dp2049
g8
g9
sg10
F510.0
sg11
VBALIMELA
p2050
sg13
I2015
sg14
g15
sg16
g17
sg18
g19
sg20
g9
sg21
g2046
sg22
F1332.53385
sg23
g2
(g24
g4
Ntp2051
Rp2052
(dp2053
g28
F0.0
sg29
g30
sg31
F0.0
sbsg32
g33
((lp2054
g49
atp2055
Rp2056
sg38
g9
sg39
I2015
sbsVIND0000025
p2057
g2
(g3
g4
Ntp2058
Rp2059
(dp2060
g8
g9
sg10
F315.0
sg11
VBANSAGAR (I)
p2061
sg13
I2015
sg14
g15
sg16
g17
sg18
g19
sg20
g9
sg21
g2057
sg22
F1075.9532
sg23
g2
(g24
g4
Ntp2062
Rp2063
(dp2064
g28
F0.0
sg29
g30
sg31
F0.0
sbsg32
g33
((lp2065
g49
atp2066
Rp2067
sg38
g9
sg39
I2015
sbsVIND0000024
p2068
g2
(g3
g4
Ntp2069
Rp2070
(dp2071
g8
g9
sg10
F12.0
sg11
VBANER
p2072
sg13
I2015
sg14
g15
sg16
g17
sg18
g19
sg20
g9
sg21
g2068
sg22
F0.0
sg23
g2
(g24
g4
Ntp2073
Rp2074
(dp2075
g28
F0.0
sg29
g30
sg31
F0.0
sbsg32
g33
((lp2076
g49
atp2077
Rp2078
sg38
g9
sg39
I2015
sbsVIND0000027
p2079
g2
(g3
g4
Ntp2080
Rp2081
(dp2082
g8
g9
sg10
F60.0
sg11
VBANSAGAR (III)
p2083
sg13
I2015
sg14
g15
sg16
g17
sg18
g19
sg20
g9
sg21
g2079
sg22
F120.44475
sg23
g2
(g24
g4
Ntp2084
Rp2085
(dp2086
g28
F0.0
sg29
g30
sg31
F0.0
sbsg32
g33
((lp2087
g49
atp2088
Rp2089
sg38
g9
sg39
I2015
sbsVIND0000149
p2090
g2
(g3
g4
Ntp2091
Rp2092
(dp2093
g8
g9
sg10
F427.5
sg11
VJOJBERA
p2094
sg13
I2015
sg14
g15
sg16
g17
sg18
g19
sg20
g9
sg21
g2090
sg22
F2692.7
sg23
g2
(g24
g4
Ntp2095
Rp2096
(dp2097
g28
F0.0
sg29
g30
sg31
F0.0
sbsg32
g33
((lp2098
g61
ag62
atp2099
Rp2100
sg38
g9
sg39
I2015
sbsVIND0000098
p2101
g2
(g3
g4
Ntp2102
Rp2103
(dp2104
g8
g9
sg10
F75.0
sg11
VDOYANG
p2105
sg13
I2015
sg14
g15
sg16
g17
sg18
g19
sg20
g9
sg21
g2101
sg22
F164.32425
sg23
g2
(g24
g4
Ntp2106
Rp2107
(dp2108
g28
F0.0
sg29
g30
sg31
F0.0
sbsg32
g33
((lp2109
g49
atp2110
Rp2111
sg38
g9
sg39
I2015
sbsVIND0000099
p2112
g2
(g3
g4
Ntp2113
Rp2114
(dp2115
g8
g9
sg10
F24.0
sg11
VDUDH GANGA
p2116
sg13
I2015
sg14
g15
sg16
g17
sg18
g19
sg20
g9
sg21
g2112
sg22
F0.0
sg23
g2
(g24
g4
Ntp2117
Rp2118
(dp2119
g28
F0.0
sg29
g30
sg31
F0.0
sbsg32
g33
((lp2120
g49
atp2121
Rp2122
sg38
g9
sg39
I2015
sbsVIND0000410
p2123
g2
(g3
g4
Ntp2124
Rp2125
(dp2126
g8
g9
sg10
F4.0
sg11
VSURAT GARH
p2127
sg13
I2015
sg14
g15
sg16
g17
sg18
g19
sg20
g9
sg21
g2123
sg22
F0.0
sg23
g2
(g24
g4
Ntp2128
Rp2129
(dp2130
g28
F0.0
sg29
g30
sg31
F0.0
sbsg32
g33
((lp2131
g49
atp2132
Rp2133
sg38
g9
sg39
I2015
sbsVIND0000411
p2134
g2
(g3
g4
Ntp2135
Rp2136
(dp2137
g8
g9
sg10
F500.0
sg11
VSURAT LIG.
p2138
sg13
I2015
sg14
g15
sg16
g17
sg18
g19
sg20
g9
sg21
g2134
sg22
F2866.784
sg23
g2
(g24
g4
Ntp2139
Rp2140
(dp2141
g28
F0.0
sg29
g30
sg31
F0.0
sbsg32
g33
((lp2142
g61
ag62
atp2143
Rp2144
sg38
g9
sg39
I2015
sbsVIND0000412
p2145
g2
(g3
g4
Ntp2146
Rp2147
(dp2148
g8
g9
sg10
F1500.0
sg11
VSURATGARH
p2149
sg13
I2015
sg14
g15
sg16
g17
sg18
g19
sg20
g9
sg21
g2145
sg22
F9155.18
sg23
g2
(g24
g4
Ntp2150
Rp2151
(dp2152
g28
F0.0
sg29
g30
sg31
F0.0
sbsg32
g33
((lp2153
g61
ag62
atp2154
Rp2155
sg38
g9
sg39
I2015
sbsVIND0000413
p2156
g2
(g3
g4
Ntp2157
Rp2158
(dp2159
g8
g9
sg10
F35.0
sg11
VSURULIYAR
p2160
sg13
I2015
sg14
g15
sg16
g17
sg18
g19
sg20
g9
sg21
g2156
sg22
F102.91285
sg23
g2
(g24
g4
Ntp2161
Rp2162
(dp2163
g28
F0.0
sg29
g30
sg31
F0.0
sbsg32
g33
((lp2164
g49
atp2165
Rp2166
sg38
g9
sg39
I2015
sbsVIND0000414
p2167
g2
(g3
g4
Ntp2168
Rp2169
(dp2170
g8
g9
sg10
F6.0
sg11
VSURYA
p2171
sg13
I2015
sg14
g15
sg16
g17
sg18
g19
sg20
g9
sg21
g2167
sg22
F0.0
sg23
g2
(g24
g4
Ntp2172
Rp2173
(dp2174
g28
F0.0
sg29
g30
sg31
F0.0
sbsg32
g33
((lp2175
g49
atp2176
Rp2177
sg38
g9
sg39
I2015
sbsVIND0000415
p2178
g2
(g3
g4
Ntp2179
Rp2180
(dp2181
g8
g9
sg10
F63.0
sg11
VSVPL
p2182
sg13
I2015
sg14
g15
sg16
g17
sg18
g19
sg20
g9
sg21
g2178
sg22
F0.0
sg23
g2
(g24
g4
Ntp2183
Rp2184
(dp2185
g28
F0.0
sg29
g30
sg31
F0.0
sbsg32
g33
((lp2186
g61
ag62
atp2187
Rp2188
sg38
g9
sg39
I2015
sbsVIND0000416
p2189
g2
(g3
g4
Ntp2190
Rp2191
(dp2192
g8
g9
sg10
F25.0
sg11
VSWASTIK KORBA
p2193
sg13
I2015
sg14
g15
sg16
g17
sg18
g19
sg20
g9
sg21
g2189
sg22
F0.0
sg23
g2
(g24
g4
Ntp2194
Rp2195
(dp2196
g28
F0.0
sg29
g30
sg31
F0.0
sbsg32
g33
((lp2197
g61
ag62
atp2198
Rp2199
sg38
g9
sg39
I2015
sbsVIND0000417
p2200
g2
(g3
g4
Ntp2201
Rp2202
(dp2203
g8
g9
sg10
F36.0
sg11
VT.B. DAM
p2204
sg13
I2015
sg14
g15
sg16
g17
sg18
g19
sg20
g9
sg21
g2200
sg22
F181.68699999999998
sg23
g2
(g24
g4
Ntp2205
Rp2206
(dp2207
g28
F0.0
sg29
g30
sg31
F0.0
sbsg32
g33
((lp2208
g49
atp2209
Rp2210
sg38
g9
sg39
I2015
sbsVIND0000418
p2211
g2
(g3
g4
Ntp2212
Rp2213
(dp2214
g8
g9
sg10
F4.5
sg11
VTAGO
p2215
sg13
I2015
sg14
g15
sg16
g17
sg18
g19
sg20
g9
sg21
g2211
sg22
F0.0
sg23
g2
(g24
g4
Ntp2216
Rp2217
(dp2218
g28
F0.0
sg29
g30
sg31
F0.0
sbsg32
g33
((lp2219
g49
atp2220
Rp2221
sg38
g9
sg39
I2015
sbsVIND0000419
p2222
g2
(g3
g4
Ntp2223
Rp2224
(dp2225
g8
g9
sg10
F460.0
sg11
VTALCHER
p2226
sg13
I2015
sg14
g15
sg16
g17
sg18
g19
sg20
g9
sg21
g2222
sg22
F3382.0
sg23
g2
(g24
g4
Ntp2227
Rp2228
(dp2229
g28
F0.0
sg29
g30
sg31
F0.0
sbsg32
g33
((lp2230
g61
ag62
atp2231
Rp2232
sg38
g9
sg39
I2015
sbsVIND0000159
p2233
g2
(g3
g4
Ntp2234
Rp2235
(dp2236
g8
g9
sg10
F500.0
sg11
VKAKATIYA TPP
p2237
sg13
I2015
sg14
g15
sg16
g17
sg18
g19
sg20
g9
sg21
g2233
sg22
F4106.29
sg23
g2
(g24
g4
Ntp2238
Rp2239
(dp2240
g28
F0.0
sg29
g30
sg31
F0.0
sbsg32
g33
((lp2241
g61
ag62
atp2242
Rp2243
sg38
g9
sg39
I2015
sbsVIND0000249
p2244
g2
(g3
g4
Ntp2245
Rp2246
(dp2247
g8
g9
sg10
F1000.0
sg11
VMEJIA TPS EXT
p2248
sg13
I2015
sg14
g15
sg16
g17
sg18
g19
sg20
g9
sg21
g2244
sg22
F5111.95
sg23
g2
(g24
g4
Ntp2249
Rp2250
(dp2251
g28
F0.0
sg29
g30
sg31
F0.0
sbsg32
g33
((lp2252
g61
ag62
atp2253
Rp2254
sg38
g9
sg39
I2015
sbsVIND0000248
p2255
g2
(g3
g4
Ntp2256
Rp2257
(dp2258
g8
g9
sg10
F1340.0
sg11
VMEJIA
p2259
sg13
I2015
sg14
g15
sg16
g17
sg18
g19
sg20
g9
sg21
g2255
sg22
F5521.9
sg23
g2
(g24
g4
Ntp2260
Rp2261
(dp2262
g28
F0.0
sg29
g30
sg31
F0.0
sbsg32
g33
((lp2263
g61
ag62
atp2264
Rp2265
sg38
g9
sg39
I2015
sbsVIND0000245
p2266
g2
(g3
g4
Ntp2267
Rp2268
(dp2269
g8
g9
sg10
F90.0
sg11
VMAQSOODPUR  IPP
p2270
sg13
I2015
sg14
g15
sg16
g17
sg18
g19
sg20
g9
sg21
g2266
sg22
F473.91
sg23
g2
(g24
g4
Ntp2271
Rp2272
(dp2273
g28
F0.0
sg29
g30
sg31
F0.0
sbsg32
g33
((lp2274
g61
ag62
atp2275
Rp2276
sg38
g9
sg39
I2015
sbsVIND0000244
p2277
g2
(g3
g4
Ntp2278
Rp2279
(dp2280
g8
g9
sg10
F12.0
sg11
VMANIYAR
p2281
sg13
I2015
sg14
g15
sg16
g17
sg18
g19
sg20
g9
sg21
g2277
sg22
F0.0
sg23
g2
(g24
g4
Ntp2282
Rp2283
(dp2284
g28
F0.0
sg29
g30
sg31
F0.0
sbsg32
g33
((lp2285
g49
atp2286
Rp2287
sg38
g9
sg39
I2015
sbsVIND0000247
p2288
g2
(g3
g4
Ntp2289
Rp2290
(dp2291
g8
g9
sg10
F30.6
sg11
VMATATILLA
p2292
sg13
I2015
sg14
g15
sg16
g17
sg18
g19
sg20
g9
sg21
g2288
sg22
F80.13730000000001
sg23
g2
(g24
g4
Ntp2293
Rp2294
(dp2295
g28
F0.0
sg29
g30
sg31
F0.0
sbsg32
g33
((lp2296
g49
atp2297
Rp2298
sg38
g9
sg39
I2015
sbsVIND0000246
p2299
g2
(g3
g4
Ntp2300
Rp2301
(dp2302
g8
g9
sg10
F500.0
sg11
VMARWA TPP
p2303
sg13
I2015
sg14
g15
sg16
g17
sg18
g19
sg20
g9
sg21
g2299
sg22
F0.0
sg23
g2
(g24
g4
Ntp2304
Rp2305
(dp2306
g28
F0.0
sg29
g30
sg31
F0.0
sbsg32
g33
((lp2307
g61
ag62
atp2308
Rp2309
sg38
g9
sg39
I2015
sbsVIND0000241
p2310
g2
(g3
g4
Ntp2311
Rp2312
(dp2313
g8
g9
sg10
F394.0
sg11
VMANERI BHALI
p2314
sg13
I2015
sg14
g15
sg16
g17
sg18
g19
sg20
g9
sg21
g2310
sg22
F1261.7196999999999
sg23
g2
(g24
g4
Ntp2315
Rp2316
(dp2317
g28
F0.0
sg29
g30
sg31
F0.0
sbsg32
g33
((lp2318
g49
atp2319
Rp2320
sg38
g9
sg39
I2015
sbsVIND0000240
p2321
g2
(g3
g4
Ntp2322
Rp2323
(dp2324
g8
g9
sg10
F9.0
sg11
VMALLARPUR
p2325
sg13
I2015
sg14
g15
sg16
g17
sg18
g19
sg20
g9
sg21
g2321
sg22
F0.0
sg23
g2
(g24
g4
Ntp2326
Rp2327
(dp2328
g28
F0.0
sg29
g30
sg31
F0.0
sbsg32
g33
((lp2329
g49
atp2330
Rp2331
sg38
g9
sg39
I2015
sbsVIND0000243
p2332
g2
(g3
g4
Ntp2333
Rp2334
(dp2335
g8
g9
sg10
F6.0
sg11
VMANIKDOH
p2336
sg13
I2015
sg14
g15
sg16
g17
sg18
g19
sg20
g9
sg21
g2332
sg22
F0.0
sg23
g2
(g24
g4
Ntp2337
Rp2338
(dp2339
g28
F0.0
sg29
g30
sg31
F0.0
sbsg32
g33
((lp2340
g49
atp2341
Rp2342
sg38
g9
sg39
I2015
sbsVIND0000242
p2343
g2
(g3
g4
Ntp2344
Rp2345
(dp2346
g8
g9
sg10
F9.0
sg11
VMANI DPH
p2347
sg13
I2015
sg14
g15
sg16
g17
sg18
g19
sg20
g9
sg21
g2343
sg22
F0.0
sg23
g2
(g24
g4
Ntp2348
Rp2349
(dp2350
g28
F0.0
sg29
g30
sg31
F0.0
sbsg32
g33
((lp2351
g49
atp2352
Rp2353
sg38
g9
sg39
I2015
sbsVIND0000489
p2354
g2
(g3
g4
Ntp2355
Rp2356
(dp2357
g8
g9
sg10
F127.92
sg11
VYELHANKA (DG)
p2358
sg13
I2015
sg14
g15
sg16
g17
sg18
g19
sg20
g9
sg21
g2354
sg22
F0.0
sg23
g2
(g24
g4
Ntp2359
Rp2360
(dp2361
g28
F0.0
sg29
g30
sg31
F0.0
sbsg32
g33
((lp2362
g62
atp2363
Rp2364
sg38
g9
sg39
I2015
sbsVIND0000488
p2365
g2
(g3
g4
Ntp2366
Rp2367
(dp2368
g8
g9
sg10
F600.0
sg11
VYAMUNANAGAR TPP
p2369
sg13
I2015
sg14
g15
sg16
g17
sg18
g19
sg20
g9
sg21
g2365
sg22
F3194.35982
sg23
g2
(g24
g4
Ntp2370
Rp2371
(dp2372
g28
F0.0
sg29
g30
sg31
F0.0
sbsg32
g33
((lp2373
g61
ag62
atp2374
Rp2375
sg38
g9
sg39
I2015
sbsVIND0000487
p2376
g2
(g3
g4
Ntp2377
Rp2378
(dp2379
g8
g9
sg10
F62.4
sg11
VWY.CANAL A -D
p2380
sg13
I2015
sg14
g15
sg16
g17
sg18
g19
sg20
g9
sg21
g2376
sg22
F184.4531
sg23
g2
(g24
g4
Ntp2381
Rp2382
(dp2383
g28
F0.0
sg29
g30
sg31
F0.0
sbsg32
g33
((lp2384
g49
atp2385
Rp2386
sg38
g9
sg39
I2015
sbsVIND0000486
p2387
g2
(g3
g4
Ntp2388
Rp2389
(dp2390
g8
g9
sg10
F16.0
sg11
VWARNA
p2391
sg13
I2015
sg14
g15
sg16
g17
sg18
g19
sg20
g9
sg21
g2387
sg22
F0.0
sg23
g2
(g24
g4
Ntp2392
Rp2393
(dp2394
g28
F0.0
sg29
g30
sg31
F0.0
sbsg32
g33
((lp2395
g49
atp2396
Rp2397
sg38
g9
sg39
I2015
sbsVIND0000485
p2398
g2
(g3
g4
Ntp2399
Rp2400
(dp2401
g8
g9
sg10
F540.0
sg11
VWARDHA WARORA
p2402
sg13
I2015
sg14
g15
sg16
g17
sg18
g19
sg20
g9
sg21
g2398
sg22
F1045.82
sg23
g2
(g24
g4
Ntp2403
Rp2404
(dp2405
g28
F0.0
sg29
g30
sg31
F0.0
sbsg32
g33
((lp2406
g61
ag62
atp2407
Rp2408
sg38
g9
sg39
I2015
sbsVIND0000484
p2409
g2
(g3
g4
Ntp2410
Rp2411
(dp2412
g8
g9
sg10
F1470.0
sg11
VWANAKBORI
p2413
sg13
I2015
sg14
g15
sg16
g17
sg18
g19
sg20
g9
sg21
g2409
sg22
F6753.87
sg23
g2
(g24
g4
Ntp2414
Rp2415
(dp2416
g28
F0.0
sg29
g30
sg31
F0.0
sbsg32
g33
((lp2417
g61
ag62
atp2418
Rp2419
sg38
g9
sg39
I2015
sbsVIND0000483
p2420
g2
(g3
g4
Ntp2421
Rp2422
(dp2423
g8
g9
sg10
F400.0
sg11
VVISHNU PRAYAG
p2424
sg13
I2015
sg14
g15
sg16
g17
sg18
g19
sg20
g9
sg21
g2420
sg22
F1806.8603
sg23
g2
(g24
g4
Ntp2425
Rp2426
(dp2427
g28
F0.0
sg29
g30
sg31
F0.0
sbsg32
g33
((lp2428
g49
atp2429
Rp2430
sg38
g9
sg39
I2015
sbsVIND0000482
p2431
g2
(g3
g4
Ntp2432
Rp2433
(dp2434
g8
g9
sg10
F9.0
sg11
VVIR
p2435
sg13
I2015
sg14
g15
sg16
g17
sg18
g19
sg20
g9
sg21
g2431
sg22
F0.0
sg23
g2
(g24
g4
Ntp2436
Rp2437
(dp2438
g28
F0.0
sg29
g30
sg31
F0.0
sbsg32
g33
((lp2439
g49
atp2440
Rp2441
sg38
g9
sg39
I2015
sbsVIND0000481
p2442
g2
(g3
g4
Ntp2443
Rp2444
(dp2445
g8
g9
sg10
F4260.0
sg11
VVINDH_CHAL STPS
p2446
sg13
I2015
sg14
g15
sg16
g17
sg18
g19
sg20
g9
sg21
g2442
sg22
F27594.0
sg23
g2
(g24
g4
Ntp2447
Rp2448
(dp2449
g28
F0.0
sg29
g30
sg31
F0.0
sbsg32
g33
((lp2450
g61
ag62
atp2451
Rp2452
sg38
g9
sg39
I2015
sbsVIND0000480
p2453
g2
(g3
g4
Ntp2454
Rp2455
(dp2456
g8
g9
sg10
F272.3
sg11
VVIJESWARAN GT
p2457
sg13
I2015
sg14
g15
sg16
g17
sg18
g19
sg20
g9
sg21
g2453
sg22
F638.9885
sg23
g2
(g24
g4
Ntp2458
Rp2459
(dp2460
g28
F0.0
sg29
g30
sg31
F0.0
sbsg32
g33
((lp2461
g35
atp2462
Rp2463
sg38
g9
sg39
I2015
sbsVIND0000389
p2464
g2
(g3
g4
Ntp2465
Rp2466
(dp2467
g8
g9
sg10
F17.2
sg11
VSHIMSAPURA
p2468
sg13
I2015
sg14
g15
sg16
g17
sg18
g19
sg20
g9
sg21
g2464
sg22
F0.0
sg23
g2
(g24
g4
Ntp2469
Rp2470
(dp2471
g28
F0.0
sg29
g30
sg31
F0.0
sbsg32
g33
((lp2472
g49
atp2473
Rp2474
sg38
g9
sg39
I2015
sbsVIND0000182
p2475
g2
(g3
g4
Ntp2476
Rp2477
(dp2478
g8
g9
sg10
F50.0
sg11
VKHANDONG
p2479
sg13
I2015
sg14
g15
sg16
g17
sg18
g19
sg20
g9
sg21
g2475
sg22
F87.4207
sg23
g2
(g24
g4
Ntp2480
Rp2481
(dp2482
g28
F0.0
sg29
g30
sg31
F0.0
sbsg32
g33
((lp2483
g49
atp2484
Rp2485
sg38
g9
sg39
I2015
sbsVIND0000183
p2486
g2
(g3
g4
Ntp2487
Rp2488
(dp2489
g8
g9
sg10
F72.0
sg11
VKHARA
p2490
sg13
I2015
sg14
g15
sg16
g17
sg18
g19
sg20
g9
sg21
g2486
sg22
F362.10040000000004
sg23
g2
(g24
g4
Ntp2491
Rp2492
(dp2493
g28
F0.0
sg29
g30
sg31
F0.0
sbsg32
g33
((lp2494
g49
atp2495
Rp2496
sg38
g9
sg39
I2015
sbsVIND0000180
p2497
g2
(g3
g4
Ntp2498
Rp2499
(dp2500
g8
g9
sg10
F16.0
sg11
VKHADAVASLA I&II
p2501
sg13
I2015
sg14
g15
sg16
g17
sg18
g19
sg20
g9
sg21
g2497
sg22
F0.0
sg23
g2
(g24
g4
Ntp2502
Rp2503
(dp2504
g28
F0.0
sg29
g30
sg31
F0.0
sbsg32
g33
((lp2505
g49
atp2506
Rp2507
sg38
g9
sg39
I2015
sbsVIND0000181
p2508
g2
(g3
g4
Ntp2509
Rp2510
(dp2511
g8
g9
sg10
F90.0
sg11
VKHAMBERKHERA IPP
p2512
sg13
I2015
sg14
g15
sg16
g17
sg18
g19
sg20
g9
sg21
g2508
sg22
F474.37
sg23
g2
(g24
g4
Ntp2513
Rp2514
(dp2515
g28
F0.0
sg29
g30
sg31
F0.0
sbsg32
g33
((lp2516
g61
ag62
atp2517
Rp2518
sg38
g9
sg39
I2015
sbsVIND0000186
p2519
g2
(g3
g4
Ntp2520
Rp2521
(dp2522
g8
g9
sg10
F72.0
sg11
VKHOPOLI
p2523
sg13
I2015
sg14
g15
sg16
g17
sg18
g19
sg20
g9
sg21
g2519
sg22
F302.23125
sg23
g2
(g24
g4
Ntp2524
Rp2525
(dp2526
g28
F0.0
sg29
g30
sg31
F0.0
sbsg32
g33
((lp2527
g49
atp2528
Rp2529
sg38
g9
sg39
I2015
sbsVIND0000187
p2530
g2
(g3
g4
Ntp2531
Rp2532
(dp2533
g8
g9
sg10
F120.0
sg11
VKODASALI
p2534
sg13
I2015
sg14
g15
sg16
g17
sg18
g19
sg20
g9
sg21
g2530
sg22
F383.83119999999997
sg23
g2
(g24
g4
Ntp2535
Rp2536
(dp2537
g28
F0.0
sg29
g30
sg31
F0.0
sbsg32
g33
((lp2538
g49
atp2539
Rp2540
sg38
g9
sg39
I2015
sbsVIND0000184
p2541
g2
(g3
g4
Ntp2542
Rp2543
(dp2544
g8
g9
sg10
F41.4
sg11
VKHATIMA
p2545
sg13
I2015
sg14
g15
sg16
g17
sg18
g19
sg20
g9
sg21
g2541
sg22
F44.9541
sg23
g2
(g24
g4
Ntp2546
Rp2547
(dp2548
g28
F0.0
sg29
g30
sg31
F0.0
sbsg32
g33
((lp2549
g49
atp2550
Rp2551
sg38
g9
sg39
I2015
sbsVIND0000185
p2552
g2
(g3
g4
Ntp2553
Rp2554
(dp2555
g8
g9
sg10
F120.0
sg11
VKHODRI
p2556
sg13
I2015
sg14
g15
sg16
g17
sg18
g19
sg20
g9
sg21
g2552
sg22
F404.95505
sg23
g2
(g24
g4
Ntp2557
Rp2558
(dp2559
g28
F0.0
sg29
g30
sg31
F0.0
sbsg32
g33
((lp2560
g49
atp2561
Rp2562
sg38
g9
sg39
I2015
sbsVIND0000188
p2563
g2
(g3
g4
Ntp2564
Rp2565
(dp2566
g8
g9
sg10
F100.0
sg11
VKODAYAR-I&II
p2567
sg13
I2015
sg14
g15
sg16
g17
sg18
g19
sg20
g9
sg21
g2563
sg22
F201.00990000000002
sg23
g2
(g24
g4
Ntp2568
Rp2569
(dp2570
g28
F0.0
sg29
g30
sg31
F0.0
sbsg32
g33
((lp2571
g49
atp2572
Rp2573
sg38
g9
sg39
I2015
sbsVIND0000189
p2574
g2
(g3
g4
Ntp2575
Rp2576
(dp2577
g8
g9
sg10
F1000.0
sg11
VKODERMA
p2578
sg13
I2015
sg14
g15
sg16
g17
sg18
g19
sg20
g9
sg21
g2574
sg22
F1721.426
sg23
g2
(g24
g4
Ntp2579
Rp2580
(dp2581
g28
F0.0
sg29
g30
sg31
F0.0
sbsg32
g33
((lp2582
g61
ag62
atp2583
Rp2584
sg38
g9
sg39
I2015
sbsVIND0000065
p2585
g2
(g3
g4
Ntp2586
Rp2587
(dp2588
g8
g9
sg10
F600.0
sg11
VBUTIBORI TPP -II
p2589
sg13
I2015
sg14
g15
sg16
g17
sg18
g19
sg20
g9
sg21
g2585
sg22
F3305.9567
sg23
g2
(g24
g4
Ntp2590
Rp2591
(dp2592
g28
F0.0
sg29
g30
sg31
F0.0
sbsg32
g33
((lp2593
g61
ag62
atp2594
Rp2595
sg38
g9
sg39
I2015
sbsVIND0000064
p2596
g2
(g3
g4
Ntp2597
Rp2598
(dp2599
g8
g9
sg10
F70.0
sg11
VBUDHIL
p2600
sg13
I2015
sg14
g15
sg16
g17
sg18
g19
sg20
g9
sg21
g2596
sg22
F234.65085000000002
sg23
g2
(g24
g4
Ntp2601
Rp2602
(dp2603
g28
F0.0
sg29
g30
sg31
F0.0
sbsg32
g33
((lp2604
g49
atp2605
Rp2606
sg38
g9
sg39
I2015
sbsVIND0000067
p2607
g2
(g3
g4
Ntp2608
Rp2609
(dp2610
g8
g9
sg10
F300.0
sg11
VCHAMERA II
p2611
sg13
I2015
sg14
g15
sg16
g17
sg18
g19
sg20
g9
sg21
g2607
sg22
F1491.2164500000001
sg23
g2
(g24
g4
Ntp2612
Rp2613
(dp2614
g28
F0.0
sg29
g30
sg31
F0.0
sbsg32
g33
((lp2615
g49
atp2616
Rp2617
sg38
g9
sg39
I2015
sbsVIND0000066
p2618
g2
(g3
g4
Ntp2619
Rp2620
(dp2621
g8
g9
sg10
F60.0
sg11
VCHAKABURA TPP
p2622
sg13
I2015
sg14
g15
sg16
g17
sg18
g19
sg20
g9
sg21
g2618
sg22
F373.919000361581
sg23
g2
(g24
g4
Ntp2623
Rp2624
(dp2625
g28
F0.0
sg29
g30
sg31
F0.0
sbsg32
g33
((lp2626
g61
ag62
atp2627
Rp2628
sg38
g9
sg39
I2015
sbsVIND0000061
p2629
g2
(g3
g4
Ntp2630
Rp2631
(dp2632
g8
g9
sg10
F106.6
sg11
VBRAMHAPURAM DG
p2633
sg13
I2015
sg14
g15
sg16
g17
sg18
g19
sg20
g9
sg21
g2629
sg22
F8.1158
sg23
g2
(g24
g4
Ntp2634
Rp2635
(dp2636
g28
F0.0
sg29
g30
sg31
F0.0
sbsg32
g33
((lp2637
g62
atp2638
Rp2639
sg38
g9
sg39
I2015
sbsVIND0000060
p2640
g2
(g3
g4
Ntp2641
Rp2642
(dp2643
g8
g9
sg10
F0.0
sg11
VBONGAIGAON
p2644
sg13
I2015
sg14
g15
sg16
g17
sg18
g19
sg20
g9
sg21
g2640
sg22
F0.0
sg23
g2
(g24
g4
Ntp2645
Rp2646
(dp2647
g28
F0.0
sg29
g30
sg31
F0.0
sbsg32
g33
((lp2648
g61
ag62
atp2649
Rp2650
sg38
g9
sg39
I2015
sbsVIND0000063
p2651
g2
(g3
g4
Ntp2652
Rp2653
(dp2654
g8
g9
sg10
F750.0
sg11
VBUDGE BUDGE
p2655
sg13
I2015
sg14
g15
sg16
g17
sg18
g19
sg20
g9
sg21
g2651
sg22
F5371.95
sg23
g2
(g24
g4
Ntp2656
Rp2657
(dp2658
g28
F0.0
sg29
g30
sg31
F0.0
sbsg32
g33
((lp2659
g61
ag62
atp2660
Rp2661
sg38
g9
sg39
I2015
sbsVIND0000062
p2662
g2
(g3
g4
Ntp2663
Rp2664
(dp2665
g8
g9
sg10
F165.0
sg11
VBSES Kerala CCGT
p2666
sg13
I2015
sg14
g15
sg16
g17
sg18
g19
sg20
g9
sg21
g2662
sg22
F145.56
sg23
g2
(g24
g4
Ntp2667
Rp2668
(dp2669
g28
F0.0
sg29
g30
sg31
F0.0
sbsg32
g33
((lp2670
g62
ag35
atp2671
Rp2672
sg38
g9
sg39
I2015
sbsVIND0000344
p2673
g2
(g3
g4
Ntp2674
Rp2675
(dp2676
g8
g9
sg10
F45.0
sg11
VRAJGHAT (MP)
p2677
sg13
I2015
sg14
g15
sg16
g17
sg18
g19
sg20
g9
sg21
g2673
sg22
F82.11735
sg23
g2
(g24
g4
Ntp2678
Rp2679
(dp2680
g28
F0.0
sg29
g30
sg31
F0.0
sbsg32
g33
((lp2681
g49
atp2682
Rp2683
sg38
g9
sg39
I2015
sbsVIND0000345
p2684
g2
(g3
g4
Ntp2685
Rp2686
(dp2687
g8
g9
sg10
F1200.0
sg11
VRAJIV GANDHI  TPS HISAR
p2688
sg13
I2015
sg14
g15
sg16
g17
sg18
g19
sg20
g9
sg21
g2684
sg22
F5380.2671
sg23
g2
(g24
g4
Ntp2689
Rp2690
(dp2691
g28
F0.0
sg29
g30
sg31
F0.0
sbsg32
g33
((lp2692
g61
ag62
atp2693
Rp2694
sg38
g9
sg39
I2015
sbsVIND0000346
p2695
g2
(g3
g4
Ntp2696
Rp2697
(dp2698
g8
g9
sg10
F1400.0
sg11
VRAJPURA TPP
p2699
sg13
I2015
sg14
g15
sg16
g17
sg18
g19
sg20
g9
sg21
g2695
sg22
F5373.91
sg23
g2
(g24
g4
Ntp2700
Rp2701
(dp2702
g28
F0.0
sg29
g30
sg31
F0.0
sbsg32
g33
((lp2703
g61
ag62
atp2704
Rp2705
sg38
g9
sg39
I2015
sbsVIND0000347
p2706
g2
(g3
g4
Ntp2707
Rp2708
(dp2709
g8
g9
sg10
F198.0
sg11
VRAMGANGA
p2710
sg13
I2015
sg14
g15
sg16
g17
sg18
g19
sg20
g9
sg21
g2706
sg22
F268.48085
sg23
g2
(g24
g4
Ntp2711
Rp2712
(dp2713
g28
F0.0
sg29
g30
sg31
F0.0
sbsg32
g33
((lp2714
g49
atp2715
Rp2716
sg38
g9
sg39
I2015
sbsVIND0000340
p2717
g2
(g3
g4
Ntp2718
Rp2719
(dp2720
g8
g9
sg10
F1720.0
sg11
VRAICHUR
p2721
sg13
I2015
sg14
g15
sg16
g17
sg18
g19
sg20
g9
sg21
g2717
sg22
F9983.018
sg23
g2
(g24
g4
Ntp2722
Rp2723
(dp2724
g28
F0.0
sg29
g30
sg31
F0.0
sbsg32
g33
((lp2725
g61
ag62
atp2726
Rp2727
sg38
g9
sg39
I2015
sbsVIND0000341
p2728
g2
(g3
g4
Ntp2729
Rp2730
(dp2731
g8
g9
sg10
F1000.0
sg11
VRAIGARH TPP
p2732
sg13
I2015
sg14
g15
sg16
g17
sg18
g19
sg20
g9
sg21
g2728
sg22
F7368.39
sg23
g2
(g24
g4
Ntp2733
Rp2734
(dp2735
g28
F0.0
sg29
g30
sg31
F0.0
sbsg32
g33
((lp2736
g61
ag62
atp2737
Rp2738
sg38
g9
sg39
I2015
sbsVIND0000342
p2739
g2
(g3
g4
Ntp2740
Rp2741
(dp2742
g8
g9
sg10
F685.0
sg11
VRAIKHEDA
p2743
sg13
I2015
sg14
g15
sg16
g17
sg18
g19
sg20
g9
sg21
g2739
sg22
F20.242749999999997
sg23
g2
(g24
g4
Ntp2744
Rp2745
(dp2746
g28
F0.0
sg29
g30
sg31
F0.0
sbsg32
g33
((lp2747
g61
ag62
atp2748
Rp2749
sg38
g9
sg39
I2015
sbsVIND0000343
p2750
g2
(g3
g4
Ntp2751
Rp2752
(dp2753
g8
g9
sg10
F135.0
sg11
VRAJGHAT
p2754
sg13
I2015
sg14
g15
sg16
g17
sg18
g19
sg20
g9
sg21
g2750
sg22
F359.1398
sg23
g2
(g24
g4
Ntp2755
Rp2756
(dp2757
g28
F0.0
sg29
g30
sg31
F0.0
sbsg32
g33
((lp2758
g61
ag62
atp2759
Rp2760
sg38
g9
sg39
I2015
sbsVIND0000131
p2761
g2
(g3
g4
Ntp2762
Rp2763
(dp2764
g8
g9
sg10
F36.0
sg11
VHAMPI
p2765
sg13
I2015
sg14
g15
sg16
g17
sg18
g19
sg20
g9
sg21
g2761
sg22
F2.0397499999999997
sg23
g2
(g24
g4
Ntp2766
Rp2767
(dp2768
g28
F0.0
sg29
g30
sg31
F0.0
sbsg32
g33
((lp2769
g49
atp2770
Rp2771
sg38
g9
sg39
I2015
sbsVIND0000119
p2772
g2
(g3
g4
Ntp2773
Rp2774
(dp2775
g8
g9
sg10
F120.0
sg11
VGEPL
p2776
sg13
I2015
sg14
g15
sg16
g17
sg18
g19
sg20
g9
sg21
g2772
sg22
F0.0
sg23
g2
(g24
g4
Ntp2777
Rp2778
(dp2779
g28
F0.0
sg29
g30
sg31
F0.0
sbsg32
g33
((lp2780
g61
ag62
atp2781
Rp2782
sg38
g9
sg39
I2015
sbsVIND0000118
p2783
g2
(g3
g4
Ntp2784
Rp2785
(dp2786
g8
g9
sg10
F468.57
sg11
VGAUTAMI CCCP
p2787
sg13
I2015
sg14
g15
sg16
g17
sg18
g19
sg20
g9
sg21
g2783
sg22
F0.0
sg23
g2
(g24
g4
Ntp2788
Rp2789
(dp2790
g28
F0.0
sg29
g30
sg31
F0.0
sbsg32
g33
((lp2791
g35
atp2792
Rp2793
sg38
g9
sg39
I2015
sbsVIND0000039
p2794
g2
(g3
g4
Ntp2795
Rp2796
(dp2797
g8
g9
sg10
F81.3
sg11
VBELGAUM DG
p2798
sg13
I2015
sg14
g15
sg16
g17
sg18
g19
sg20
g9
sg21
g2794
sg22
F0.0
sg23
g2
(g24
g4
Ntp2799
Rp2800
(dp2801
g28
F0.0
sg29
g30
sg31
F0.0
sbsg32
g33
((lp2802
g62
atp2803
Rp2804
sg38
g9
sg39
I2015
sbsVIND0000111
p2805
g2
(g3
g4
Ntp2806
Rp2807
(dp2808
g8
g9
sg10
F310.0
sg11
VG.I.P.C.L. GT
p2809
sg13
I2015
sg14
g15
sg16
g17
sg18
g19
sg20
g9
sg21
g2805
sg22
F699.4
sg23
g2
(g24
g4
Ntp2810
Rp2811
(dp2812
g28
F0.0
sg29
g30
sg31
F0.0
sbsg32
g33
((lp2813
g35
atp2814
Rp2815
sg38
g9
sg39
I2015
sbsVIND0000110
p2816
g2
(g3
g4
Ntp2817
Rp2818
(dp2819
g8
g9
sg10
F2100.0
sg11
VFARAKKA STPS
p2820
sg13
I2015
sg14
g15
sg16
g17
sg18
g19
sg20
g9
sg21
g2816
sg22
F12467.0
sg23
g2
(g24
g4
Ntp2821
Rp2822
(dp2823
g28
F0.0
sg29
g30
sg31
F0.0
sbsg32
g33
((lp2824
g61
ag62
atp2825
Rp2826
sg38
g9
sg39
I2015
sbsVIND0000113
p2827
g2
(g3
g4
Ntp2828
Rp2829
(dp2830
g8
g9
sg10
F648.0
sg11
VGANDHAR GT
p2831
sg13
I2015
sg14
g15
sg16
g17
sg18
g19
sg20
g9
sg21
g2827
sg22
F1562.0
sg23
g2
(g24
g4
Ntp2832
Rp2833
(dp2834
g28
F0.0
sg29
g30
sg31
F0.0
sbsg32
g33
((lp2835
g35
atp2836
Rp2837
sg38
g9
sg39
I2015
sbsVIND0000112
p2838
g2
(g3
g4
Ntp2839
Rp2840
(dp2841
g8
g9
sg10
F10.5
sg11
VGAJ
p2842
sg13
I2015
sg14
g15
sg16
g17
sg18
g19
sg20
g9
sg21
g2838
sg22
F0.0
sg23
g2
(g24
g4
Ntp2843
Rp2844
(dp2845
g28
F0.0
sg29
g30
sg31
F0.0
sbsg32
g33
((lp2846
g49
atp2847
Rp2848
sg38
g9
sg39
I2015
sbsVIND0000115
p2849
g2
(g3
g4
Ntp2850
Rp2851
(dp2852
g8
g9
sg10
F870.0
sg11
VGANDHI NAGAR
p2853
sg13
I2015
sg14
g15
sg16
g17
sg18
g19
sg20
g9
sg21
g2849
sg22
F3034.575
sg23
g2
(g24
g4
Ntp2854
Rp2855
(dp2856
g28
F0.0
sg29
g30
sg31
F0.0
sbsg32
g33
((lp2857
g61
ag62
atp2858
Rp2859
sg38
g9
sg39
I2015
sbsVIND0000114
p2860
g2
(g3
g4
Ntp2861
Rp2862
(dp2863
g8
g9
sg10
F15.0
sg11
VGANDHARBAL
p2864
sg13
I2015
sg14
g15
sg16
g17
sg18
g19
sg20
g9
sg21
g2860
sg22
F0.0
sg23
g2
(g24
g4
Ntp2865
Rp2866
(dp2867
g28
F0.0
sg29
g30
sg31
F0.0
sbsg32
g33
((lp2868
g49
atp2869
Rp2870
sg38
g9
sg39
I2015
sbsVIND0000117
p2871
g2
(g3
g4
Ntp2872
Rp2873
(dp2874
g8
g9
sg10
F77.65
sg11
VGANGUWAL
p2875
sg13
I2015
sg14
g15
sg16
g17
sg18
g19
sg20
g9
sg21
g2871
sg22
F420.77555
sg23
g2
(g24
g4
Ntp2876
Rp2877
(dp2878
g28
F0.0
sg29
g30
sg31
F0.0
sbsg32
g33
((lp2879
g49
atp2880
Rp2881
sg38
g9
sg39
I2015
sbsVIND0000116
p2882
g2
(g3
g4
Ntp2883
Rp2884
(dp2885
g8
g9
sg10
F115.0
sg11
VGANDHI SAGAR
p2886
sg13
I2015
sg14
g15
sg16
g17
sg18
g19
sg20
g9
sg21
g2882
sg22
F270.78925
sg23
g2
(g24
g4
Ntp2887
Rp2888
(dp2889
g28
F0.0
sg29
g30
sg31
F0.0
sbsg32
g33
((lp2890
g49
atp2891
Rp2892
sg38
g9
sg39
I2015
sbsVIND0000449
p2893
g2
(g3
g4
Ntp2894
Rp2895
(dp2896
g8
g9
sg10
F91.35
sg11
VU.B.D.C. ST.-I& II
p2897
sg13
I2015
sg14
g15
sg16
g17
sg18
g19
sg20
g9
sg21
g2893
sg22
F381.95860999999996
sg23
g2
(g24
g4
Ntp2898
Rp2899
(dp2900
g28
F0.0
sg29
g30
sg31
F0.0
sbsg32
g33
((lp2901
g49
atp2902
Rp2903
sg38
g9
sg39
I2015
sbsVIND0000448
p2904
g2
(g3
g4
Ntp2905
Rp2906
(dp2907
g8
g9
sg10
F500.0
sg11
VTUTICORIN JV
p2908
sg13
I2015
sg14
g15
sg16
g17
sg18
g19
sg20
g9
sg21
g2904
sg22
F6.34865
sg23
g2
(g24
g4
Ntp2909
Rp2910
(dp2911
g28
F0.0
sg29
g30
sg31
F0.0
sbsg32
g33
((lp2912
g61
ag62
atp2913
Rp2914
sg38
g9
sg39
I2015
sbsVIND0000443
p2915
g2
(g3
g4
Ntp2916
Rp2917
(dp2918
g8
g9
sg10
F180.0
sg11
VTROMBAY GT
p2919
sg13
I2015
sg14
g15
sg16
g17
sg18
g19
sg20
g9
sg21
g2915
sg22
F1119.27
sg23
g2
(g24
g4
Ntp2920
Rp2921
(dp2922
g28
F0.0
sg29
g30
sg31
F0.0
sbsg32
g33
((lp2923
g35
atp2924
Rp2925
sg38
g9
sg39
I2015
sbsVIND0000442
p2926
g2
(g3
g4
Ntp2927
Rp2928
(dp2929
g8
g9
sg10
F500.0
sg11
VTROMBAY
p2930
sg13
I2015
sg14
g15
sg16
g17
sg18
g19
sg20
g9
sg21
g2926
sg22
F770.18
sg23
g2
(g24
g4
Ntp2931
Rp2932
(dp2933
g28
F0.0
sg29
g30
sg31
F0.0
sbsg32
g33
((lp2934
g62
ag35
atp2935
Rp2936
sg38
g9
sg39
I2015
sbsVIND0000441
p2937
g2
(g3
g4
Ntp2938
Rp2939
(dp2940
g8
g9
sg10
F400.0
sg11
VTORR POWER SAB.
p2941
sg13
I2015
sg14
g15
sg16
g17
sg18
g19
sg20
g9
sg21
g2937
sg22
F2720.0
sg23
g2
(g24
g4
Ntp2942
Rp2943
(dp2944
g28
F0.0
sg29
g30
sg31
F0.0
sbsg32
g33
((lp2945
g61
ag62
atp2946
Rp2947
sg38
g9
sg39
I2015
sbsVIND0000440
p2948
g2
(g3
g4
Ntp2949
Rp2950
(dp2951
g8
g9
sg10
F260.0
sg11
VTORANGALLU IMP
p2952
sg13
I2015
sg14
g15
sg16
g17
sg18
g19
sg20
g9
sg21
g2948
sg22
F2074.31
sg23
g2
(g24
g4
Ntp2953
Rp2954
(dp2955
g28
F0.0
sg29
g30
sg31
F0.0
sbsg32
g33
((lp2956
g61
ag62
atp2957
Rp2958
sg38
g9
sg39
I2015
sbsVIND0000447
p2959
g2
(g3
g4
Ntp2960
Rp2961
(dp2962
g8
g9
sg10
F300.0
sg11
VTUTICORIN- IND BARATH
p2963
sg13
I2015
sg14
g15
sg16
g17
sg18
g19
sg20
g9
sg21
g2959
sg22
F1262.6
sg23
g2
(g24
g4
Ntp2964
Rp2965
(dp2966
g28
F0.0
sg29
g30
sg31
F0.0
sbsg32
g33
((lp2967
g61
ag62
atp2968
Rp2969
sg38
g9
sg39
I2015
sbsVIND0000030
p2970
g2
(g3
g4
Ntp2971
Rp2972
(dp2973
g8
g9
sg10
F42.0
sg11
VBARAMURA
p2974
sg13
I2015
sg14
g15
sg16
g17
sg18
g19
sg20
g9
sg21
g2970
sg22
F304.8328
sg23
g2
(g24
g4
Ntp2975
Rp2976
(dp2977
g28
F0.0
sg29
g30
sg31
F0.0
sbsg32
g33
((lp2978
g35
atp2979
Rp2980
sg38
g9
sg39
I2015
sbsVIND0000445
p2981
g2
(g3
g4
Ntp2982
Rp2983
(dp2984
g8
g9
sg10
F150.0
sg11
VTROMBAY_Oil
p2985
sg13
I2015
sg14
g15
sg16
g17
sg18
g19
sg20
g9
sg21
g2981
sg22
F0.0
sg23
g2
(g24
g4
Ntp2986
Rp2987
(dp2988
g28
F0.0
sg29
g30
sg31
F0.0
sbsg32
g33
((lp2989
g62
ag35
atp2990
Rp2991
sg38
g9
sg39
I2015
sbsVIND0000444
p2992
g2
(g3
g4
Ntp2993
Rp2994
(dp2995
g8
g9
sg10
F750.0
sg11
VTROMBAY_Coal
p2996
sg13
I2015
sg14
g15
sg16
g17
sg18
g19
sg20
g9
sg21
g2992
sg22
F3797.0
sg23
g2
(g24
g4
Ntp2997
Rp2998
(dp2999
g28
F0.0
sg29
g30
sg31
F0.0
sbsg32
g33
((lp3000
g61
ag62
atp3001
Rp3002
sg38
g9
sg39
I2015
sbsVIND0000031
p3003
g2
(g3
g4
Ntp3004
Rp3005
(dp3006
g8
g9
sg10
F220.0
sg11
VBARAUNI
p3007
sg13
I2015
sg14
g15
sg16
g17
sg18
g19
sg20
g9
sg21
g3003
sg22
F0.0
sg23
g2
(g24
g4
Ntp3008
Rp3009
(dp3010
g28
F0.0
sg29
g30
sg31
F0.0
sbsg32
g33
((lp3011
g61
ag62
atp3012
Rp3013
sg38
g9
sg39
I2015
sbsVIND0000234
p3014
g2
(g3
g4
Ntp3015
Rp3016
(dp3017
g8
g9
sg10
F1320.0
sg11
VMAHATMA GANDHI TPP
p3018
sg13
I2015
sg14
g15
sg16
g17
sg18
g19
sg20
g9
sg21
g3014
sg22
F6147.8
sg23
g2
(g24
g4
Ntp3019
Rp3020
(dp3021
g28
F0.0
sg29
g30
sg31
F0.0
sbsg32
g33
((lp3022
g61
ag62
atp3023
Rp3024
sg38
g9
sg39
I2015
sbsVIND0000235
p3025
g2
(g3
g4
Ntp3026
Rp3027
(dp3028
g8
g9
sg10
F140.0
sg11
VMAHI BAJAJ I&II
p3029
sg13
I2015
sg14
g15
sg16
g17
sg18
g19
sg20
g9
sg21
g3025
sg22
F184.9108
sg23
g2
(g24
g4
Ntp3030
Rp3031
(dp3032
g28
F0.0
sg29
g30
sg31
F0.0
sbsg32
g33
((lp3033
g49
atp3034
Rp3035
sg38
g9
sg39
I2015
sbsVIND0000236
p3036
g2
(g3
g4
Ntp3037
Rp3038
(dp3039
g8
g9
sg10
F63.2
sg11
VMAITHON
p3040
sg13
I2015
sg14
g15
sg16
g17
sg18
g19
sg20
g9
sg21
g3036
sg22
F137.3498
sg23
g2
(g24
g4
Ntp3041
Rp3042
(dp3043
g28
F0.0
sg29
g30
sg31
F0.0
sbsg32
g33
((lp3044
g49
atp3045
Rp3046
sg38
g9
sg39
I2015
sbsVIND0000237
p3047
g2
(g3
g4
Ntp3048
Rp3049
(dp3050
g8
g9
sg10
F0.0
sg11
VMAITHON GT
p3051
sg13
I2015
sg14
g15
sg16
g17
sg18
g19
sg20
g9
sg21
g3047
sg22
F0.0
sg23
g2
(g24
g4
Ntp3052
Rp3053
(dp3054
g28
F0.0
sg29
g30
sg31
F0.0
sbsg32
g33
((lp3055
g62
atp3056
Rp3057
sg38
g9
sg39
I2015
sbsVIND0000230
p3058
g2
(g3
g4
Ntp3059
Rp3060
(dp3061
g8
g9
sg10
F4.5
sg11
VMADHAVAMANTRI
p3062
sg13
I2015
sg14
g15
sg16
g17
sg18
g19
sg20
g9
sg21
g3058
sg22
F0.0
sg23
g2
(g24
g4
Ntp3063
Rp3064
(dp3065
g28
F0.0
sg29
g30
sg31
F0.0
sbsg32
g33
((lp3066
g49
atp3067
Rp3068
sg38
g9
sg39
I2015
sbsVIND0000231
p3069
g2
(g3
g4
Ntp3070
Rp3071
(dp3072
g8
g9
sg10
F40.0
sg11
VMADHIKHEDA
p3073
sg13
I2015
sg14
g15
sg16
g17
sg18
g19
sg20
g9
sg21
g3069
sg22
F96.6742
sg23
g2
(g24
g4
Ntp3074
Rp3075
(dp3076
g28
F0.0
sg29
g30
sg31
F0.0
sbsg32
g33
((lp3077
g49
atp3078
Rp3079
sg38
g9
sg39
I2015
sbsVIND0000232
p3080
g2
(g3
g4
Ntp3081
Rp3082
(dp3083
g8
g9
sg10
F540.0
sg11
VMAHADEV PRASAD STPP
p3084
sg13
I2015
sg14
g15
sg16
g17
sg18
g19
sg20
g9
sg21
g3080
sg22
F1999.65
sg23
g2
(g24
g4
Ntp3085
Rp3086
(dp3087
g28
F0.0
sg29
g30
sg31
F0.0
sbsg32
g33
((lp3088
g61
ag62
atp3089
Rp3090
sg38
g9
sg39
I2015
sbsVIND0000233
p3091
g2
(g3
g4
Ntp3092
Rp3093
(dp3094
g8
g9
sg10
F600.0
sg11
VMAHAN TPP
p3095
sg13
I2015
sg14
g15
sg16
g17
sg18
g19
sg20
g9
sg21
g3091
sg22
F468.36
sg23
g2
(g24
g4
Ntp3096
Rp3097
(dp3098
g28
F0.0
sg29
g30
sg31
F0.0
sbsg32
g33
((lp3099
g61
ag62
atp3100
Rp3101
sg38
g9
sg39
I2015
sbsVIND0000238
p3102
g2
(g3
g4
Ntp3103
Rp3104
(dp3105
g8
g9
sg10
F1050.0
sg11
VMAITHON RB TPP
p3106
sg13
I2015
sg14
g15
sg16
g17
sg18
g19
sg20
g9
sg21
g3102
sg22
F6311.0
sg23
g2
(g24
g4
Ntp3107
Rp3108
(dp3109
g28
F0.0
sg29
g30
sg31
F0.0
sbsg32
g33
((lp3110
g61
ag62
atp3111
Rp3112
sg38
g9
sg39
I2015
sbsVIND0000239
p3113
g2
(g3
g4
Ntp3114
Rp3115
(dp3116
g8
g9
sg10
F186.0
sg11
VMALANA
p3117
sg13
I2015
sg14
g15
sg16
g17
sg18
g19
sg20
g9
sg21
g3113
sg22
F575.9458000000001
sg23
g2
(g24
g4
Ntp3118
Rp3119
(dp3120
g28
F0.0
sg29
g30
sg31
F0.0
sbsg32
g33
((lp3121
g49
atp3122
Rp3123
sg38
g9
sg39
I2015
sbsVIND0000191
p3124
g2
(g3
g4
Ntp3125
Rp3126
(dp3127
g8
g9
sg10
F1260.0
sg11
VKOLAGHAT
p3128
sg13
I2015
sg14
g15
sg16
g17
sg18
g19
sg20
g9
sg21
g3124
sg22
F6449.761
sg23
g2
(g24
g4
Ntp3129
Rp3130
(dp3131
g28
F0.0
sg29
g30
sg31
F0.0
sbsg32
g33
((lp3132
g61
ag62
atp3133
Rp3134
sg38
g9
sg39
I2015
sbsVIND0000190
p3135
g2
(g3
g4
Ntp3136
Rp3137
(dp3138
g8
g9
sg10
F128.0
sg11
VKOJIKODE DG
p3139
sg13
I2015
sg14
g15
sg16
g17
sg18
g19
sg20
g9
sg21
g3135
sg22
F194.11479
sg23
g2
(g24
g4
Ntp3140
Rp3141
(dp3142
g28
F0.0
sg29
g30
sg31
F0.0
sbsg32
g33
((lp3143
g62
atp3144
Rp3145
sg38
g9
sg39
I2015
sbsVIND0000360
p3146
g2
(g3
g4
Ntp3147
Rp3148
(dp3149
g8
g9
sg10
F300.0
sg11
VRIHAND_Hydro
p3150
sg13
I2015
sg14
g15
sg16
g17
sg18
g19
sg20
g9
sg21
g3146
sg22
F571.35885
sg23
g2
(g24
g4
Ntp3151
Rp3152
(dp3153
g28
F0.0
sg29
g30
sg31
F0.0
sbsg32
g33
((lp3154
g49
atp3155
Rp3156
sg38
g9
sg39
I2015
sbsVIND0000308
p3157
g2
(g3
g4
Ntp3158
Rp3159
(dp3160
g8
g9
sg10
F30.0
sg11
VPANNIAR
p3161
sg13
I2015
sg14
g15
sg16
g17
sg18
g19
sg20
g9
sg21
g3157
sg22
F154.12550000000002
sg23
g2
(g24
g4
Ntp3162
Rp3163
(dp3164
g28
F0.0
sg29
g30
sg31
F0.0
sbsg32
g33
((lp3165
g49
atp3166
Rp3167
sg38
g9
sg39
I2015
sbsVIND0000309
p3168
g2
(g3
g4
Ntp3169
Rp3170
(dp3171
g8
g9
sg10
F32.0
sg11
VPAPANASAM
p3172
sg13
I2015
sg14
g15
sg16
g17
sg18
g19
sg20
g9
sg21
g3168
sg22
F117.63885
sg23
g2
(g24
g4
Ntp3173
Rp3174
(dp3175
g28
F0.0
sg29
g30
sg31
F0.0
sbsg32
g33
((lp3176
g49
atp3177
Rp3178
sg38
g9
sg39
I2015
sbsVIND0000361
p3179
g2
(g3
g4
Ntp3180
Rp3181
(dp3182
g8
g9
sg10
F94.8
sg11
VRITHALA CCCP
p3183
sg13
I2015
sg14
g15
sg16
g17
sg18
g19
sg20
g9
sg21
g3179
sg22
F0.0
sg23
g2
(g24
g4
Ntp3184
Rp3185
(dp3186
g28
F0.0
sg29
g30
sg31
F0.0
sbsg32
g33
((lp3187
g35
atp3188
Rp3189
sg38
g9
sg39
I2015
sbsVIND0000300
p3190
g2
(g3
g4
Ntp3191
Rp3192
(dp3193
g8
g9
sg10
F660.0
sg11
VPAINAMPURAM
p3194
sg13
I2015
sg14
g15
sg16
g17
sg18
g19
sg20
g9
sg21
g3190
sg22
F0.0
sg23
g2
(g24
g4
Ntp3195
Rp3196
(dp3197
g28
F0.0
sg29
g30
sg31
F0.0
sbsg32
g33
((lp3198
g61
ag62
atp3199
Rp3200
sg38
g9
sg39
I2015
sbsVIND0000301
p3201
g2
(g3
g4
Ntp3202
Rp3203
(dp3204
g8
g9
sg10
F12.0
sg11
VPAITHON
p3205
sg13
I2015
sg14
g15
sg16
g17
sg18
g19
sg20
g9
sg21
g3201
sg22
F0.0
sg23
g2
(g24
g4
Ntp3206
Rp3207
(dp3208
g28
F0.0
sg29
g30
sg31
F0.0
sbsg32
g33
((lp3209
g49
atp3210
Rp3211
sg38
g9
sg39
I2015
sbsVIND0000302
p3212
g2
(g3
g4
Ntp3213
Rp3214
(dp3215
g8
g9
sg10
F1090.8
sg11
VPALATANA CCPP
p3216
sg13
I2015
sg14
g15
sg16
g17
sg18
g19
sg20
g9
sg21
g3212
sg22
F2391.796
sg23
g2
(g24
g4
Ntp3217
Rp3218
(dp3219
g28
F0.0
sg29
g30
sg31
F0.0
sbsg32
g33
((lp3220
g35
atp3221
Rp3222
sg38
g9
sg39
I2015
sbsVIND0000303
p3223
g2
(g3
g4
Ntp3224
Rp3225
(dp3226
g8
g9
sg10
F37.5
sg11
VPALLIVASAL
p3227
sg13
I2015
sg14
g15
sg16
g17
sg18
g19
sg20
g9
sg21
g3223
sg22
F210.6017
sg23
g2
(g24
g4
Ntp3228
Rp3229
(dp3230
g28
F0.0
sg29
g30
sg31
F0.0
sbsg32
g33
((lp3231
g49
atp3232
Rp3233
sg38
g9
sg39
I2015
sbsVIND0000304
p3234
g2
(g3
g4
Ntp3235
Rp3236
(dp3237
g8
g9
sg10
F175.0
sg11
VPAMPORE GT
p3238
sg13
I2015
sg14
g15
sg16
g17
sg18
g19
sg20
g9
sg21
g3234
sg22
F0.0
sg23
g2
(g24
g4
Ntp3239
Rp3240
(dp3241
g28
F0.0
sg29
g30
sg31
F0.0
sbsg32
g33
((lp3242
g62
atp3243
Rp3244
sg38
g9
sg39
I2015
sbsVIND0000305
p3245
g2
(g3
g4
Ntp3246
Rp3247
(dp3248
g8
g9
sg10
F80.0
sg11
VPANCHET
p3249
sg13
I2015
sg14
g15
sg16
g17
sg18
g19
sg20
g9
sg21
g3245
sg22
F128.6137
sg23
g2
(g24
g4
Ntp3250
Rp3251
(dp3252
g28
F0.0
sg29
g30
sg31
F0.0
sbsg32
g33
((lp3253
g49
atp3254
Rp3255
sg38
g9
sg39
I2015
sbsVIND0000306
p3256
g2
(g3
g4
Ntp3257
Rp3258
(dp3259
g8
g9
sg10
F1360.0
sg11
VPANIPAT
p3260
sg13
I2015
sg14
g15
sg16
g17
sg18
g19
sg20
g9
sg21
g3256
sg22
F3921.79
sg23
g2
(g24
g4
Ntp3261
Rp3262
(dp3263
g28
F0.0
sg29
g30
sg31
F0.0
sbsg32
g33
((lp3264
g61
ag62
atp3265
Rp3266
sg38
g9
sg39
I2015
sbsVIND0000307
p3267
g2
(g3
g4
Ntp3268
Rp3269
(dp3270
g8
g9
sg10
F210.0
sg11
VPANKI
p3271
sg13
I2015
sg14
g15
sg16
g17
sg18
g19
sg20
g9
sg21
g3267
sg22
F852.537
sg23
g2
(g24
g4
Ntp3272
Rp3273
(dp3274
g28
F0.0
sg29
g30
sg31
F0.0
sbsg32
g33
((lp3275
g61
ag62
atp3276
Rp3277
sg38
g9
sg39
I2015
sbsVIND0000199
p3278
g2
(g3
g4
Ntp3279
Rp3280
(dp3281
g8
g9
sg10
F1340.0
sg11
VKORBA-WEST
p3282
sg13
I2015
sg14
g15
sg16
g17
sg18
g19
sg20
g9
sg21
g3278
sg22
F9013.4173
sg23
g2
(g24
g4
Ntp3283
Rp3284
(dp3285
g28
F0.0
sg29
g30
sg31
F0.0
sbsg32
g33
((lp3286
g61
ag62
atp3287
Rp3288
sg38
g9
sg39
I2015
sbsVIND0000198
p3289
g2
(g3
g4
Ntp3290
Rp3291
(dp3292
g8
g9
sg10
F940.0
sg11
VKORBA-EAST
p3293
sg13
I2015
sg14
g15
sg16
g17
sg18
g19
sg20
g9
sg21
g3289
sg22
F5373.7458
sg23
g2
(g24
g4
Ntp3294
Rp3295
(dp3296
g28
F0.0
sg29
g30
sg31
F0.0
sbsg32
g33
((lp3297
g61
ag62
atp3298
Rp3299
sg38
g9
sg39
I2015
sbsVIND0000158
p3300
g2
(g3
g4
Ntp3301
Rp3302
(dp3303
g8
g9
sg10
F880.0
sg11
VKAIGA
p3304
sg13
I2015
sg14
g15
sg16
g17
sg18
g19
sg20
g9
sg21
g3300
sg22
F5866.94
sg23
g2
(g24
g4
Ntp3305
Rp3306
(dp3307
g28
F0.0
sg29
g30
sg31
F0.0
sbsg32
g33
((lp3308
g690
atp3309
Rp3310
sg38
g9
sg39
I2015
sbsVIND0000351
p3311
g2
(g3
g4
Ntp3312
Rp3313
(dp3314
g8
g9
sg10
F405.0
sg11
VRANGANADI
p3315
sg13
I2015
sg14
g15
sg16
g17
sg18
g19
sg20
g9
sg21
g3311
sg22
F1103.9326
sg23
g2
(g24
g4
Ntp3316
Rp3317
(dp3318
g28
F0.0
sg29
g30
sg31
F0.0
sbsg32
g33
((lp3319
g49
atp3320
Rp3321
sg38
g9
sg39
I2015
sbsVIND0000155
p3322
g2
(g3
g4
Ntp3323
Rp3324
(dp3325
g8
g9
sg10
F240.0
sg11
VKADANA
p3326
sg13
I2015
sg14
g15
sg16
g17
sg18
g19
sg20
g9
sg21
g3322
sg22
F210.47235
sg23
g2
(g24
g4
Ntp3327
Rp3328
(dp3329
g28
F0.0
sg29
g30
sg31
F0.0
sbsg32
g33
((lp3330
g49
atp3331
Rp3332
sg38
g9
sg39
I2015
sbsVIND0000154
p3333
g2
(g3
g4
Ntp3334
Rp3335
(dp3336
g8
g9
sg10
F400.0
sg11
VKADAMPARI
p3337
sg13
I2015
sg14
g15
sg16
g17
sg18
g19
sg20
g9
sg21
g3333
sg22
F499.9875
sg23
g2
(g24
g4
Ntp3338
Rp3339
(dp3340
g28
F0.0
sg29
g30
sg31
F0.0
sbsg32
g33
((lp3341
g49
atp3342
Rp3343
sg38
g9
sg39
I2015
sbsVIND0000157
p3344
g2
(g3
g4
Ntp3345
Rp3346
(dp3347
g8
g9
sg10
F2340.0
sg11
VKAHALGAON
p3348
sg13
I2015
sg14
g15
sg16
g17
sg18
g19
sg20
g9
sg21
g3344
sg22
F14471.0
sg23
g2
(g24
g4
Ntp3349
Rp3350
(dp3351
g28
F0.0
sg29
g30
sg31
F0.0
sbsg32
g33
((lp3352
g61
ag62
atp3353
Rp3354
sg38
g9
sg39
I2015
sbsVIND0000156
p3355
g2
(g3
g4
Ntp3356
Rp3357
(dp3358
g8
g9
sg10
F150.0
sg11
VKADRA
p3359
sg13
I2015
sg14
g15
sg16
g17
sg18
g19
sg20
g9
sg21
g3355
sg22
F403.11429999999996
sg23
g2
(g24
g4
Ntp3360
Rp3361
(dp3362
g28
F0.0
sg29
g30
sg31
F0.0
sbsg32
g33
((lp3363
g49
atp3364
Rp3365
sg38
g9
sg39
I2015
sbsVIND0000151
p3366
g2
(g3
g4
Ntp3367
Rp3368
(dp3369
g8
g9
sg10
F720.0
sg11
VK_GUDEM
p3370
sg13
I2015
sg14
g15
sg16
g17
sg18
g19
sg20
g9
sg21
g3366
sg22
F3968.141
sg23
g2
(g24
g4
Ntp3371
Rp3372
(dp3373
g28
F0.0
sg29
g30
sg31
F0.0
sbsg32
g33
((lp3374
g61
ag62
atp3375
Rp3376
sg38
g9
sg39
I2015
sbsVIND0000150
p3377
g2
(g3
g4
Ntp3378
Rp3379
(dp3380
g8
g9
sg10
F1200.0
sg11
VJSW RATNAGIRI TPP
p3381
sg13
I2015
sg14
g15
sg16
g17
sg18
g19
sg20
g9
sg21
g3377
sg22
F6942.29
sg23
g2
(g24
g4
Ntp3382
Rp3383
(dp3384
g28
F0.0
sg29
g30
sg31
F0.0
sbsg32
g33
((lp3385
g61
ag62
atp3386
Rp3387
sg38
g9
sg39
I2015
sbsVIND0000153
p3388
g2
(g3
g4
Ntp3389
Rp3390
(dp3391
g8
g9
sg10
F1340.0
sg11
VK_KHEDA II
p3392
sg13
I2015
sg14
g15
sg16
g17
sg18
g19
sg20
g9
sg21
g3388
sg22
F7513.134
sg23
g2
(g24
g4
Ntp3393
Rp3394
(dp3395
g28
F0.0
sg29
g30
sg31
F0.0
sbsg32
g33
((lp3396
g61
ag62
atp3397
Rp3398
sg38
g9
sg39
I2015
sbsVIND0000152
p3399
g2
(g3
g4
Ntp3400
Rp3401
(dp3402
g8
g9
sg10
F1000.0
sg11
VK_GUDEM NEW
p3403
sg13
I2015
sg14
g15
sg16
g17
sg18
g19
sg20
g9
sg21
g3399
sg22
F6792.303
sg23
g2
(g24
g4
Ntp3404
Rp3405
(dp3406
g28
F0.0
sg29
g30
sg31
F0.0
sbsg32
g33
((lp3407
g61
ag62
atp3408
Rp3409
sg38
g9
sg39
I2015
sbsVIND0000014
p3410
g2
(g3
g4
Ntp3411
Rp3412
(dp3413
g8
g9
sg10
F419.33
sg11
VANTA GT
p3414
sg13
I2015
sg14
g15
sg16
g17
sg18
g19
sg20
g9
sg21
g3410
sg22
F1611.987
sg23
g2
(g24
g4
Ntp3415
Rp3416
(dp3417
g28
F0.0
sg29
g30
sg31
F0.0
sbsg32
g33
((lp3418
g35
atp3419
Rp3420
sg38
g9
sg39
I2015
sbsVIND0000015
p3421
g2
(g3
g4
Ntp3422
Rp3423
(dp3424
g8
g9
sg10
F652.0
sg11
VAURAIYA GT
p3425
sg13
I2015
sg14
g15
sg16
g17
sg18
g19
sg20
g9
sg21
g3421
sg22
F1607.0
sg23
g2
(g24
g4
Ntp3426
Rp3427
(dp3428
g28
F0.0
sg29
g30
sg31
F0.0
sbsg32
g33
((lp3429
g35
atp3430
Rp3431
sg38
g9
sg39
I2015
sbsVIND0000016
p3432
g2
(g3
g4
Ntp3433
Rp3434
(dp3435
g8
g9
sg10
F600.0
sg11
VAVANTHA BHANDAR TPP
p3436
sg13
I2015
sg14
g15
sg16
g17
sg18
g19
sg20
g9
sg21
g3432
sg22
F0.0
sg23
g2
(g24
g4
Ntp3437
Rp3438
(dp3439
g28
F0.0
sg29
g30
sg31
F0.0
sbsg32
g33
((lp3440
g61
ag62
atp3441
Rp3442
sg38
g9
sg39
I2015
sbsVIND0000017
p3443
g2
(g3
g4
Ntp3444
Rp3445
(dp3446
g8
g9
sg10
F200.0
sg11
VB. BRIDGE D.G
p3447
sg13
I2015
sg14
g15
sg16
g17
sg18
g19
sg20
g9
sg21
g3443
sg22
F573.274
sg23
g2
(g24
g4
Ntp3448
Rp3449
(dp3450
g28
F0.0
sg29
g30
sg31
F0.0
sbsg32
g33
((lp3451
g62
atp3452
Rp3453
sg38
g9
sg39
I2015
sbsVIND0000010
p3454
g2
(g3
g4
Ntp3455
Rp3456
(dp3457
g8
g9
sg10
F1200.0
sg11
VANAPARA "C"
p3458
sg13
I2015
sg14
g15
sg16
g17
sg18
g19
sg20
g9
sg21
g3454
sg22
F7744.0
sg23
g2
(g24
g4
Ntp3459
Rp3460
(dp3461
g28
F0.0
sg29
g30
sg31
F0.0
sbsg32
g33
((lp3462
g61
ag62
atp3463
Rp3464
sg38
g9
sg39
I2015
sbsVIND0000011
p3465
g2
(g3
g4
Ntp3466
Rp3467
(dp3468
g8
g9
sg10
F16.95
sg11
VANDHRA
p3469
sg13
I2015
sg14
g15
sg16
g17
sg18
g19
sg20
g9
sg21
g3465
sg22
F0.0
sg23
g2
(g24
g4
Ntp3470
Rp3471
(dp3472
g28
F0.0
sg29
g30
sg31
F0.0
sbsg32
g33
((lp3473
g49
atp3474
Rp3475
sg38
g9
sg39
I2015
sbsVIND0000012
p3476
g2
(g3
g4
Ntp3477
Rp3478
(dp3479
g8
g9
sg10
F9.0
sg11
VANOOPGARH ST I&II
p3480
sg13
I2015
sg14
g15
sg16
g17
sg18
g19
sg20
g9
sg21
g3476
sg22
F0.0
sg23
g2
(g24
g4
Ntp3481
Rp3482
(dp3483
g28
F0.0
sg29
g30
sg31
F0.0
sbsg32
g33
((lp3484
g49
atp3485
Rp3486
sg38
g9
sg39
I2015
sbsVIND0000013
p3487
g2
(g3
g4
Ntp3488
Rp3489
(dp3490
g8
g9
sg10
F1630.0
sg11
VANPARA
p3491
sg13
I2015
sg14
g15
sg16
g17
sg18
g19
sg20
g9
sg21
g3487
sg22
F9670.879
sg23
g2
(g24
g4
Ntp3492
Rp3493
(dp3494
g28
F0.0
sg29
g30
sg31
F0.0
sbsg32
g33
((lp3495
g61
ag62
atp3496
Rp3497
sg38
g9
sg39
I2015
sbsVIND0000407
p3498
g2
(g3
g4
Ntp3499
Rp3500
(dp3501
g8
g9
sg10
F2400.0
sg11
VSTERLITE TPP
p3502
sg13
I2015
sg14
g15
sg16
g17
sg18
g19
sg20
g9
sg21
g3498
sg22
F7599.0
sg23
g2
(g24
g4
Ntp3503
Rp3504
(dp3505
g28
F0.0
sg29
g30
sg31
F0.0
sbsg32
g33
((lp3506
g61
ag62
atp3507
Rp3508
sg38
g9
sg39
I2015
sbsVIND0000406
p3509
g2
(g3
g4
Ntp3510
Rp3511
(dp3512
g8
g9
sg10
F4.0
sg11
VSTAKNA
p3513
sg13
I2015
sg14
g15
sg16
g17
sg18
g19
sg20
g9
sg21
g3509
sg22
F0.0
sg23
g2
(g24
g4
Ntp3514
Rp3515
(dp3516
g28
F0.0
sg29
g30
sg31
F0.0
sbsg32
g33
((lp3517
g49
atp3518
Rp3519
sg38
g9
sg39
I2015
sbsVIND0000405
p3520
g2
(g3
g4
Ntp3521
Rp3522
(dp3523
g8
g9
sg10
F900.0
sg11
VSRISAILAM LBPH
p3524
sg13
I2015
sg14
g15
sg16
g17
sg18
g19
sg20
g9
sg21
g3520
sg22
F1792.58205
sg23
g2
(g24
g4
Ntp3525
Rp3526
(dp3527
g28
F0.0
sg29
g30
sg31
F0.0
sbsg32
g33
((lp3528
g49
atp3529
Rp3530
sg38
g9
sg39
I2015
sbsVIND0000404
p3531
g2
(g3
g4
Ntp3532
Rp3533
(dp3534
g8
g9
sg10
F770.0
sg11
VSRISAILAM
p3535
sg13
I2015
sg14
g15
sg16
g17
sg18
g19
sg20
g9
sg21
g3531
sg22
F1146.96635
sg23
g2
(g24
g4
Ntp3536
Rp3537
(dp3538
g28
F0.0
sg29
g30
sg31
F0.0
sbsg32
g33
((lp3539
g49
atp3540
Rp3541
sg38
g9
sg39
I2015
sbsVIND0000403
p3542
g2
(g3
g4
Ntp3543
Rp3544
(dp3545
g8
g9
sg10
F135.0
sg11
VSOUTHERN REPL.
p3546
sg13
I2015
sg14
g15
sg16
g17
sg18
g19
sg20
g9
sg21
g3542
sg22
F905.97
sg23
g2
(g24
g4
Ntp3547
Rp3548
(dp3549
g28
F0.0
sg29
g30
sg31
F0.0
sbsg32
g33
((lp3550
g61
ag62
atp3551
Rp3552
sg38
g9
sg39
I2015
sbsVIND0000402
p3553
g2
(g3
g4
Ntp3554
Rp3555
(dp3556
g8
g9
sg10
F6.6
sg11
VSONE WEST CANAL
p3557
sg13
I2015
sg14
g15
sg16
g17
sg18
g19
sg20
g9
sg21
g3553
sg22
F0.0
sg23
g2
(g24
g4
Ntp3558
Rp3559
(dp3560
g28
F0.0
sg29
g30
sg31
F0.0
sbsg32
g33
((lp3561
g49
atp3562
Rp3563
sg38
g9
sg39
I2015
sbsVIND0000401
p3564
g2
(g3
g4
Ntp3565
Rp3566
(dp3567
g8
g9
sg10
F3.3
sg11
VSONE EAST CANAL
p3568
sg13
I2015
sg14
g15
sg16
g17
sg18
g19
sg20
g9
sg21
g3564
sg22
F0.0
sg23
g2
(g24
g4
Ntp3569
Rp3570
(dp3571
g28
F0.0
sg29
g30
sg31
F0.0
sbsg32
g33
((lp3572
g49
atp3573
Rp3574
sg38
g9
sg39
I2015
sbsVIND0000400
p3575
g2
(g3
g4
Ntp3576
Rp3577
(dp3578
g8
g9
sg10
F42.0
sg11
VSIVASAMUNDRUM
p3579
sg13
I2015
sg14
g15
sg16
g17
sg18
g19
sg20
g9
sg21
g3575
sg22
F220.82035000000002
sg23
g2
(g24
g4
Ntp3580
Rp3581
(dp3582
g28
F0.0
sg29
g30
sg31
F0.0
sbsg32
g33
((lp3583
g49
atp3584
Rp3585
sg38
g9
sg39
I2015
sbsVIND0000359
p3586
g2
(g3
g4
Ntp3587
Rp3588
(dp3589
g8
g9
sg10
F3000.0
sg11
VRIHAND
p3590
sg13
I2015
sg14
g15
sg16
g17
sg18
g19
sg20
g9
sg21
g3586
sg22
F19784.0
sg23
g2
(g24
g4
Ntp3591
Rp3592
(dp3593
g28
F0.0
sg29
g30
sg31
F0.0
sbsg32
g33
((lp3594
g61
ag62
atp3595
Rp3596
sg38
g9
sg39
I2015
sbsVIND0000409
p3597
g2
(g3
g4
Ntp3598
Rp3599
(dp3600
g8
g9
sg10
F1147.5
sg11
VSUGEN CCCP
p3601
sg13
I2015
sg14
g15
sg16
g17
sg18
g19
sg20
g9
sg21
g3597
sg22
F2519.0
sg23
g2
(g24
g4
Ntp3602
Rp3603
(dp3604
g28
F0.0
sg29
g30
sg31
F0.0
sbsg32
g33
((lp3605
g35
atp3606
Rp3607
sg38
g9
sg39
I2015
sbsVIND0000408
p3608
g2
(g3
g4
Ntp3609
Rp3610
(dp3611
g8
g9
sg10
F130.0
sg11
VSUBERNREKHA I&II
p3612
sg13
I2015
sg14
g15
sg16
g17
sg18
g19
sg20
g9
sg21
g3608
sg22
F33.56135
sg23
g2
(g24
g4
Ntp3613
Rp3614
(dp3615
g28
F0.0
sg29
g30
sg31
F0.0
sbsg32
g33
((lp3616
g49
atp3617
Rp3618
sg38
g9
sg39
I2015
sbsVIND0000358
p3619
g2
(g3
g4
Ntp3620
Rp3621
(dp3622
g8
g9
sg10
F250.0
sg11
VRENGALI
p3623
sg13
I2015
sg14
g15
sg16
g17
sg18
g19
sg20
g9
sg21
g3619
sg22
F738.7477
sg23
g2
(g24
g4
Ntp3624
Rp3625
(dp3626
g28
F0.0
sg29
g30
sg31
F0.0
sbsg32
g33
((lp3627
g49
atp3628
Rp3629
sg38
g9
sg39
I2015
sbsVIND0000270
p3630
g2
(g3
g4
Ntp3631
Rp3632
(dp3633
g8
g9
sg10
F60.0
sg11
VN_SAGAR LBC
p3634
sg13
I2015
sg14
g15
sg16
g17
sg18
g19
sg20
g9
sg21
g3630
sg22
F41.85965
sg23
g2
(g24
g4
Ntp3635
Rp3636
(dp3637
g28
F0.0
sg29
g30
sg31
F0.0
sbsg32
g33
((lp3638
g49
atp3639
Rp3640
sg38
g9
sg39
I2015
sbsVIND0000271
p3641
g2
(g3
g4
Ntp3642
Rp3643
(dp3644
g8
g9
sg10
F90.0
sg11
VN_SAGAR RBC
p3645
sg13
I2015
sg14
g15
sg16
g17
sg18
g19
sg20
g9
sg21
g3641
sg22
F186.35354999999998
sg23
g2
(g24
g4
Ntp3646
Rp3647
(dp3648
g28
F0.0
sg29
g30
sg31
F0.0
sbsg32
g33
((lp3649
g49
atp3650
Rp3651
sg38
g9
sg39
I2015
sbsVIND0000272
p3652
g2
(g3
g4
Ntp3653
Rp3654
(dp3655
g8
g9
sg10
F815.6
sg11
VNAGARJUNA SAGAR
p3656
sg13
I2015
sg14
g15
sg16
g17
sg18
g19
sg20
g9
sg21
g3652
sg22
F1027.46685
sg23
g2
(g24
g4
Ntp3657
Rp3658
(dp3659
g28
F0.0
sg29
g30
sg31
F0.0
sbsg32
g33
((lp3660
g49
atp3661
Rp3662
sg38
g9
sg39
I2015
sbsVIND0000273
p3663
g2
(g3
g4
Ntp3664
Rp3665
(dp3666
g8
g9
sg10
F119.5
sg11
VNAMRUP GT
p3667
sg13
I2015
sg14
g15
sg16
g17
sg18
g19
sg20
g9
sg21
g3663
sg22
F569.674
sg23
g2
(g24
g4
Ntp3668
Rp3669
(dp3670
g28
F0.0
sg29
g30
sg31
F0.0
sbsg32
g33
((lp3671
g35
atp3672
Rp3673
sg38
g9
sg39
I2015
sbsVIND0000274
p3674
g2
(g3
g4
Ntp3675
Rp3676
(dp3677
g8
g9
sg10
F11.6
sg11
VNARAYANPUR
p3678
sg13
I2015
sg14
g15
sg16
g17
sg18
g19
sg20
g9
sg21
g3674
sg22
F0.0
sg23
g2
(g24
g4
Ntp3679
Rp3680
(dp3681
g28
F0.0
sg29
g30
sg31
F0.0
sbsg32
g33
((lp3682
g49
atp3683
Rp3684
sg38
g9
sg39
I2015
sbsVIND0000275
p3685
g2
(g3
g4
Ntp3686
Rp3687
(dp3688
g8
g9
sg10
F0.0
sg11
VNARIMAN GT
p3689
sg13
I2015
sg14
g15
sg16
g17
sg18
g19
sg20
g9
sg21
g3685
sg22
F0.0
sg23
g2
(g24
g4
Ntp3690
Rp3691
(dp3692
g28
F0.0
sg29
g30
sg31
F0.0
sbsg32
g33
((lp3693
g35
atp3694
Rp3695
sg38
g9
sg39
I2015
sbsVIND0000276
p3696
g2
(g3
g4
Ntp3697
Rp3698
(dp3699
g8
g9
sg10
F45.0
sg11
VNARIMANGLAM
p3700
sg13
I2015
sg14
g15
sg16
g17
sg18
g19
sg20
g9
sg21
g3696
sg22
F341.5835
sg23
g2
(g24
g4
Ntp3701
Rp3702
(dp3703
g28
F0.0
sg29
g30
sg31
F0.0
sbsg32
g33
((lp3704
g49
atp3705
Rp3706
sg38
g9
sg39
I2015
sbsVIND0000277
p3707
g2
(g3
g4
Ntp3708
Rp3709
(dp3710
g8
g9
sg10
F630.0
sg11
VNASIK
p3711
sg13
I2015
sg14
g15
sg16
g17
sg18
g19
sg20
g9
sg21
g3707
sg22
F3730.102
sg23
g2
(g24
g4
Ntp3712
Rp3713
(dp3714
g28
F0.0
sg29
g30
sg31
F0.0
sbsg32
g33
((lp3715
g61
ag62
atp3716
Rp3717
sg38
g9
sg39
I2015
sbsVIND0000278
p3718
g2
(g3
g4
Ntp3719
Rp3720
(dp3721
g8
g9
sg10
F270.0
sg11
VNASIK TPP  PH 1
p3722
sg13
I2015
sg14
g15
sg16
g17
sg18
g19
sg20
g9
sg21
g3718
sg22
F0.0
sg23
g2
(g24
g4
Ntp3723
Rp3724
(dp3725
g28
F0.0
sg29
g30
sg31
F0.0
sbsg32
g33
((lp3726
g61
ag62
atp3727
Rp3728
sg38
g9
sg39
I2015
sbsVIND0000279
p3729
g2
(g3
g4
Ntp3730
Rp3731
(dp3732
g8
g9
sg10
F1500.0
sg11
VNATHPA JHAKRI
p3733
sg13
I2015
sg14
g15
sg16
g17
sg18
g19
sg20
g9
sg21
g3729
sg22
F6803.3125
sg23
g2
(g24
g4
Ntp3734
Rp3735
(dp3736
g28
F0.0
sg29
g30
sg31
F0.0
sbsg32
g33
((lp3737
g49
atp3738
Rp3739
sg38
g9
sg39
I2015
sbsVIND0000101
p3740
g2
(g3
g4
Ntp3741
Rp3742
(dp3743
g8
g9
sg10
F350.0
sg11
VDURGAPUR
p3744
sg13
I2015
sg14
g15
sg16
g17
sg18
g19
sg20
g9
sg21
g3740
sg22
F1153.653
sg23
g2
(g24
g4
Ntp3745
Rp3746
(dp3747
g28
F0.0
sg29
g30
sg31
F0.0
sbsg32
g33
((lp3748
g61
ag62
atp3749
Rp3750
sg38
g9
sg39
I2015
sbsVIND0000472
p3751
g2
(g3
g4
Ntp3752
Rp3753
(dp3754
g8
g9
sg10
F52.8
sg11
VVALANTHARVI GT
p3755
sg13
I2015
sg14
g15
sg16
g17
sg18
g19
sg20
g9
sg21
g3751
sg22
F386.916
sg23
g2
(g24
g4
Ntp3756
Rp3757
(dp3758
g28
F0.0
sg29
g30
sg31
F0.0
sbsg32
g33
((lp3759
g35
atp3760
Rp3761
sg38
g9
sg39
I2015
sbsVIND0000473
p3762
g2
(g3
g4
Ntp3763
Rp3764
(dp3765
g8
g9
sg10
F1500.0
sg11
VVALLUR ntpc/ntecl
p3766
sg13
I2015
sg14
g15
sg16
g17
sg18
g19
sg20
g9
sg21
g3762
sg22
F5337.31
sg23
g2
(g24
g4
Ntp3767
Rp3768
(dp3769
g28
F0.0
sg29
g30
sg31
F0.0
sbsg32
g33
((lp3770
g61
ag62
atp3771
Rp3772
sg38
g9
sg39
I2015
sbsVIND0000470
p3773
g2
(g3
g4
Ntp3774
Rp3775
(dp3776
g8
g9
sg10
F13.5
sg11
VVAIGAI DAM
p3777
sg13
I2015
sg14
g15
sg16
g17
sg18
g19
sg20
g9
sg21
g3773
sg22
F0.0
sg23
g2
(g24
g4
Ntp3778
Rp3779
(dp3780
g28
F0.0
sg29
g30
sg31
F0.0
sbsg32
g33
((lp3781
g49
atp3782
Rp3783
sg38
g9
sg39
I2015
sbsVIND0000471
p3784
g2
(g3
g4
Ntp3785
Rp3786
(dp3787
g8
g9
sg10
F60.0
sg11
VVAITARNA
p3788
sg13
I2015
sg14
g15
sg16
g17
sg18
g19
sg20
g9
sg21
g3784
sg22
F202.80089999999998
sg23
g2
(g24
g4
Ntp3789
Rp3790
(dp3791
g28
F0.0
sg29
g30
sg31
F0.0
sbsg32
g33
((lp3792
g49
atp3793
Rp3794
sg38
g9
sg39
I2015
sbsVIND0000476
p3795
g2
(g3
g4
Ntp3796
Rp3797
(dp3798
g8
g9
sg10
F100.0
sg11
VVATWA TORR
p3799
sg13
I2015
sg14
g15
sg16
g17
sg18
g19
sg20
g9
sg21
g3795
sg22
F0.0
sg23
g2
(g24
g4
Ntp3800
Rp3801
(dp3802
g28
F0.0
sg29
g30
sg31
F0.0
sbsg32
g33
((lp3803
g62
ag35
atp3804
Rp3805
sg38
g9
sg39
I2015
sbsVIND0000477
p3806
g2
(g3
g4
Ntp3807
Rp3808
(dp3809
g8
g9
sg10
F388.5
sg11
VVEMAGIRI CCCP
p3810
sg13
I2015
sg14
g15
sg16
g17
sg18
g19
sg20
g9
sg21
g3806
sg22
F0.0
sg23
g2
(g24
g4
Ntp3811
Rp3812
(dp3813
g28
F0.0
sg29
g30
sg31
F0.0
sbsg32
g33
((lp3814
g35
atp3815
Rp3816
sg38
g9
sg39
I2015
sbsVIND0000474
p3817
g2
(g3
g4
Ntp3818
Rp3819
(dp3820
g8
g9
sg10
F186.2
sg11
VVALUTHUR GT
p3821
sg13
I2015
sg14
g15
sg16
g17
sg18
g19
sg20
g9
sg21
g3817
sg22
F1014.8
sg23
g2
(g24
g4
Ntp3822
Rp3823
(dp3824
g28
F0.0
sg29
g30
sg31
F0.0
sbsg32
g33
((lp3825
g35
atp3826
Rp3827
sg38
g9
sg39
I2015
sbsVIND0000475
p3828
g2
(g3
g4
Ntp3829
Rp3830
(dp3831
g8
g9
sg10
F460.0
sg11
VVARAHI
p3832
sg13
I2015
sg14
g15
sg16
g17
sg18
g19
sg20
g9
sg21
g3828
sg22
F1313.86765
sg23
g2
(g24
g4
Ntp3833
Rp3834
(dp3835
g28
F0.0
sg29
g30
sg31
F0.0
sbsg32
g33
((lp3836
g49
atp3837
Rp3838
sg38
g9
sg39
I2015
sbsVIND0000478
p3839
g2
(g3
g4
Ntp3840
Rp3841
(dp3842
g8
g9
sg10
F1260.0
sg11
VVIJAYWADA
p3843
sg13
I2015
sg14
g15
sg16
g17
sg18
g19
sg20
g9
sg21
g3839
sg22
F8197.97
sg23
g2
(g24
g4
Ntp3844
Rp3845
(dp3846
g28
F0.0
sg29
g30
sg31
F0.0
sbsg32
g33
((lp3847
g61
ag62
atp3848
Rp3849
sg38
g9
sg39
I2015
sbsVIND0000479
p3850
g2
(g3
g4
Ntp3851
Rp3852
(dp3853
g8
g9
sg10
F500.0
sg11
VVIJAYWADA TPP-IV
p3854
sg13
I2015
sg14
g15
sg16
g17
sg18
g19
sg20
g9
sg21
g3850
sg22
F3429.3
sg23
g2
(g24
g4
Ntp3855
Rp3856
(dp3857
g28
F0.0
sg29
g30
sg31
F0.0
sbsg32
g33
((lp3858
g61
ag62
atp3859
Rp3860
sg38
g9
sg39
I2015
sbsVIND0000468
p3861
g2
(g3
g4
Ntp3862
Rp3863
(dp3864
g8
g9
sg10
F135.0
sg11
VUTRAN GT
p3865
sg13
I2015
sg14
g15
sg16
g17
sg18
g19
sg20
g9
sg21
g3861
sg22
F0.0
sg23
g2
(g24
g4
Ntp3866
Rp3867
(dp3868
g28
F0.0
sg29
g30
sg31
F0.0
sbsg32
g33
((lp3869
g35
atp3870
Rp3871
sg38
g9
sg39
I2015
sbsVIND0000058
p3872
g2
(g3
g4
Ntp3873
Rp3874
(dp3875
g8
g9
sg10
F0.0
sg11
VBOKARO A
p3876
sg13
I2015
sg14
g15
sg16
g17
sg18
g19
sg20
g9
sg21
g3872
sg22
F0.0
sg23
g2
(g24
g4
Ntp3877
Rp3878
(dp3879
g28
F0.0
sg29
g30
sg31
F0.0
sbsg32
g33
((lp3880
g61
ag62
atp3881
Rp3882
sg38
g9
sg39
I2015
sbsVIND0000059
p3883
g2
(g3
g4
Ntp3884
Rp3885
(dp3886
g8
g9
sg10
F630.0
sg11
VBOKARO B
p3887
sg13
I2015
sg14
g15
sg16
g17
sg18
g19
sg20
g9
sg21
g3883
sg22
F1438.87
sg23
g2
(g24
g4
Ntp3888
Rp3889
(dp3890
g28
F0.0
sg29
g30
sg31
F0.0
sbsg32
g33
((lp3891
g61
ag62
atp3892
Rp3893
sg38
g9
sg39
I2015
sbsVIND0000193
p3894
g2
(g3
g4
Ntp3895
Rp3896
(dp3897
g8
g9
sg10
F445.0
sg11
VKONASEEMA CCCP
p3898
sg13
I2015
sg14
g15
sg16
g17
sg18
g19
sg20
g9
sg21
g3894
sg22
F0.0
sg23
g2
(g24
g4
Ntp3899
Rp3900
(dp3901
g28
F0.0
sg29
g30
sg31
F0.0
sbsg32
g33
((lp3902
g35
atp3903
Rp3904
sg38
g9
sg39
I2015
sbsVIND0000192
p3905
g2
(g3
g4
Ntp3906
Rp3907
(dp3908
g8
g9
sg10
F400.0
sg11
VKOLDAM
p3909
sg13
I2015
sg14
g15
sg16
g17
sg18
g19
sg20
g9
sg21
g3905
sg22
F0.25
sg23
g2
(g24
g4
Ntp3910
Rp3911
(dp3912
g28
F0.0
sg29
g30
sg31
F0.0
sbsg32
g33
((lp3913
g49
atp3914
Rp3915
sg38
g9
sg39
I2015
sbsVIND0000195
p3916
g2
(g3
g4
Ntp3917
Rp3918
(dp3919
g8
g9
sg10
F225.0
sg11
VKOPILI
p3920
sg13
I2015
sg14
g15
sg16
g17
sg18
g19
sg20
g9
sg21
g3916
sg22
F626.3127000000001
sg23
g2
(g24
g4
Ntp3921
Rp3922
(dp3923
g28
F0.0
sg29
g30
sg31
F0.0
sbsg32
g33
((lp3924
g49
atp3925
Rp3926
sg38
g9
sg39
I2015
sbsVIND0000194
p3927
g2
(g3
g4
Ntp3928
Rp3929
(dp3930
g8
g9
sg10
F716.0
sg11
VKONDAPALLI GT
p3931
sg13
I2015
sg14
g15
sg16
g17
sg18
g19
sg20
g9
sg21
g3927
sg22
F559.01
sg23
g2
(g24
g4
Ntp3932
Rp3933
(dp3934
g28
F0.0
sg29
g30
sg31
F0.0
sbsg32
g33
((lp3935
g35
atp3936
Rp3937
sg38
g9
sg39
I2015
sbsVIND0000197
p3938
g2
(g3
g4
Ntp3939
Rp3940
(dp3941
g8
g9
sg10
F2600.0
sg11
VKORBA STPS
p3942
sg13
I2015
sg14
g15
sg16
g17
sg18
g19
sg20
g9
sg21
g3938
sg22
F18807.0
sg23
g2
(g24
g4
Ntp3943
Rp3944
(dp3945
g28
F0.0
sg29
g30
sg31
F0.0
sbsg32
g33
((lp3946
g61
ag62
atp3947
Rp3948
sg38
g9
sg39
I2015
sbsVIND0000196
p3949
g2
(g3
g4
Ntp3950
Rp3951
(dp3952
g8
g9
sg10
F1280.0
sg11
VKORADI
p3953
sg13
I2015
sg14
g15
sg16
g17
sg18
g19
sg20
g9
sg21
g3949
sg22
F2022.57
sg23
g2
(g24
g4
Ntp3954
Rp3955
(dp3956
g28
F0.0
sg29
g30
sg31
F0.0
sbsg32
g33
((lp3957
g61
ag62
atp3958
Rp3959
sg38
g9
sg39
I2015
sbsVIND0000050
p3960
g2
(g3
g4
Ntp3961
Rp3962
(dp3963
g8
g9
sg10
F500.0
sg11
VBHILAI TPP
p3964
sg13
I2015
sg14
g15
sg16
g17
sg18
g19
sg20
g9
sg21
g3960
sg22
F2962.72
sg23
g2
(g24
g4
Ntp3965
Rp3966
(dp3967
g28
F0.0
sg29
g30
sg31
F0.0
sbsg32
g33
((lp3968
g61
ag62
atp3969
Rp3970
sg38
g9
sg39
I2015
sbsVIND0000051
p3971
g2
(g3
g4
Ntp3972
Rp3973
(dp3974
g8
g9
sg10
F300.0
sg11
VBHIRA
p3975
sg13
I2015
sg14
g15
sg16
g17
sg18
g19
sg20
g9
sg21
g3971
sg22
F832.8846500000001
sg23
g2
(g24
g4
Ntp3976
Rp3977
(dp3978
g28
F0.0
sg29
g30
sg31
F0.0
sbsg32
g33
((lp3979
g49
atp3980
Rp3981
sg38
g9
sg39
I2015
sbsVIND0000052
p3982
g2
(g3
g4
Ntp3983
Rp3984
(dp3985
g8
g9
sg10
F80.0
sg11
VBHIRA TAIL RACE
p3986
sg13
I2015
sg14
g15
sg16
g17
sg18
g19
sg20
g9
sg21
g3982
sg22
F90.79375
sg23
g2
(g24
g4
Ntp3987
Rp3988
(dp3989
g28
F0.0
sg29
g30
sg31
F0.0
sbsg32
g33
((lp3990
g49
atp3991
Rp3992
sg38
g9
sg39
I2015
sbsVIND0000053
p3993
g2
(g3
g4
Ntp3994
Rp3995
(dp3996
g8
g9
sg10
F75.0
sg11
VBHIVPURI
p3997
sg13
I2015
sg14
g15
sg16
g17
sg18
g19
sg20
g9
sg21
g3993
sg22
F299.1766
sg23
g2
(g24
g4
Ntp3998
Rp3999
(dp4000
g28
F0.0
sg29
g30
sg31
F0.0
sbsg32
g33
((lp4001
g49
atp4002
Rp4003
sg38
g9
sg39
I2015
sbsVIND0000054
p4004
g2
(g3
g4
Ntp4005
Rp4006
(dp4007
g8
g9
sg10
F1420.0
sg11
VBHUSAWAL
p4008
sg13
I2015
sg14
g15
sg16
g17
sg18
g19
sg20
g9
sg21
g4004
sg22
F5855.07
sg23
g2
(g24
g4
Ntp4009
Rp4010
(dp4011
g28
F0.0
sg29
g30
sg31
F0.0
sbsg32
g33
((lp4012
g61
ag62
atp4013
Rp4014
sg38
g9
sg39
I2015
sbsVIND0000055
p4015
g2
(g3
g4
Ntp4016
Rp4017
(dp4018
g8
g9
sg10
F500.0
sg11
VBINA TPP
p4019
sg13
I2015
sg14
g15
sg16
g17
sg18
g19
sg20
g9
sg21
g4015
sg22
F2236.9908
sg23
g2
(g24
g4
Ntp4020
Rp4021
(dp4022
g28
F0.0
sg29
g30
sg31
F0.0
sbsg32
g33
((lp4023
g61
ag62
atp4024
Rp4025
sg38
g9
sg39
I2015
sbsVIND0000056
p4026
g2
(g3
g4
Ntp4027
Rp4028
(dp4029
g8
g9
sg10
F6.0
sg11
VBINWA
p4030
sg13
I2015
sg14
g15
sg16
g17
sg18
g19
sg20
g9
sg21
g4026
sg22
F0.0
sg23
g2
(g24
g4
Ntp4031
Rp4032
(dp4033
g28
F0.0
sg29
g30
sg31
F0.0
sbsg32
g33
((lp4034
g49
atp4035
Rp4036
sg38
g9
sg39
I2015
sbsVIND0000057
p4037
g2
(g3
g4
Ntp4038
Rp4039
(dp4040
g8
g9
sg10
F20.0
sg11
VBIRSINGHPUR
p4041
sg13
I2015
sg14
g15
sg16
g17
sg18
g19
sg20
g9
sg21
g4037
sg22
F0.0
sg23
g2
(g24
g4
Ntp4042
Rp4043
(dp4044
g28
F0.0
sg29
g30
sg31
F0.0
sbsg32
g33
((lp4045
g49
atp4046
Rp4047
sg38
g9
sg39
I2015
sbsVIND0000353
p4048
g2
(g3
g4
Ntp4049
Rp4050
(dp4051
g8
g9
sg10
F600.0
sg11
VRANJIT SAGAR
p4052
sg13
I2015
sg14
g15
sg16
g17
sg18
g19
sg20
g9
sg21
g4048
sg22
F1853.4859999999999
sg23
g2
(g24
g4
Ntp4053
Rp4054
(dp4055
g28
F0.0
sg29
g30
sg31
F0.0
sbsg32
g33
((lp4056
g49
atp4057
Rp4058
sg38
g9
sg39
I2015
sbsVIND0000352
p4059
g2
(g3
g4
Ntp4060
Rp4061
(dp4062
g8
g9
sg10
F60.0
sg11
VRANGIT-III
p4063
sg13
I2015
sg14
g15
sg16
g17
sg18
g19
sg20
g9
sg21
g4059
sg22
F326.0416
sg23
g2
(g24
g4
Ntp4064
Rp4065
(dp4066
g28
F0.0
sg29
g30
sg31
F0.0
sbsg32
g33
((lp4067
g49
atp4068
Rp4069
sg38
g9
sg39
I2015
sbsVIND0000298
p4070
g2
(g3
g4
Ntp4071
Rp4072
(dp4073
g8
g9
sg10
F330.5
sg11
VP.NALLUR CCGT
p4074
sg13
I2015
sg14
g15
sg16
g17
sg18
g19
sg20
g9
sg21
g4070
sg22
F1142.965769
sg23
g2
(g24
g4
Ntp4075
Rp4076
(dp4077
g28
F0.0
sg29
g30
sg31
F0.0
sbsg32
g33
((lp4078
g35
atp4079
Rp4080
sg38
g9
sg39
I2015
sbsVIND0000299
p4081
g2
(g3
g4
Ntp4082
Rp4083
(dp4084
g8
g9
sg10
F655.0
sg11
VPAGUTHAN
p4085
sg13
I2015
sg14
g15
sg16
g17
sg18
g19
sg20
g9
sg21
g4081
sg22
F290.59
sg23
g2
(g24
g4
Ntp4086
Rp4087
(dp4088
g28
F0.0
sg29
g30
sg31
F0.0
sbsg32
g33
((lp4089
g35
atp4090
Rp4091
sg38
g9
sg39
I2015
sbsVIND0000357
p4092
g2
(g3
g4
Ntp4093
Rp4094
(dp4095
g8
g9
sg10
F48.0
sg11
VRELIANCE ENERGY
p4096
sg13
I2015
sg14
g15
sg16
g17
sg18
g19
sg20
g9
sg21
g4092
sg22
F12.214
sg23
g2
(g24
g4
Ntp4097
Rp4098
(dp4099
g28
F0.0
sg29
g30
sg31
F0.0
sbsg32
g33
((lp4100
g35
atp4101
Rp4102
sg38
g9
sg39
I2015
sbsVIND0000356
p4103
g2
(g3
g4
Ntp4104
Rp4105
(dp4106
g8
g9
sg10
F1050.0
sg11
VRAYAL SEEMA
p4107
sg13
I2015
sg14
g15
sg16
g17
sg18
g19
sg20
g9
sg21
g4103
sg22
F6420.386
sg23
g2
(g24
g4
Ntp4108
Rp4109
(dp4110
g28
F0.0
sg29
g30
sg31
F0.0
sbsg32
g33
((lp4111
g61
ag62
atp4112
Rp4113
sg38
g9
sg39
I2015
sbsVIND0000355
p4114
g2
(g3
g4
Ntp4115
Rp4116
(dp4117
g8
g9
sg10
F1967.08
sg11
VRATNAGIRI GAS
p4118
sg13
I2015
sg14
g15
sg16
g17
sg18
g19
sg20
g9
sg21
g4114
sg22
F0.045355
sg23
g2
(g24
g4
Ntp4119
Rp4120
(dp4121
g28
F0.0
sg29
g30
sg31
F0.0
sbsg32
g33
((lp4122
g35
atp4123
Rp4124
sg38
g9
sg39
I2015
sbsVIND0000354
p4125
g2
(g3
g4
Ntp4126
Rp4127
(dp4128
g8
g9
sg10
F50.0
sg11
VRATIJA TPP
p4129
sg13
I2015
sg14
g15
sg16
g17
sg18
g19
sg20
g9
sg21
g4125
sg22
F215.21
sg23
g2
(g24
g4
Ntp4130
Rp4131
(dp4132
g28
F0.0
sg29
g30
sg31
F0.0
sbsg32
g33
((lp4133
g61
ag62
atp4134
Rp4135
sg38
g9
sg39
I2015
sbsVIND0000292
p4136
g2
(g3
g4
Ntp4137
Rp4138
(dp4139
g8
g9
sg10
F630.0
sg11
VNORTH CHENNAI
p4140
sg13
I2015
sg14
g15
sg16
g17
sg18
g19
sg20
g9
sg21
g4136
sg22
F3864.434
sg23
g2
(g24
g4
Ntp4141
Rp4142
(dp4143
g28
F0.0
sg29
g30
sg31
F0.0
sbsg32
g33
((lp4144
g61
ag62
atp4145
Rp4146
sg38
g9
sg39
I2015
sbsVIND0000293
p4147
g2
(g3
g4
Ntp4148
Rp4149
(dp4150
g8
g9
sg10
F1200.0
sg11
VNORTH CHENNAI EXTENSION
p4151
sg13
I2015
sg14
g15
sg16
g17
sg18
g19
sg20
g9
sg21
g4147
sg22
F5187.0794
sg23
g2
(g24
g4
Ntp4152
Rp4153
(dp4154
g28
F0.0
sg29
g30
sg31
F0.0
sbsg32
g33
((lp4155
g61
ag62
atp4156
Rp4157
sg38
g9
sg39
I2015
sbsVIND0000290
p4158
g2
(g3
g4
Ntp4159
Rp4160
(dp4161
g8
g9
sg10
F45.0
sg11
VNIWARI TPP
p4162
sg13
I2015
sg14
g15
sg16
g17
sg18
g19
sg20
g9
sg21
g4158
sg22
F298.28
sg23
g2
(g24
g4
Ntp4163
Rp4164
(dp4165
g28
F0.0
sg29
g30
sg31
F0.0
sbsg32
g33
((lp4166
g61
ag62
atp4167
Rp4168
sg38
g9
sg39
I2015
sbsVIND0000291
p4169
g2
(g3
g4
Ntp4170
Rp4171
(dp4172
g8
g9
sg10
F10.0
sg11
VNIZAM SAGAR
p4173
sg13
I2015
sg14
g15
sg16
g17
sg18
g19
sg20
g9
sg21
g4169
sg22
F0.0
sg23
g2
(g24
g4
Ntp4174
Rp4175
(dp4176
g28
F0.0
sg29
g30
sg31
F0.0
sbsg32
g33
((lp4177
g49
atp4178
Rp4179
sg38
g9
sg39
I2015
sbsVIND0000296
p4180
g2
(g3
g4
Ntp4181
Rp4182
(dp4183
g8
g9
sg10
F1278.0
sg11
VOBRA-A
p4184
sg13
I2015
sg14
g15
sg16
g17
sg18
g19
sg20
g9
sg21
g4180
sg22
F3182.742
sg23
g2
(g24
g4
Ntp4185
Rp4186
(dp4187
g28
F0.0
sg29
g30
sg31
F0.0
sbsg32
g33
((lp4188
g61
ag62
atp4189
Rp4190
sg38
g9
sg39
I2015
sbsVIND0000297
p4191
g2
(g3
g4
Ntp4192
Rp4193
(dp4194
g8
g9
sg10
F520.0
sg11
VOMKARESHWAR
p4195
sg13
I2015
sg14
g15
sg16
g17
sg18
g19
sg20
g9
sg21
g4191
sg22
F1123.28535
sg23
g2
(g24
g4
Ntp4196
Rp4197
(dp4198
g28
F0.0
sg29
g30
sg31
F0.0
sbsg32
g33
((lp4199
g49
atp4200
Rp4201
sg38
g9
sg39
I2015
sbsVIND0000294
p4202
g2
(g3
g4
Ntp4203
Rp4204
(dp4205
g8
g9
sg10
F6.0
sg11
VNURANANG
p4206
sg13
I2015
sg14
g15
sg16
g17
sg18
g19
sg20
g9
sg21
g4202
sg22
F0.0
sg23
g2
(g24
g4
Ntp4207
Rp4208
(dp4209
g28
F0.0
sg29
g30
sg31
F0.0
sbsg32
g33
((lp4210
g49
atp4211
Rp4212
sg38
g9
sg39
I2015
sbsVIND0000295
p4213
g2
(g3
g4
Ntp4214
Rp4215
(dp4216
g8
g9
sg10
F99.0
sg11
VOBRA
p4217
sg13
I2015
sg14
g15
sg16
g17
sg18
g19
sg20
g9
sg21
g4213
sg22
F227.855
sg23
g2
(g24
g4
Ntp4218
Rp4219
(dp4220
g28
F0.0
sg29
g30
sg31
F0.0
sbsg32
g33
((lp4221
g49
atp4222
Rp4223
sg38
g9
sg39
I2015
sbsVIND0000396
p4224
g2
(g3
g4
Ntp4225
Rp4226
(dp4227
g8
g9
sg10
F600.0
sg11
VSIMHAPURI TPP
p4228
sg13
I2015
sg14
g15
sg16
g17
sg18
g19
sg20
g9
sg21
g4224
sg22
F2881.574
sg23
g2
(g24
g4
Ntp4229
Rp4230
(dp4231
g28
F0.0
sg29
g30
sg31
F0.0
sbsg32
g33
((lp4232
g61
ag62
atp4233
Rp4234
sg38
g9
sg39
I2015
sbsVIND0000128
p4235
g2
(g3
g4
Ntp4236
Rp4237
(dp4238
g8
g9
sg10
F15.0
sg11
VGUMTI
p4239
sg13
I2015
sg14
g15
sg16
g17
sg18
g19
sg20
g9
sg21
g4235
sg22
F0.0
sg23
g2
(g24
g4
Ntp4240
Rp4241
(dp4242
g28
F0.0
sg29
g30
sg31
F0.0
sbsg32
g33
((lp4243
g49
atp4244
Rp4245
sg38
g9
sg39
I2015
sbsVIND0000129
p4246
g2
(g3
g4
Ntp4247
Rp4248
(dp4249
g8
g9
sg10
F665.0
sg11
VH_GANJ B
p4250
sg13
I2015
sg14
g15
sg16
g17
sg18
g19
sg20
g9
sg21
g4246
sg22
F3274.84
sg23
g2
(g24
g4
Ntp4251
Rp4252
(dp4253
g28
F0.0
sg29
g30
sg31
F0.0
sbsg32
g33
((lp4254
g61
ag62
atp4255
Rp4256
sg38
g9
sg39
I2015
sbsVIND0000124
p4257
g2
(g3
g4
Ntp4258
Rp4259
(dp4260
g8
g9
sg10
F250.0
sg11
VGIRAL
p4261
sg13
I2015
sg14
g15
sg16
g17
sg18
g19
sg20
g9
sg21
g4257
sg22
F279.25
sg23
g2
(g24
g4
Ntp4262
Rp4263
(dp4264
g28
F0.0
sg29
g30
sg31
F0.0
sbsg32
g33
((lp4265
g61
ag62
atp4266
Rp4267
sg38
g9
sg39
I2015
sbsVIND0000125
p4268
g2
(g3
g4
Ntp4269
Rp4270
(dp4271
g8
g9
sg10
F60.0
sg11
VGIRI BATA
p4272
sg13
I2015
sg14
g15
sg16
g17
sg18
g19
sg20
g9
sg21
g4268
sg22
F198.8209
sg23
g2
(g24
g4
Ntp4273
Rp4274
(dp4275
g28
F0.0
sg29
g30
sg31
F0.0
sbsg32
g33
((lp4276
g49
atp4277
Rp4278
sg38
g9
sg39
I2015
sbsVIND0000126
p4279
g2
(g3
g4
Ntp4280
Rp4281
(dp4282
g8
g9
sg10
F440.0
sg11
VGNDTP(BHATINDA)
p4283
sg13
I2015
sg14
g15
sg16
g17
sg18
g19
sg20
g9
sg21
g4279
sg22
F1286.12
sg23
g2
(g24
g4
Ntp4284
Rp4285
(dp4286
g28
F0.0
sg29
g30
sg31
F0.0
sbsg32
g33
((lp4287
g61
ag62
atp4288
Rp4289
sg38
g9
sg39
I2015
sbsVIND0000127
p4290
g2
(g3
g4
Ntp4291
Rp4292
(dp4293
g8
g9
sg10
F205.24
sg11
VGODAVARI GT
p4294
sg13
I2015
sg14
g15
sg16
g17
sg18
g19
sg20
g9
sg21
g4290
sg22
F525.099
sg23
g2
(g24
g4
Ntp4295
Rp4296
(dp4297
g28
F0.0
sg29
g30
sg31
F0.0
sbsg32
g33
((lp4298
g35
atp4299
Rp4300
sg38
g9
sg39
I2015
sbsVIND0000120
p4301
g2
(g3
g4
Ntp4302
Rp4303
(dp4304
g8
g9
sg10
F22.5
sg11
VGHANVI
p4305
sg13
I2015
sg14
g15
sg16
g17
sg18
g19
sg20
g9
sg21
g4301
sg22
F0.0
sg23
g2
(g24
g4
Ntp4306
Rp4307
(dp4308
g28
F0.0
sg29
g30
sg31
F0.0
sbsg32
g33
((lp4309
g49
atp4310
Rp4311
sg38
g9
sg39
I2015
sbsVIND0000121
p4312
g2
(g3
g4
Ntp4313
Rp4314
(dp4315
g8
g9
sg10
F32.0
sg11
VGHAT PRABHA
p4316
sg13
I2015
sg14
g15
sg16
g17
sg18
g19
sg20
g9
sg21
g4312
sg22
F65.7098
sg23
g2
(g24
g4
Ntp4317
Rp4318
(dp4319
g28
F0.0
sg29
g30
sg31
F0.0
sbsg32
g33
((lp4320
g49
atp4321
Rp4322
sg38
g9
sg39
I2015
sbsVIND0000122
p4323
g2
(g3
g4
Ntp4324
Rp4325
(dp4326
g8
g9
sg10
F250.0
sg11
VGHATGHAR PSS
p4327
sg13
I2015
sg14
g15
sg16
g17
sg18
g19
sg20
g9
sg21
g4323
sg22
F318.64875
sg23
g2
(g24
g4
Ntp4328
Rp4329
(dp4330
g28
F0.0
sg29
g30
sg31
F0.0
sbsg32
g33
((lp4331
g49
atp4332
Rp4333
sg38
g9
sg39
I2015
sbsVIND0000123
p4334
g2
(g3
g4
Ntp4335
Rp4336
(dp4337
g8
g9
sg10
F920.0
sg11
VGHTP (LEH.MOH.)
p4338
sg13
I2015
sg14
g15
sg16
g17
sg18
g19
sg20
g9
sg21
g4334
sg22
F4117.339
sg23
g2
(g24
g4
Ntp4339
Rp4340
(dp4341
g28
F0.0
sg29
g30
sg31
F0.0
sbsg32
g33
((lp4342
g61
ag62
atp4343
Rp4344
sg38
g9
sg39
I2015
sbsVIND0000391
p4345
g2
(g3
g4
Ntp4346
Rp4347
(dp4348
g8
g9
sg10
F54.0
sg11
VSHOLAYAR
p4349
sg13
I2015
sg14
g15
sg16
g17
sg18
g19
sg20
g9
sg21
g4345
sg22
F237.05875
sg23
g2
(g24
g4
Ntp4350
Rp4351
(dp4352
g28
F0.0
sg29
g30
sg31
F0.0
sbsg32
g33
((lp4353
g49
atp4354
Rp4355
sg38
g9
sg39
I2015
sbsVIND0000390
p4356
g2
(g3
g4
Ntp4357
Rp4358
(dp4359
g8
g9
sg10
F18.0
sg11
VSHIVAPURA
p4360
sg13
I2015
sg14
g15
sg16
g17
sg18
g19
sg20
g9
sg21
g4356
sg22
F0.0
sg23
g2
(g24
g4
Ntp4361
Rp4362
(dp4363
g28
F0.0
sg29
g30
sg31
F0.0
sbsg32
g33
((lp4364
g49
atp4365
Rp4366
sg38
g9
sg39
I2015
sbsVIND0000438
p4367
g2
(g3
g4
Ntp4368
Rp4369
(dp4370
g8
g9
sg10
F240.0
sg11
VTITAGARH
p4371
sg13
I2015
sg14
g15
sg16
g17
sg18
g19
sg20
g9
sg21
g4367
sg22
F1542.27
sg23
g2
(g24
g4
Ntp4372
Rp4373
(dp4374
g28
F0.0
sg29
g30
sg31
F0.0
sbsg32
g33
((lp4375
g61
ag62
atp4376
Rp4377
sg38
g9
sg39
I2015
sbsVIND0000439
p4378
g2
(g3
g4
Ntp4379
Rp4380
(dp4381
g8
g9
sg10
F600.0
sg11
VTORANGALLU EXT
p4382
sg13
I2015
sg14
g15
sg16
g17
sg18
g19
sg20
g9
sg21
g4378
sg22
F4735.13
sg23
g2
(g24
g4
Ntp4383
Rp4384
(dp4385
g28
F0.0
sg29
g30
sg31
F0.0
sbsg32
g33
((lp4386
g61
ag62
atp4387
Rp4388
sg38
g9
sg39
I2015
sbsVIND0000436
p4389
g2
(g3
g4
Ntp4390
Rp4391
(dp4392
g8
g9
sg10
F4.0
sg11
VTILLAYA
p4393
sg13
I2015
sg14
g15
sg16
g17
sg18
g19
sg20
g9
sg21
g4389
sg22
F0.0
sg23
g2
(g24
g4
Ntp4394
Rp4395
(dp4396
g28
F0.0
sg29
g30
sg31
F0.0
sbsg32
g33
((lp4397
g49
atp4398
Rp4399
sg38
g9
sg39
I2015
sbsVIND0000437
p4400
g2
(g3
g4
Ntp4401
Rp4402
(dp4403
g8
g9
sg10
F3300.0
sg11
VTIRORA TPP
p4404
sg13
I2015
sg14
g15
sg16
g17
sg18
g19
sg20
g9
sg21
g4400
sg22
F15501.0
sg23
g2
(g24
g4
Ntp4405
Rp4406
(dp4407
g28
F0.0
sg29
g30
sg31
F0.0
sbsg32
g33
((lp4408
g61
ag62
atp4409
Rp4410
sg38
g9
sg39
I2015
sbsVIND0000434
p4411
g2
(g3
g4
Ntp4412
Rp4413
(dp4414
g8
g9
sg10
F4.5
sg11
VTHIROT
p4415
sg13
I2015
sg14
g15
sg16
g17
sg18
g19
sg20
g9
sg21
g4411
sg22
F0.0
sg23
g2
(g24
g4
Ntp4416
Rp4417
(dp4418
g28
F0.0
sg29
g30
sg31
F0.0
sbsg32
g33
((lp4419
g49
atp4420
Rp4421
sg38
g9
sg39
I2015
sbsVIND0000435
p4422
g2
(g3
g4
Ntp4423
Rp4424
(dp4425
g8
g9
sg10
F60.0
sg11
VTILLARI
p4426
sg13
I2015
sg14
g15
sg16
g17
sg18
g19
sg20
g9
sg21
g4422
sg22
F113.2907
sg23
g2
(g24
g4
Ntp4427
Rp4428
(dp4429
g28
F0.0
sg29
g30
sg31
F0.0
sbsg32
g33
((lp4430
g49
atp4431
Rp4432
sg38
g9
sg39
I2015
sbsVIND0000432
p4433
g2
(g3
g4
Ntp4434
Rp4435
(dp4436
g8
g9
sg10
F420.0
sg11
VTENUGHAT
p4437
sg13
I2015
sg14
g15
sg16
g17
sg18
g19
sg20
g9
sg21
g4433
sg22
F2100.03
sg23
g2
(g24
g4
Ntp4438
Rp4439
(dp4440
g28
F0.0
sg29
g30
sg31
F0.0
sbsg32
g33
((lp4441
g61
ag62
atp4442
Rp4443
sg38
g9
sg39
I2015
sbsVIND0000433
p4444
g2
(g3
g4
Ntp4445
Rp4446
(dp4447
g8
g9
sg10
F300.0
sg11
VTHAMMINAPATNAM TPP
p4448
sg13
I2015
sg14
g15
sg16
g17
sg18
g19
sg20
g9
sg21
g4444
sg22
F1380.61
sg23
g2
(g24
g4
Ntp4449
Rp4450
(dp4451
g28
F0.0
sg29
g30
sg31
F0.0
sbsg32
g33
((lp4452
g61
ag62
atp4453
Rp4454
sg38
g9
sg39
I2015
sbsVIND0000430
p4455
g2
(g3
g4
Ntp4456
Rp4457
(dp4458
g8
g9
sg10
F510.0
sg11
VTEESTA -V
p4459
sg13
I2015
sg14
g15
sg16
g17
sg18
g19
sg20
g9
sg21
g4455
sg22
F2573.81625
sg23
g2
(g24
g4
Ntp4460
Rp4461
(dp4462
g28
F0.0
sg29
g30
sg31
F0.0
sbsg32
g33
((lp4463
g49
atp4464
Rp4465
sg38
g9
sg39
I2015
sbsVIND0000431
p4466
g2
(g3
g4
Ntp4467
Rp4468
(dp4469
g8
g9
sg10
F1000.0
sg11
VTEHRI ST -1
p4470
sg13
I2015
sg14
g15
sg16
g17
sg18
g19
sg20
g9
sg21
g4466
sg22
F3008.4322500000003
sg23
g2
(g24
g4
Ntp4471
Rp4472
(dp4473
g28
F0.0
sg29
g30
sg31
F0.0
sbsg32
g33
((lp4474
g49
atp4475
Rp4476
sg38
g9
sg39
I2015
sbsVIND0000399
p4477
g2
(g3
g4
Ntp4478
Rp4479
(dp4480
g8
g9
sg10
F2980.0
sg11
VSIPAT STPS
p4481
sg13
I2015
sg14
g15
sg16
g17
sg18
g19
sg20
g9
sg21
g4477
sg22
F20603.0
sg23
g2
(g24
g4
Ntp4482
Rp4483
(dp4484
g28
F0.0
sg29
g30
sg31
F0.0
sbsg32
g33
((lp4485
g61
ag62
atp4486
Rp4487
sg38
g9
sg39
I2015
sbsVIND0000398
p4488
g2
(g3
g4
Ntp4489
Rp4490
(dp4491
g8
g9
sg10
F15.0
sg11
VSINGUR
p4492
sg13
I2015
sg14
g15
sg16
g17
sg18
g19
sg20
g9
sg21
g4488
sg22
F0.0
sg23
g2
(g24
g4
Ntp4493
Rp4494
(dp4495
g28
F0.0
sg29
g30
sg31
F0.0
sbsg32
g33
((lp4496
g49
atp4497
Rp4498
sg38
g9
sg39
I2015
sbsVIND0000380
p4499
g2
(g3
g4
Ntp4500
Rp4501
(dp4502
g8
g9
sg10
F1330.0
sg11
VSATPURA
p4503
sg13
I2015
sg14
g15
sg16
g17
sg18
g19
sg20
g9
sg21
g4499
sg22
F5532.937
sg23
g2
(g24
g4
Ntp4504
Rp4505
(dp4506
g28
F0.0
sg29
g30
sg31
F0.0
sbsg32
g33
((lp4507
g61
ag62
atp4508
Rp4509
sg38
g9
sg39
I2015
sbsVIND0000381
p4510
g2
(g3
g4
Ntp4511
Rp4512
(dp4513
g8
g9
sg10
F48.0
sg11
VSENGULAM
p4514
sg13
I2015
sg14
g15
sg16
g17
sg18
g19
sg20
g9
sg21
g4510
sg22
F150.61315
sg23
g2
(g24
g4
Ntp4515
Rp4516
(dp4517
g28
F0.0
sg29
g30
sg31
F0.0
sbsg32
g33
((lp4518
g49
atp4519
Rp4520
sg38
g9
sg39
I2015
sbsVIND0000229
p4521
g2
(g3
g4
Ntp4522
Rp4523
(dp4524
g8
g9
sg10
F114.75
sg11
VMACHKUND
p4525
sg13
I2015
sg14
g15
sg16
g17
sg18
g19
sg20
g9
sg21
g4521
sg22
F517.1910499999999
sg23
g2
(g24
g4
Ntp4526
Rp4527
(dp4528
g28
F0.0
sg29
g30
sg31
F0.0
sbsg32
g33
((lp4529
g49
atp4530
Rp4531
sg38
g9
sg39
I2015
sbsVIND0000228
p4532
g2
(g3
g4
Ntp4533
Rp4534
(dp4535
g8
g9
sg10
F440.0
sg11
VM.A.P.P.
p4536
sg13
I2015
sg14
g15
sg16
g17
sg18
g19
sg20
g9
sg21
g4532
sg22
F2356.63
sg23
g2
(g24
g4
Ntp4537
Rp4538
(dp4539
g28
F0.0
sg29
g30
sg31
F0.0
sbsg32
g33
((lp4540
g690
atp4541
Rp4542
sg38
g9
sg39
I2015
sbsVIND0000384
p4543
g2
(g3
g4
Ntp4544
Rp4545
(dp4546
g8
g9
sg10
F9.0
sg11
VSEWA-III
p4547
sg13
I2015
sg14
g15
sg16
g17
sg18
g19
sg20
g9
sg21
g4543
sg22
F0.0
sg23
g2
(g24
g4
Ntp4548
Rp4549
(dp4550
g28
F0.0
sg29
g30
sg31
F0.0
sbsg32
g33
((lp4551
g49
atp4552
Rp4553
sg38
g9
sg39
I2015
sbsVIND0000385
p4554
g2
(g3
g4
Ntp4555
Rp4556
(dp4557
g8
g9
sg10
F6.6
sg11
VSHAHPUR
p4558
sg13
I2015
sg14
g15
sg16
g17
sg18
g19
sg20
g9
sg21
g4554
sg22
F0.0
sg23
g2
(g24
g4
Ntp4559
Rp4560
(dp4561
g28
F0.0
sg29
g30
sg31
F0.0
sbsg32
g33
((lp4562
g49
atp4563
Rp4564
sg38
g9
sg39
I2015
sbsVIND0000386
p4565
g2
(g3
g4
Ntp4566
Rp4567
(dp4568
g8
g9
sg10
F110.0
sg11
VSHANAN
p4569
sg13
I2015
sg14
g15
sg16
g17
sg18
g19
sg20
g9
sg21
g4565
sg22
F505.2809
sg23
g2
(g24
g4
Ntp4570
Rp4571
(dp4572
g28
F0.0
sg29
g30
sg31
F0.0
sbsg32
g33
((lp4573
g49
atp4574
Rp4575
sg38
g9
sg39
I2015
sbsVIND0000387
p4576
g2
(g3
g4
Ntp4577
Rp4578
(dp4579
g8
g9
sg10
F1035.0
sg11
VSHARAVATHY
p4580
sg13
I2015
sg14
g15
sg16
g17
sg18
g19
sg20
g9
sg21
g4576
sg22
F5229.1827
sg23
g2
(g24
g4
Ntp4581
Rp4582
(dp4583
g28
F0.0
sg29
g30
sg31
F0.0
sbsg32
g33
((lp4584
g49
atp4585
Rp4586
sg38
g9
sg39
I2015
sbsVIND0000223
p4587
g2
(g3
g4
Ntp4588
Rp4589
(dp4590
g8
g9
sg10
F12.0
sg11
VLOWER LAGYAP
p4591
sg13
I2015
sg14
g15
sg16
g17
sg18
g19
sg20
g9
sg21
g4587
sg22
F0.0
sg23
g2
(g24
g4
Ntp4592
Rp4593
(dp4594
g28
F0.0
sg29
g30
sg31
F0.0
sbsg32
g33
((lp4595
g49
atp4596
Rp4597
sg38
g9
sg39
I2015
sbsVIND0000222
p4598
g2
(g3
g4
Ntp4599
Rp4600
(dp4601
g8
g9
sg10
F105.0
sg11
VLOWER JHELUM
p4602
sg13
I2015
sg14
g15
sg16
g17
sg18
g19
sg20
g9
sg21
g4598
sg22
F597.86565
sg23
g2
(g24
g4
Ntp4603
Rp4604
(dp4605
g28
F0.0
sg29
g30
sg31
F0.0
sbsg32
g33
((lp4606
g49
atp4607
Rp4608
sg38
g9
sg39
I2015
sbsVIND0000221
p4609
g2
(g3
g4
Ntp4610
Rp4611
(dp4612
g8
g9
sg10
F105.0
sg11
VLOKTAK
p4613
sg13
I2015
sg14
g15
sg16
g17
sg18
g19
sg20
g9
sg21
g4609
sg22
F370.57779999999997
sg23
g2
(g24
g4
Ntp4614
Rp4615
(dp4616
g28
F0.0
sg29
g30
sg31
F0.0
sbsg32
g33
((lp4617
g49
atp4618
Rp4619
sg38
g9
sg39
I2015
sbsVIND0000220
p4620
g2
(g3
g4
Ntp4621
Rp4622
(dp4623
g8
g9
sg10
F24.0
sg11
VLIKIM RO
p4624
sg13
I2015
sg14
g15
sg16
g17
sg18
g19
sg20
g9
sg21
g4620
sg22
F0.0
sg23
g2
(g24
g4
Ntp4625
Rp4626
(dp4627
g28
F0.0
sg29
g30
sg31
F0.0
sbsg32
g33
((lp4628
g49
atp4629
Rp4630
sg38
g9
sg39
I2015
sbsVIND0000227
p4631
g2
(g3
g4
Ntp4632
Rp4633
(dp4634
g8
g9
sg10
F36.8
sg11
VLVS POWER DG
p4635
sg13
I2015
sg14
g15
sg16
g17
sg18
g19
sg20
g9
sg21
g4631
sg22
F0.0
sg23
g2
(g24
g4
Ntp4636
Rp4637
(dp4638
g28
F0.0
sg29
g30
sg31
F0.0
sbsg32
g33
((lp4639
g62
atp4640
Rp4641
sg38
g9
sg39
I2015
sbsVIND0000226
p4642
g2
(g3
g4
Ntp4643
Rp4644
(dp4645
g8
g9
sg10
F460.0
sg11
VLOWER SILERU
p4646
sg13
I2015
sg14
g15
sg16
g17
sg18
g19
sg20
g9
sg21
g4642
sg22
F1280.67445
sg23
g2
(g24
g4
Ntp4647
Rp4648
(dp4649
g28
F0.0
sg29
g30
sg31
F0.0
sbsg32
g33
((lp4650
g49
atp4651
Rp4652
sg38
g9
sg39
I2015
sbsVIND0000225
p4653
g2
(g3
g4
Ntp4654
Rp4655
(dp4656
g8
g9
sg10
F180.0
sg11
VLOWER PERIYAR
p4657
sg13
I2015
sg14
g15
sg16
g17
sg18
g19
sg20
g9
sg21
g4653
sg22
F574.26425
sg23
g2
(g24
g4
Ntp4658
Rp4659
(dp4660
g28
F0.0
sg29
g30
sg31
F0.0
sbsg32
g33
((lp4661
g49
atp4662
Rp4663
sg38
g9
sg39
I2015
sbsVIND0000224
p4664
g2
(g3
g4
Ntp4665
Rp4666
(dp4667
g8
g9
sg10
F120.0
sg11
VLOWER METTUR
p4668
sg13
I2015
sg14
g15
sg16
g17
sg18
g19
sg20
g9
sg21
g4664
sg22
F265.37645
sg23
g2
(g24
g4
Ntp4669
Rp4670
(dp4671
g28
F0.0
sg29
g30
sg31
F0.0
sbsg32
g33
((lp4672
g49
atp4673
Rp4674
sg38
g9
sg39
I2015
sbsVIND0000094
p4675
g2
(g3
g4
Ntp4676
Rp4677
(dp4678
g8
g9
sg10
F595.2
sg11
VDHUVARAN CCPP
p4679
sg13
I2015
sg14
g15
sg16
g17
sg18
g19
sg20
g9
sg21
g4675
sg22
F145.814
sg23
g2
(g24
g4
Ntp4680
Rp4681
(dp4682
g28
F0.0
sg29
g30
sg31
F0.0
sbsg32
g33
((lp4683
g35
atp4684
Rp4685
sg38
g9
sg39
I2015
sbsVIND0000095
p4686
g2
(g3
g4
Ntp4687
Rp4688
(dp4689
g8
g9
sg10
F5.0
sg11
VDIMBE
p4690
sg13
I2015
sg14
g15
sg16
g17
sg18
g19
sg20
g9
sg21
g4686
sg22
F0.0
sg23
g2
(g24
g4
Ntp4691
Rp4692
(dp4693
g28
F0.0
sg29
g30
sg31
F0.0
sbsg32
g33
((lp4694
g49
atp4695
Rp4696
sg38
g9
sg39
I2015
sbsVIND0000096
p4697
g2
(g3
g4
Ntp4698
Rp4699
(dp4700
g8
g9
sg10
F15.5
sg11
VDLF
p4701
sg13
I2015
sg14
g15
sg16
g17
sg18
g19
sg20
g9
sg21
g4697
sg22
F0.0
sg23
g2
(g24
g4
Ntp4702
Rp4703
(dp4704
g28
F0.0
sg29
g30
sg31
F0.0
sbsg32
g33
((lp4705
g35
atp4706
Rp4707
sg38
g9
sg39
I2015
sbsVIND0000097
p4708
g2
(g3
g4
Ntp4709
Rp4710
(dp4711
g8
g9
sg10
F25.0
sg11
VDONKARAYI
p4712
sg13
I2015
sg14
g15
sg16
g17
sg18
g19
sg20
g9
sg21
g4708
sg22
F0.0
sg23
g2
(g24
g4
Ntp4713
Rp4714
(dp4715
g28
F0.0
sg29
g30
sg31
F0.0
sbsg32
g33
((lp4716
g49
atp4717
Rp4718
sg38
g9
sg39
I2015
sbsVIND0000090
p4719
g2
(g3
g4
Ntp4720
Rp4721
(dp4722
g8
g9
sg10
F600.0
sg11
VDHARIWAL INF TPP
p4723
sg13
I2015
sg14
g15
sg16
g17
sg18
g19
sg20
g9
sg21
g4719
sg22
F382.45
sg23
g2
(g24
g4
Ntp4724
Rp4725
(dp4726
g28
F0.0
sg29
g30
sg31
F0.0
sbsg32
g33
((lp4727
g61
ag62
atp4728
Rp4729
sg38
g9
sg39
I2015
sbsVIND0000091
p4730
g2
(g3
g4
Ntp4731
Rp4732
(dp4733
g8
g9
sg10
F280.0
sg11
VDHAULI GANGA
p4734
sg13
I2015
sg14
g15
sg16
g17
sg18
g19
sg20
g9
sg21
g4730
sg22
F739.77255
sg23
g2
(g24
g4
Ntp4735
Rp4736
(dp4737
g28
F0.0
sg29
g30
sg31
F0.0
sbsg32
g33
((lp4738
g49
atp4739
Rp4740
sg38
g9
sg39
I2015
sbsVIND0000092
p4741
g2
(g3
g4
Ntp4742
Rp4743
(dp4744
g8
g9
sg10
F330.0
sg11
VDHOLPUR
p4745
sg13
I2015
sg14
g15
sg16
g17
sg18
g19
sg20
g9
sg21
g4741
sg22
F829.1142
sg23
g2
(g24
g4
Ntp4746
Rp4747
(dp4748
g28
F0.0
sg29
g30
sg31
F0.0
sbsg32
g33
((lp4749
g35
atp4750
Rp4751
sg38
g9
sg39
I2015
sbsVIND0000318
p4752
g2
(g3
g4
Ntp4753
Rp4754
(dp4755
g8
g9
sg10
F10.0
sg11
VPAWANA
p4756
sg13
I2015
sg14
g15
sg16
g17
sg18
g19
sg20
g9
sg21
g4752
sg22
F0.0
sg23
g2
(g24
g4
Ntp4757
Rp4758
(dp4759
g28
F0.0
sg29
g30
sg31
F0.0
sbsg32
g33
((lp4760
g49
atp4761
Rp4762
sg38
g9
sg39
I2015
sbsVIND0000317
p4763
g2
(g3
g4
Ntp4764
Rp4765
(dp4766
g8
g9
sg10
F770.0
sg11
VPATRATU
p4767
sg13
I2015
sg14
g15
sg16
g17
sg18
g19
sg20
g9
sg21
g4763
sg22
F645.4355666294999
sg23
g2
(g24
g4
Ntp4768
Rp4769
(dp4770
g28
F0.0
sg29
g30
sg31
F0.0
sbsg32
g33
((lp4771
g61
ag62
atp4772
Rp4773
sg38
g9
sg39
I2015
sbsVIND0000316
p4774
g2
(g3
g4
Ntp4775
Rp4776
(dp4777
g8
g9
sg10
F20.4
sg11
VPATHRI
p4778
sg13
I2015
sg14
g15
sg16
g17
sg18
g19
sg20
g9
sg21
g4774
sg22
F0.0
sg23
g2
(g24
g4
Ntp4779
Rp4780
(dp4781
g28
F0.0
sg29
g30
sg31
F0.0
sbsg32
g33
((lp4782
g49
atp4783
Rp4784
sg38
g9
sg39
I2015
sbsVIND0000315
p4785
g2
(g3
g4
Ntp4786
Rp4787
(dp4788
g8
g9
sg10
F600.0
sg11
VPATHADI TPS PH -I
p4789
sg13
I2015
sg14
g15
sg16
g17
sg18
g19
sg20
g9
sg21
g4785
sg22
F2042.34
sg23
g2
(g24
g4
Ntp4790
Rp4791
(dp4792
g28
F0.0
sg29
g30
sg31
F0.0
sbsg32
g33
((lp4793
g61
ag62
atp4794
Rp4795
sg38
g9
sg39
I2015
sbsVIND0000314
p4796
g2
(g3
g4
Ntp4797
Rp4798
(dp4799
g8
g9
sg10
F30.0
sg11
VPARSEN_S VALLE
p4800
sg13
I2015
sg14
g15
sg16
g17
sg18
g19
sg20
g9
sg21
g4796
sg22
F34.65585
sg23
g2
(g24
g4
Ntp4801
Rp4802
(dp4803
g28
F0.0
sg29
g30
sg31
F0.0
sbsg32
g33
((lp4804
g49
atp4805
Rp4806
sg38
g9
sg39
I2015
sbsVIND0000313
p4807
g2
(g3
g4
Ntp4808
Rp4809
(dp4810
g8
g9
sg10
F1130.0
sg11
VPARLI
p4811
sg13
I2015
sg14
g15
sg16
g17
sg18
g19
sg20
g9
sg21
g4807
sg22
F4079.525
sg23
g2
(g24
g4
Ntp4812
Rp4813
(dp4814
g28
F0.0
sg29
g30
sg31
F0.0
sbsg32
g33
((lp4815
g61
ag62
atp4816
Rp4817
sg38
g9
sg39
I2015
sbsVIND0000312
p4818
g2
(g3
g4
Ntp4819
Rp4820
(dp4821
g8
g9
sg10
F1140.0
sg11
VPARICHA
p4822
sg13
I2015
sg14
g15
sg16
g17
sg18
g19
sg20
g9
sg21
g4818
sg22
F5673.374
sg23
g2
(g24
g4
Ntp4823
Rp4824
(dp4825
g28
F0.0
sg29
g30
sg31
F0.0
sbsg32
g33
((lp4826
g61
ag62
atp4827
Rp4828
sg38
g9
sg39
I2015
sbsVIND0000311
p4829
g2
(g3
g4
Ntp4830
Rp4831
(dp4832
g8
g9
sg10
F520.0
sg11
VPARBATI-III
p4833
sg13
I2015
sg14
g15
sg16
g17
sg18
g19
sg20
g9
sg21
g4829
sg22
F657.4761
sg23
g2
(g24
g4
Ntp4834
Rp4835
(dp4836
g28
F0.0
sg29
g30
sg31
F0.0
sbsg32
g33
((lp4837
g49
atp4838
Rp4839
sg38
g9
sg39
I2015
sbsVIND0000310
p4840
g2
(g3
g4
Ntp4841
Rp4842
(dp4843
g8
g9
sg10
F500.0
sg11
VPARAS
p4844
sg13
I2015
sg14
g15
sg16
g17
sg18
g19
sg20
g9
sg21
g4840
sg22
F2598.618
sg23
g2
(g24
g4
Ntp4845
Rp4846
(dp4847
g28
F0.0
sg29
g30
sg31
F0.0
sbsg32
g33
((lp4848
g61
ag62
atp4849
Rp4850
sg38
g9
sg39
I2015
sbsVIND0000018
p4851
g2
(g3
g4
Ntp4852
Rp4853
(dp4854
g8
g9
sg10
F705.0
sg11
VBADARPUR
p4855
sg13
I2015
sg14
g15
sg16
g17
sg18
g19
sg20
g9
sg21
g4851
sg22
F2936.0
sg23
g2
(g24
g4
Ntp4856
Rp4857
(dp4858
g28
F0.0
sg29
g30
sg31
F0.0
sbsg32
g33
((lp4859
g61
ag62
atp4860
Rp4861
sg38
g9
sg39
I2015
sbsVIND0000019
p4862
g2
(g3
g4
Ntp4863
Rp4864
(dp4865
g8
g9
sg10
F450.0
sg11
VBAGLIHAR HEP
p4866
sg13
I2015
sg14
g15
sg16
g17
sg18
g19
sg20
g9
sg21
g4862
sg22
F2925.21045
sg23
g2
(g24
g4
Ntp4867
Rp4868
(dp4869
g28
F0.0
sg29
g30
sg31
F0.0
sbsg32
g33
((lp4870
g49
atp4871
Rp4872
sg38
g9
sg39
I2015
sbsVIND0000168
p4873
g2
(g3
g4
Ntp4874
Rp4875
(dp4876
g8
g9
sg10
F32.5
sg11
VKARAIKAL
p4877
sg13
I2015
sg14
g15
sg16
g17
sg18
g19
sg20
g9
sg21
g4873
sg22
F95.0355786
sg23
g2
(g24
g4
Ntp4878
Rp4879
(dp4880
g28
F0.0
sg29
g30
sg31
F0.0
sbsg32
g33
((lp4881
g35
atp4882
Rp4883
sg38
g9
sg39
I2015
sbsVIND0000169
p4884
g2
(g3
g4
Ntp4885
Rp4886
(dp4887
g8
g9
sg10
F100.0
sg11
VKARBI LANGPI
p4888
sg13
I2015
sg14
g15
sg16
g17
sg18
g19
sg20
g9
sg21
g4884
sg22
F400.41785
sg23
g2
(g24
g4
Ntp4889
Rp4890
(dp4891
g28
F0.0
sg29
g30
sg31
F0.0
sbsg32
g33
((lp4892
g49
atp4893
Rp4894
sg38
g9
sg39
I2015
sbsVIND0000160
p4895
g2
(g3
g4
Ntp4896
Rp4897
(dp4898
g8
g9
sg10
F50.0
sg11
VKAKKAD
p4899
sg13
I2015
sg14
g15
sg16
g17
sg18
g19
sg20
g9
sg21
g4895
sg22
F191.9753
sg23
g2
(g24
g4
Ntp4900
Rp4901
(dp4902
g28
F0.0
sg29
g30
sg31
F0.0
sbsg32
g33
((lp4903
g49
atp4904
Rp4905
sg38
g9
sg39
I2015
sbsVIND0000161
p4906
g2
(g3
g4
Ntp4907
Rp4908
(dp4909
g8
g9
sg10
F440.0
sg11
VKAKRAPARA
p4910
sg13
I2015
sg14
g15
sg16
g17
sg18
g19
sg20
g9
sg21
g4906
sg22
F3155.0
sg23
g2
(g24
g4
Ntp4911
Rp4912
(dp4913
g28
F0.0
sg29
g30
sg31
F0.0
sbsg32
g33
((lp4914
g690
atp4915
Rp4916
sg38
g9
sg39
I2015
sbsVIND0000162
p4917
g2
(g3
g4
Ntp4918
Rp4919
(dp4920
g8
g9
sg10
F855.0
sg11
VKALINADI
p4921
sg13
I2015
sg14
g15
sg16
g17
sg18
g19
sg20
g9
sg21
g4917
sg22
F3239.1429000000003
sg23
g2
(g24
g4
Ntp4922
Rp4923
(dp4924
g28
F0.0
sg29
g30
sg31
F0.0
sbsg32
g33
((lp4925
g49
atp4926
Rp4927
sg38
g9
sg39
I2015
sbsVIND0000163
p4928
g2
(g3
g4
Ntp4929
Rp4930
(dp4931
g8
g9
sg10
F100.0
sg11
VKALINADI SUPA
p4932
sg13
I2015
sg14
g15
sg16
g17
sg18
g19
sg20
g9
sg21
g4928
sg22
F451.0534
sg23
g2
(g24
g4
Ntp4933
Rp4934
(dp4935
g28
F0.0
sg29
g30
sg31
F0.0
sbsg32
g33
((lp4936
g49
atp4937
Rp4938
sg38
g9
sg39
I2015
sbsVIND0000164
p4939
g2
(g3
g4
Ntp4940
Rp4941
(dp4942
g8
g9
sg10
F600.0
sg11
VKALISINDH
p4943
sg13
I2015
sg14
g15
sg16
g17
sg18
g19
sg20
g9
sg21
g4939
sg22
F1154.342
sg23
g2
(g24
g4
Ntp4944
Rp4945
(dp4946
g28
F0.0
sg29
g30
sg31
F0.0
sbsg32
g33
((lp4947
g61
ag62
atp4948
Rp4949
sg38
g9
sg39
I2015
sbsVIND0000165
p4950
g2
(g3
g4
Ntp4951
Rp4952
(dp4953
g8
g9
sg10
F15.0
sg11
VKALLADA
p4954
sg13
I2015
sg14
g15
sg16
g17
sg18
g19
sg20
g9
sg21
g4950
sg22
F0.0
sg23
g2
(g24
g4
Ntp4955
Rp4956
(dp4957
g28
F0.0
sg29
g30
sg31
F0.0
sbsg32
g33
((lp4958
g49
atp4959
Rp4960
sg38
g9
sg39
I2015
sbsVIND0000166
p4961
g2
(g3
g4
Ntp4962
Rp4963
(dp4964
g8
g9
sg10
F1050.0
sg11
VKAMALANGA
p4965
sg13
I2015
sg14
g15
sg16
g17
sg18
g19
sg20
g9
sg21
g4961
sg22
F4436.7
sg23
g2
(g24
g4
Ntp4966
Rp4967
(dp4968
g28
F0.0
sg29
g30
sg31
F0.0
sbsg32
g33
((lp4969
g61
ag62
atp4970
Rp4971
sg38
g9
sg39
I2015
sbsVIND0000167
p4972
g2
(g3
g4
Ntp4973
Rp4974
(dp4975
g8
g9
sg10
F4.0
sg11
VKANHER
p4976
sg13
I2015
sg14
g15
sg16
g17
sg18
g19
sg20
g9
sg21
g4972
sg22
F0.0
sg23
g2
(g24
g4
Ntp4977
Rp4978
(dp4979
g28
F0.0
sg29
g30
sg31
F0.0
sbsg32
g33
((lp4980
g49
atp4981
Rp4982
sg38
g9
sg39
I2015
sbsVIND0000003
p4983
g2
(g3
g4
Ntp4984
Rp4985
(dp4986
g8
g9
sg10
F250.0
sg11
VAKRIMOTA LIG
p4987
sg13
I2015
sg14
g15
sg16
g17
sg18
g19
sg20
g9
sg21
g4983
sg22
F1153.421
sg23
g2
(g24
g4
Ntp4988
Rp4989
(dp4990
g28
F0.0
sg29
g30
sg31
F0.0
sbsg32
g33
((lp4991
g61
ag62
atp4992
Rp4993
sg38
g9
sg39
I2015
sbsVIND0000002
p4994
g2
(g3
g4
Ntp4995
Rp4996
(dp4997
g8
g9
sg10
F1200.0
sg11
VAKALTARA TPP
p4998
sg13
I2015
sg14
g15
sg16
g17
sg18
g19
sg20
g9
sg21
g4994
sg22
F3035.55
sg23
g2
(g24
g4
Ntp4999
Rp5000
(dp5001
g28
F0.0
sg29
g30
sg31
F0.0
sbsg32
g33
((lp5002
g61
ag62
atp5003
Rp5004
sg38
g9
sg39
I2015
sbsVIND0000001
p5005
g2
(g3
g4
Ntp5006
Rp5007
(dp5008
g8
g9
sg10
F109.5
sg11
VAGARTALA GT
p5009
sg13
I2015
sg14
g15
sg16
g17
sg18
g19
sg20
g9
sg21
g5005
sg22
F617.789264
sg23
g2
(g24
g4
Ntp5010
Rp5011
(dp5012
g28
F0.0
sg29
g30
sg31
F0.0
sbsg32
g33
((lp5013
g35
atp5014
Rp5015
sg38
g9
sg39
I2015
sbsVIND0000369
p5016
g2
(g3
g4
Ntp5017
Rp5018
(dp5019
g8
g9
sg10
F600.0
sg11
VSAGARDIGHI TPP
p5020
sg13
I2015
sg14
g15
sg16
g17
sg18
g19
sg20
g9
sg21
g5016
sg22
F3628.781
sg23
g2
(g24
g4
Ntp5021
Rp5022
(dp5023
g28
F0.0
sg29
g30
sg31
F0.0
sbsg32
g33
((lp5024
g61
ag62
atp5025
Rp5026
sg38
g9
sg39
I2015
sbsVIND0000007
p5027
g2
(g3
g4
Ntp5028
Rp5029
(dp5030
g8
g9
sg10
F450.0
sg11
VAMAR KANTAK
p5031
sg13
I2015
sg14
g15
sg16
g17
sg18
g19
sg20
g9
sg21
g5027
sg22
F1887.904
sg23
g2
(g24
g4
Ntp5032
Rp5033
(dp5034
g28
F0.0
sg29
g30
sg31
F0.0
sbsg32
g33
((lp5035
g61
ag62
atp5036
Rp5037
sg38
g9
sg39
I2015
sbsVIND0000006
p5038
g2
(g3
g4
Ntp5039
Rp5040
(dp5041
g8
g9
sg10
F290.0
sg11
VALMATTI DAM
p5042
sg13
I2015
sg14
g15
sg16
g17
sg18
g19
sg20
g9
sg21
g5038
sg22
F480.59495
sg23
g2
(g24
g4
Ntp5043
Rp5044
(dp5045
g28
F0.0
sg29
g30
sg31
F0.0
sbsg32
g33
((lp5046
g49
atp5047
Rp5048
sg38
g9
sg39
I2015
sbsVIND0000005
p5049
g2
(g3
g4
Ntp5050
Rp5051
(dp5052
g8
g9
sg10
F192.0
sg11
VALLAIN DUHANGAN
p5053
sg13
I2015
sg14
g15
sg16
g17
sg18
g19
sg20
g9
sg21
g5049
sg22
F674.3910999999999
sg23
g2
(g24
g4
Ntp5054
Rp5055
(dp5056
g28
F0.0
sg29
g30
sg31
F0.0
sbsg32
g33
((lp5057
g49
atp5058
Rp5059
sg38
g9
sg39
I2015
sbsVIND0000004
p5060
g2
(g3
g4
Ntp5061
Rp5062
(dp5063
g8
g9
sg10
F60.0
sg11
VALIYAR
p5064
sg13
I2015
sg14
g15
sg16
g17
sg18
g19
sg20
g9
sg21
g5060
sg22
F157.55825
sg23
g2
(g24
g4
Ntp5065
Rp5066
(dp5067
g28
F0.0
sg29
g30
sg31
F0.0
sbsg32
g33
((lp5068
g49
atp5069
Rp5070
sg38
g9
sg39
I2015
sbsVIND0000362
p5071
g2
(g3
g4
Ntp5072
Rp5073
(dp5074
g8
g9
sg10
F6.0
sg11
VRMC MANGROL
p5075
sg13
I2015
sg14
g15
sg16
g17
sg18
g19
sg20
g9
sg21
g5071
sg22
F0.0
sg23
g2
(g24
g4
Ntp5076
Rp5077
(dp5078
g28
F0.0
sg29
g30
sg31
F0.0
sbsg32
g33
((lp5079
g49
atp5080
Rp5081
sg38
g9
sg39
I2015
sbsVIND0000363
p5082
g2
(g3
g4
Ntp5083
Rp5084
(dp5085
g8
g9
sg10
F95.0
sg11
VROKHIA GT
p5086
sg13
I2015
sg14
g15
sg16
g17
sg18
g19
sg20
g9
sg21
g5082
sg22
F416.23
sg23
g2
(g24
g4
Ntp5087
Rp5088
(dp5089
g28
F0.0
sg29
g30
sg31
F0.0
sbsg32
g33
((lp5090
g35
atp5091
Rp5092
sg38
g9
sg39
I2015
sbsVIND0000009
p5093
g2
(g3
g4
Ntp5094
Rp5095
(dp5096
g8
g9
sg10
F134.0
sg11
VANANDPUR SAHIB ST-I&II
p5097
sg13
I2015
sg14
g15
sg16
g17
sg18
g19
sg20
g9
sg21
g5093
sg22
F614.4125
sg23
g2
(g24
g4
Ntp5098
Rp5099
(dp5100
g28
F0.0
sg29
g30
sg31
F0.0
sbsg32
g33
((lp5101
g49
atp5102
Rp5103
sg38
g9
sg39
I2015
sbsVIND0000008
p5104
g2
(g3
g4
Ntp5105
Rp5106
(dp5107
g8
g9
sg10
F1350.0
sg11
VAMARAVATI TPP
p5108
sg13
I2015
sg14
g15
sg16
g17
sg18
g19
sg20
g9
sg21
g5104
sg22
F1920.971
sg23
g2
(g24
g4
Ntp5109
Rp5110
(dp5111
g28
F0.0
sg29
g30
sg31
F0.0
sbsg32
g33
((lp5112
g61
ag62
atp5113
Rp5114
sg38
g9
sg39
I2015
sbsVIND0000366
p5115
g2
(g3
g4
Ntp5116
Rp5117
(dp5118
g8
g9
sg10
F250.0
sg11
VS.SAROVAR CHPH
p5119
sg13
I2015
sg14
g15
sg16
g17
sg18
g19
sg20
g9
sg21
g5115
sg22
F608.6116499999999
sg23
g2
(g24
g4
Ntp5120
Rp5121
(dp5122
g28
F0.0
sg29
g30
sg31
F0.0
sbsg32
g33
((lp5123
g49
atp5124
Rp5125
sg38
g9
sg39
I2015
sbsVIND0000367
p5126
g2
(g3
g4
Ntp5127
Rp5128
(dp5129
g8
g9
sg10
F1200.0
sg11
VS.SAROVAR RBPH
p5130
sg13
I2015
sg14
g15
sg16
g17
sg18
g19
sg20
g9
sg21
g5126
sg22
F2286.26125
sg23
g2
(g24
g4
Ntp5131
Rp5132
(dp5133
g28
F0.0
sg29
g30
sg31
F0.0
sbsg32
g33
((lp5134
g49
atp5135
Rp5136
sg38
g9
sg39
I2015
sbsVIND0000364
p5137
g2
(g3
g4
Ntp5138
Rp5139
(dp5140
g8
g9
sg10
F1260.0
sg11
VROPAR
p5141
sg13
I2015
sg14
g15
sg16
g17
sg18
g19
sg20
g9
sg21
g5137
sg22
F5260.71
sg23
g2
(g24
g4
Ntp5142
Rp5143
(dp5144
g28
F0.0
sg29
g30
sg31
F0.0
sbsg32
g33
((lp5145
g61
ag62
atp5146
Rp5147
sg38
g9
sg39
I2015
sbsVIND0000365
p5148
g2
(g3
g4
Ntp5149
Rp5150
(dp5151
g8
g9
sg10
F1200.0
sg11
VROSA TPP PH - 1
p5152
sg13
I2015
sg14
g15
sg16
g17
sg18
g19
sg20
g9
sg21
g5148
sg22
F7847.42
sg23
g2
(g24
g4
Ntp5153
Rp5154
(dp5155
g28
F0.0
sg29
g30
sg31
F0.0
sbsg32
g33
((lp5156
g61
ag62
atp5157
Rp5158
sg38
g9
sg39
I2015
sbsVIND0000348
p5159
g2
(g3
g4
Ntp5160
Rp5161
(dp5162
g8
g9
sg10
F270.5
sg11
VRAMGARH GT
p5163
sg13
I2015
sg14
g15
sg16
g17
sg18
g19
sg20
g9
sg21
g5159
sg22
F1153.89723
sg23
g2
(g24
g4
Ntp5164
Rp5165
(dp5166
g28
F0.0
sg29
g30
sg31
F0.0
sbsg32
g33
((lp5167
g62
ag35
atp5168
Rp5169
sg38
g9
sg39
I2015
sbsVIND0000349
p5170
g2
(g3
g4
Ntp5171
Rp5172
(dp5173
g8
g9
sg10
F50.0
sg11
VRAMMAM
p5174
sg13
I2015
sg14
g15
sg16
g17
sg18
g19
sg20
g9
sg21
g5170
sg22
F236.16325
sg23
g2
(g24
g4
Ntp5175
Rp5176
(dp5177
g28
F0.0
sg29
g30
sg31
F0.0
sbsg32
g33
((lp5178
g49
atp5179
Rp5180
sg38
g9
sg39
I2015
sbsVIND0000267
p5181
g2
(g3
g4
Ntp5182
Rp5183
(dp5184
g8
g9
sg10
F415.0
sg11
VMUZAFFARPUR
p5185
sg13
I2015
sg14
g15
sg16
g17
sg18
g19
sg20
g9
sg21
g5181
sg22
F766.26
sg23
g2
(g24
g4
Ntp5186
Rp5187
(dp5188
g28
F0.0
sg29
g30
sg31
F0.0
sbsg32
g33
((lp5189
g61
ag62
atp5190
Rp5191
sg38
g9
sg39
I2015
sbsVIND0000266
p5192
g2
(g3
g4
Ntp5193
Rp5194
(dp5195
g8
g9
sg10
F28.3
sg11
VMUNIRABAD
p5196
sg13
I2015
sg14
g15
sg16
g17
sg18
g19
sg20
g9
sg21
g5192
sg22
F106.664
sg23
g2
(g24
g4
Ntp5197
Rp5198
(dp5199
g28
F0.0
sg29
g30
sg31
F0.0
sbsg32
g33
((lp5200
g49
atp5201
Rp5202
sg38
g9
sg39
I2015
sbsVIND0000265
p5203
g2
(g3
g4
Ntp5204
Rp5205
(dp5206
g8
g9
sg10
F4000.0
sg11
VMUNDRA UMPP
p5207
sg13
I2015
sg14
g15
sg16
g17
sg18
g19
sg20
g9
sg21
g5203
sg22
F24501.0
sg23
g2
(g24
g4
Ntp5208
Rp5209
(dp5210
g28
F0.0
sg29
g30
sg31
F0.0
sbsg32
g33
((lp5211
g61
ag62
atp5212
Rp5213
sg38
g9
sg39
I2015
sbsVIND0000264
p5214
g2
(g3
g4
Ntp5215
Rp5216
(dp5217
g8
g9
sg10
F4620.0
sg11
VMUNDRA TPP
p5218
sg13
I2015
sg14
g15
sg16
g17
sg18
g19
sg20
g9
sg21
g5214
sg22
F28127.0
sg23
g2
(g24
g4
Ntp5219
Rp5220
(dp5221
g28
F0.0
sg29
g30
sg31
F0.0
sbsg32
g33
((lp5222
g61
ag62
atp5223
Rp5224
sg38
g9
sg39
I2015
sbsVIND0000263
p5225
g2
(g3
g4
Ntp5226
Rp5227
(dp5228
g8
g9
sg10
F0.0
sg11
VMULAJORE
p5229
sg13
I2015
sg14
g15
sg16
g17
sg18
g19
sg20
g9
sg21
g5225
sg22
F0.0
sg23
g2
(g24
g4
Ntp5230
Rp5231
(dp5232
g28
F0.0
sg29
g30
sg31
F0.0
sbsg32
g33
((lp5233
g61
ag62
atp5234
Rp5235
sg38
g9
sg39
I2015
sbsVIND0000262
p5236
g2
(g3
g4
Ntp5237
Rp5238
(dp5239
g8
g9
sg10
F207.0
sg11
VMUKERIAN I -IV
p5240
sg13
I2015
sg14
g15
sg16
g17
sg18
g19
sg20
g9
sg21
g5236
sg22
F1045.69525
sg23
g2
(g24
g4
Ntp5241
Rp5242
(dp5243
g28
F0.0
sg29
g30
sg31
F0.0
sbsg32
g33
((lp5244
g49
atp5245
Rp5246
sg38
g9
sg39
I2015
sbsVIND0000261
p5247
g2
(g3
g4
Ntp5248
Rp5249
(dp5250
g8
g9
sg10
F36.0
sg11
VMOYAR
p5251
sg13
I2015
sg14
g15
sg16
g17
sg18
g19
sg20
g9
sg21
g5247
sg22
F144.00635
sg23
g2
(g24
g4
Ntp5252
Rp5253
(dp5254
g28
F0.0
sg29
g30
sg31
F0.0
sbsg32
g33
((lp5255
g49
atp5256
Rp5257
sg38
g9
sg39
I2015
sbsVIND0000260
p5258
g2
(g3
g4
Ntp5259
Rp5260
(dp5261
g8
g9
sg10
F4.0
sg11
VMOYAGCHU
p5262
sg13
I2015
sg14
g15
sg16
g17
sg18
g19
sg20
g9
sg21
g5258
sg22
F0.0
sg23
g2
(g24
g4
Ntp5263
Rp5264
(dp5265
g28
F0.0
sg29
g30
sg31
F0.0
sbsg32
g33
((lp5266
g49
atp5267
Rp5268
sg38
g9
sg39
I2015
sbsVIND0000269
p5269
g2
(g3
g4
Ntp5270
Rp5271
(dp5272
g8
g9
sg10
F440.0
sg11
VN.A.P.S
p5273
sg13
I2015
sg14
g15
sg16
g17
sg18
g19
sg20
g9
sg21
g5269
sg22
F2539.0
sg23
g2
(g24
g4
Ntp5274
Rp5275
(dp5276
g28
F0.0
sg29
g30
sg31
F0.0
sbsg32
g33
((lp5277
g690
atp5278
Rp5279
sg38
g9
sg39
I2015
sbsVIND0000268
p5280
g2
(g3
g4
Ntp5281
Rp5282
(dp5283
g8
g9
sg10
F126.0
sg11
VMYNTDU
p5284
sg13
I2015
sg14
g15
sg16
g17
sg18
g19
sg20
g9
sg21
g5280
sg22
F406.93510000000003
sg23
g2
(g24
g4
Ntp5285
Rp5286
(dp5287
g28
F0.0
sg29
g30
sg31
F0.0
sbsg32
g33
((lp5288
g49
atp5289
Rp5290
sg38
g9
sg39
I2015
sbsVIND0000461
p5291
g2
(g3
g4
Ntp5292
Rp5293
(dp5294
g8
g9
sg10
F240.0
sg11
VUPPER SILERU I&II
p5295
sg13
I2015
sg14
g15
sg16
g17
sg18
g19
sg20
g9
sg21
g5291
sg22
F519.85765
sg23
g2
(g24
g4
Ntp5296
Rp5297
(dp5298
g28
F0.0
sg29
g30
sg31
F0.0
sbsg32
g33
((lp5299
g49
atp5300
Rp5301
sg38
g9
sg39
I2015
sbsVIND0000460
p5302
g2
(g3
g4
Ntp5303
Rp5304
(dp5305
g8
g9
sg10
F320.0
sg11
VUPPER KOLAB
p5306
sg13
I2015
sg14
g15
sg16
g17
sg18
g19
sg20
g9
sg21
g5302
sg22
F730.8076
sg23
g2
(g24
g4
Ntp5307
Rp5308
(dp5309
g28
F0.0
sg29
g30
sg31
F0.0
sbsg32
g33
((lp5310
g49
atp5311
Rp5312
sg38
g9
sg39
I2015
sbsVIND0000463
p5313
g2
(g3
g4
Ntp5314
Rp5315
(dp5316
g8
g9
sg10
F672.0
sg11
VURAN GT
p5317
sg13
I2015
sg14
g15
sg16
g17
sg18
g19
sg20
g9
sg21
g5313
sg22
F3393.009
sg23
g2
(g24
g4
Ntp5318
Rp5319
(dp5320
g28
F0.0
sg29
g30
sg31
F0.0
sbsg32
g33
((lp5321
g35
atp5322
Rp5323
sg38
g9
sg39
I2015
sbsVIND0000462
p5324
g2
(g3
g4
Ntp5325
Rp5326
(dp5327
g8
g9
sg10
F127.6
sg11
VUPPER SINDH I& II
p5328
sg13
I2015
sg14
g15
sg16
g17
sg18
g19
sg20
g9
sg21
g5324
sg22
F301.8034
sg23
g2
(g24
g4
Ntp5329
Rp5330
(dp5331
g28
F0.0
sg29
g30
sg31
F0.0
sbsg32
g33
((lp5332
g49
atp5333
Rp5334
sg38
g9
sg39
I2015
sbsVIND0000465
p5335
g2
(g3
g4
Ntp5336
Rp5337
(dp5338
g8
g9
sg10
F240.0
sg11
VURI -II
p5339
sg13
I2015
sg14
g15
sg16
g17
sg18
g19
sg20
g9
sg21
g5335
sg22
F1182.2391
sg23
g2
(g24
g4
Ntp5340
Rp5341
(dp5342
g28
F0.0
sg29
g30
sg31
F0.0
sbsg32
g33
((lp5343
g49
atp5344
Rp5345
sg38
g9
sg39
I2015
sbsVIND0000464
p5346
g2
(g3
g4
Ntp5347
Rp5348
(dp5349
g8
g9
sg10
F480.0
sg11
VURI
p5350
sg13
I2015
sg14
g15
sg16
g17
sg18
g19
sg20
g9
sg21
g5346
sg22
F3061.2369
sg23
g2
(g24
g4
Ntp5351
Rp5352
(dp5353
g28
F0.0
sg29
g30
sg31
F0.0
sbsg32
g33
((lp5354
g49
atp5355
Rp5356
sg38
g9
sg39
I2015
sbsVIND0000467
p5357
g2
(g3
g4
Ntp5358
Rp5359
(dp5360
g8
g9
sg10
F374.571
sg11
VUTRAN CCCP EXT
p5361
sg13
I2015
sg14
g15
sg16
g17
sg18
g19
sg20
g9
sg21
g5357
sg22
F129.215
sg23
g2
(g24
g4
Ntp5362
Rp5363
(dp5364
g28
F0.0
sg29
g30
sg31
F0.0
sbsg32
g33
((lp5365
g35
atp5366
Rp5367
sg38
g9
sg39
I2015
sbsVIND0000466
p5368
g2
(g3
g4
Ntp5369
Rp5370
(dp5371
g8
g9
sg10
F3.75
sg11
VURUMI
p5372
sg13
I2015
sg14
g15
sg16
g17
sg18
g19
sg20
g9
sg21
g5368
sg22
F0.0
sg23
g2
(g24
g4
Ntp5373
Rp5374
(dp5375
g28
F0.0
sg29
g30
sg31
F0.0
sbsg32
g33
((lp5376
g49
atp5377
Rp5378
sg38
g9
sg39
I2015
sbsVIND0000469
p5379
g2
(g3
g4
Ntp5380
Rp5381
(dp5382
g8
g9
sg10
F90.0
sg11
VUTRAULA TPP
p5383
sg13
I2015
sg14
g15
sg16
g17
sg18
g19
sg20
g9
sg21
g5379
sg22
F485.62
sg23
g2
(g24
g4
Ntp5384
Rp5385
(dp5386
g28
F0.0
sg29
g30
sg31
F0.0
sbsg32
g33
((lp5387
g61
ag62
atp5388
Rp5389
sg38
g9
sg39
I2015
sbsVIND0000069
p5390
g2
(g3
g4
Ntp5391
Rp5392
(dp5393
g8
g9
sg10
F231.0
sg11
VCHAMERA-III
p5394
sg13
I2015
sg14
g15
sg16
g17
sg18
g19
sg20
g9
sg21
g5390
sg22
F1015.6761
sg23
g2
(g24
g4
Ntp5395
Rp5396
(dp5397
g28
F0.0
sg29
g30
sg31
F0.0
sbsg32
g33
((lp5398
g49
atp5399
Rp5400
sg38
g9
sg39
I2015
sbsVIND0000068
p5401
g2
(g3
g4
Ntp5402
Rp5403
(dp5404
g8
g9
sg10
F540.0
sg11
VCHAMERA-I
p5405
sg13
I2015
sg14
g15
sg16
g17
sg18
g19
sg20
g9
sg21
g5401
sg22
F2539.041
sg23
g2
(g24
g4
Ntp5406
Rp5407
(dp5408
g28
F0.0
sg29
g30
sg31
F0.0
sbsg32
g33
((lp5409
g49
atp5410
Rp5411
sg38
g9
sg39
I2015
sbs.