(dp0
VYEM0000039
p1
ccopy_reg
_reconstructor
p2
(cpowerwatch
PowerPlant
p3
c__builtin__
object
p4
Ntp5
Rp6
(dp7
S'coord_source'
p8
V
p9
sS'capacity'
p10
F12.4
sS'name'
p11
VSyaon2
p12
sS'gen_year'
p13
NsS'source'
p14
S'http://www.auptde.org/Article_Files/Manual%20Of%20Power%20Stations2016.xls'
p15
sS'url'
p16
g9
sS'country'
p17
VYemen
p18
sS'nat_lang'
p19
g9
sS'idnr'
p20
g1
sS'generation'
p21
NsS'location'
p22
g2
(cpowerwatch
LocationObject
p23
g4
Ntp24
Rp25
(dp26
S'latitude'
p27
F0.0
sS'description'
p28
g9
sS'longitude'
p29
F0.0
sbsS'fuel'
p30
c__builtin__
set
p31
((lp32
VOil
p33
atp34
Rp35
sS'owner'
p36
g9
sS'cap_year'
p37
NsbsVYEM0000033
p38
g2
(g3
g4
Ntp39
Rp40
(dp41
g8
g9
sg10
F5.2
sg11
VShehr
p42
sg13
Nsg14
g15
sg16
g9
sg17
VYemen
p43
sg19
g9
sg20
g38
sg21
Nsg22
g2
(g23
g4
Ntp44
Rp45
(dp46
g27
F0.0
sg28
g9
sg29
F0.0
sbsg30
g31
((lp47
g33
atp48
Rp49
sg36
g9
sg37
NsbsVYEM0000007
p50
g2
(g3
g4
Ntp51
Rp52
(dp53
g8
g9
sg10
F7.5
sg11
VTaiz
p54
sg13
Nsg14
g15
sg16
g9
sg17
VYemen
p55
sg19
g9
sg20
g50
sg21
Nsg22
g2
(g23
g4
Ntp56
Rp57
(dp58
g27
F0.0
sg28
g9
sg29
F0.0
sbsg30
g31
((lp59
g33
atp60
Rp61
sg36
g9
sg37
NsbsVYEM0000011
p62
g2
(g3
g4
Ntp63
Rp64
(dp65
g8
g9
sg10
F9.0
sg11
VAl Hali
p66
sg13
Nsg14
g15
sg16
g9
sg17
VYemen
p67
sg19
g9
sg20
g62
sg21
Nsg22
g2
(g23
g4
Ntp68
Rp69
(dp70
g27
F0.0
sg28
g9
sg29
F0.0
sbsg30
g31
((lp71
g33
atp72
Rp73
sg36
g9
sg37
NsbsVYEM0000004
p74
g2
(g3
g4
Ntp75
Rp76
(dp77
g8
g9
sg10
F10.0
sg11
VHizeaz ( 3 )
p78
sg13
Nsg14
g15
sg16
g9
sg17
VYemen
p79
sg19
g9
sg20
g74
sg21
Nsg22
g2
(g23
g4
Ntp80
Rp81
(dp82
g27
F0.0
sg28
g9
sg29
F0.0
sbsg30
g31
((lp83
g33
atp84
Rp85
sg36
g9
sg37
NsbsVYEM0000014
p86
g2
(g3
g4
Ntp87
Rp88
(dp89
g8
g9
sg10
F2.0
sg11
VAl kornish
p90
sg13
Nsg14
g15
sg16
g9
sg17
VYemen
p91
sg19
g9
sg20
g86
sg21
Nsg22
g2
(g23
g4
Ntp92
Rp93
(dp94
g27
F0.0
sg28
g9
sg29
F0.0
sbsg30
g31
((lp95
g33
atp96
Rp97
sg36
g9
sg37
NsbsVYEM0000017
p98
g2
(g3
g4
Ntp99
Rp100
(dp101
g8
g9
sg10
F11.0
sg11
VSana'a
p102
sg13
Nsg14
g15
sg16
g9
sg17
VYemen
p103
sg19
g9
sg20
g98
sg21
Nsg22
g2
(g23
g4
Ntp104
Rp105
(dp106
g27
F0.0
sg28
g9
sg29
F0.0
sbsg30
g31
((lp107
g33
atp108
Rp109
sg36
g9
sg37
NsbsVYEM0000036
p110
g2
(g3
g4
Ntp111
Rp112
(dp113
g8
g9
sg10
F13.0
sg11
VSyaon1
p114
sg13
Nsg14
g15
sg16
g9
sg17
VYemen
p115
sg19
g9
sg20
g110
sg21
Nsg22
g2
(g23
g4
Ntp116
Rp117
(dp118
g27
F0.0
sg28
g9
sg29
F0.0
sbsg30
g31
((lp119
g33
atp120
Rp121
sg36
g9
sg37
NsbsVYEM0000024
p122
g2
(g3
g4
Ntp123
Rp124
(dp125
g8
g9
sg10
F10.0
sg11
VRyan
p126
sg13
Nsg14
g15
sg16
g9
sg17
VYemen
p127
sg19
g9
sg20
g122
sg21
Nsg22
g2
(g23
g4
Ntp128
Rp129
(dp130
g27
F0.0
sg28
g9
sg29
F0.0
sbsg30
g31
((lp131
g33
atp132
Rp133
sg36
g9
sg37
NsbsVYEM0000027
p134
g2
(g3
g4
Ntp135
Rp136
(dp137
g8
g9
sg10
F6.4
sg11
VKHULF
p138
sg13
Nsg14
g15
sg16
g9
sg17
VYemen
p139
sg19
g9
sg20
g134
sg21
Nsg22
g2
(g23
g4
Ntp140
Rp141
(dp142
g27
F0.0
sg28
g9
sg29
F0.0
sbsg30
g31
((lp143
g33
atp144
Rp145
sg36
g9
sg37
NsbsVYEM0000020
p146
g2
(g3
g4
Ntp147
Rp148
(dp149
g8
g9
sg10
F6.2
sg11
VJear
p150
sg13
Nsg14
g15
sg16
g9
sg17
VYemen
p151
sg19
g9
sg20
g146
sg21
Nsg22
g2
(g23
g4
Ntp152
Rp153
(dp154
g27
F0.0
sg28
g9
sg29
F0.0
sbsg30
g31
((lp155
g33
atp156
Rp157
sg36
g9
sg37
NsbsVYEM0000030
p158
g2
(g3
g4
Ntp159
Rp160
(dp161
g8
g9
sg10
F6.0
sg11
VMonawrh
p162
sg13
Nsg14
g15
sg16
g9
sg17
VYemen
p163
sg19
g9
sg20
g158
sg21
Nsg22
g2
(g23
g4
Ntp164
Rp165
(dp166
g27
F0.0
sg28
g9
sg29
F0.0
sbsg30
g31
((lp167
g33
atp168
Rp169
sg36
g9
sg37
Nsbs.