(dp0
VYEM0000039
p1
ccopy_reg
_reconstructor
p2
(cpowerwatch
PowerPlant
p3
c__builtin__
object
p4
Ntp5
Rp6
(dp7
S'coord_source'
p8
V
p9
sS'capacity'
p10
F12.4
sS'name'
p11
VSyaon2
p12
sS'source'
p13
Vhttp://www.auptde.org/Article_Files/Manual%20Of%20Power%20Stations2016.xls
p14
sS'url'
p15
g9
sS'country'
p16
VYemen
p17
sS'nat_lang'
p18
g9
sS'idnr'
p19
g1
sS'generation'
p20
(lp21
g2
(cpowerwatch
PlantGenerationObject
p22
g4
Ntp23
Rp24
(dp25
g13
NsS'gwh'
p26
NsS'end_date'
p27
NsS'start_date'
p28
NsbasS'location'
p29
g2
(cpowerwatch
LocationObject
p30
g4
Ntp31
Rp32
(dp33
S'latitude'
p34
F0.0
sS'description'
p35
g9
sS'longitude'
p36
F0.0
sbsS'fuel'
p37
c__builtin__
set
p38
((lp39
VOil
p40
atp41
Rp42
sS'owner'
p43
g9
sS'cap_year'
p44
NsbsVYEM0000033
p45
g2
(g3
g4
Ntp46
Rp47
(dp48
g8
g9
sg10
F5.2
sg11
VShehr
p49
sg13
Vhttp://www.auptde.org/Article_Files/Manual%20Of%20Power%20Stations2016.xls
p50
sg15
g9
sg16
VYemen
p51
sg18
g9
sg19
g45
sg20
(lp52
g2
(g22
g4
Ntp53
Rp54
(dp55
g13
Nsg26
Nsg27
Nsg28
Nsbasg29
g2
(g30
g4
Ntp56
Rp57
(dp58
g34
F0.0
sg35
g9
sg36
F0.0
sbsg37
g38
((lp59
g40
atp60
Rp61
sg43
g9
sg44
NsbsVYEM0000007
p62
g2
(g3
g4
Ntp63
Rp64
(dp65
g8
g9
sg10
F7.5
sg11
VTaiz
p66
sg13
Vhttp://www.auptde.org/Article_Files/Manual%20Of%20Power%20Stations2016.xls
p67
sg15
g9
sg16
VYemen
p68
sg18
g9
sg19
g62
sg20
(lp69
g2
(g22
g4
Ntp70
Rp71
(dp72
g13
Nsg26
Nsg27
Nsg28
Nsbasg29
g2
(g30
g4
Ntp73
Rp74
(dp75
g34
F0.0
sg35
g9
sg36
F0.0
sbsg37
g38
((lp76
g40
atp77
Rp78
sg43
g9
sg44
NsbsVYEM0000011
p79
g2
(g3
g4
Ntp80
Rp81
(dp82
g8
g9
sg10
F9.0
sg11
VAl Hali
p83
sg13
Vhttp://www.auptde.org/Article_Files/Manual%20Of%20Power%20Stations2016.xls
p84
sg15
g9
sg16
VYemen
p85
sg18
g9
sg19
g79
sg20
(lp86
g2
(g22
g4
Ntp87
Rp88
(dp89
g13
Nsg26
Nsg27
Nsg28
Nsbasg29
g2
(g30
g4
Ntp90
Rp91
(dp92
g34
F0.0
sg35
g9
sg36
F0.0
sbsg37
g38
((lp93
g40
atp94
Rp95
sg43
g9
sg44
NsbsVYEM0000004
p96
g2
(g3
g4
Ntp97
Rp98
(dp99
g8
g9
sg10
F10.0
sg11
VHizeaz ( 3 )
p100
sg13
Vhttp://www.auptde.org/Article_Files/Manual%20Of%20Power%20Stations2016.xls
p101
sg15
g9
sg16
VYemen
p102
sg18
g9
sg19
g96
sg20
(lp103
g2
(g22
g4
Ntp104
Rp105
(dp106
g13
Nsg26
Nsg27
Nsg28
Nsbasg29
g2
(g30
g4
Ntp107
Rp108
(dp109
g34
F0.0
sg35
g9
sg36
F0.0
sbsg37
g38
((lp110
g40
atp111
Rp112
sg43
g9
sg44
NsbsVYEM0000014
p113
g2
(g3
g4
Ntp114
Rp115
(dp116
g8
g9
sg10
F2.0
sg11
VAl kornish
p117
sg13
Vhttp://www.auptde.org/Article_Files/Manual%20Of%20Power%20Stations2016.xls
p118
sg15
g9
sg16
VYemen
p119
sg18
g9
sg19
g113
sg20
(lp120
g2
(g22
g4
Ntp121
Rp122
(dp123
g13
Nsg26
Nsg27
Nsg28
Nsbasg29
g2
(g30
g4
Ntp124
Rp125
(dp126
g34
F0.0
sg35
g9
sg36
F0.0
sbsg37
g38
((lp127
g40
atp128
Rp129
sg43
g9
sg44
NsbsVYEM0000017
p130
g2
(g3
g4
Ntp131
Rp132
(dp133
g8
g9
sg10
F11.0
sg11
VSana'a
p134
sg13
Vhttp://www.auptde.org/Article_Files/Manual%20Of%20Power%20Stations2016.xls
p135
sg15
g9
sg16
VYemen
p136
sg18
g9
sg19
g130
sg20
(lp137
g2
(g22
g4
Ntp138
Rp139
(dp140
g13
Nsg26
Nsg27
Nsg28
Nsbasg29
g2
(g30
g4
Ntp141
Rp142
(dp143
g34
F0.0
sg35
g9
sg36
F0.0
sbsg37
g38
((lp144
g40
atp145
Rp146
sg43
g9
sg44
NsbsVYEM0000036
p147
g2
(g3
g4
Ntp148
Rp149
(dp150
g8
g9
sg10
F13.0
sg11
VSyaon1
p151
sg13
Vhttp://www.auptde.org/Article_Files/Manual%20Of%20Power%20Stations2016.xls
p152
sg15
g9
sg16
VYemen
p153
sg18
g9
sg19
g147
sg20
(lp154
g2
(g22
g4
Ntp155
Rp156
(dp157
g13
Nsg26
Nsg27
Nsg28
Nsbasg29
g2
(g30
g4
Ntp158
Rp159
(dp160
g34
F0.0
sg35
g9
sg36
F0.0
sbsg37
g38
((lp161
g40
atp162
Rp163
sg43
g9
sg44
NsbsVYEM0000024
p164
g2
(g3
g4
Ntp165
Rp166
(dp167
g8
g9
sg10
F10.0
sg11
VRyan
p168
sg13
Vhttp://www.auptde.org/Article_Files/Manual%20Of%20Power%20Stations2016.xls
p169
sg15
g9
sg16
VYemen
p170
sg18
g9
sg19
g164
sg20
(lp171
g2
(g22
g4
Ntp172
Rp173
(dp174
g13
Nsg26
Nsg27
Nsg28
Nsbasg29
g2
(g30
g4
Ntp175
Rp176
(dp177
g34
F0.0
sg35
g9
sg36
F0.0
sbsg37
g38
((lp178
g40
atp179
Rp180
sg43
g9
sg44
NsbsVYEM0000027
p181
g2
(g3
g4
Ntp182
Rp183
(dp184
g8
g9
sg10
F6.4
sg11
VKHULF
p185
sg13
Vhttp://www.auptde.org/Article_Files/Manual%20Of%20Power%20Stations2016.xls
p186
sg15
g9
sg16
VYemen
p187
sg18
g9
sg19
g181
sg20
(lp188
g2
(g22
g4
Ntp189
Rp190
(dp191
g13
Nsg26
Nsg27
Nsg28
Nsbasg29
g2
(g30
g4
Ntp192
Rp193
(dp194
g34
F0.0
sg35
g9
sg36
F0.0
sbsg37
g38
((lp195
g40
atp196
Rp197
sg43
g9
sg44
NsbsVYEM0000020
p198
g2
(g3
g4
Ntp199
Rp200
(dp201
g8
g9
sg10
F6.2
sg11
VJear
p202
sg13
Vhttp://www.auptde.org/Article_Files/Manual%20Of%20Power%20Stations2016.xls
p203
sg15
g9
sg16
VYemen
p204
sg18
g9
sg19
g198
sg20
(lp205
g2
(g22
g4
Ntp206
Rp207
(dp208
g13
Nsg26
Nsg27
Nsg28
Nsbasg29
g2
(g30
g4
Ntp209
Rp210
(dp211
g34
F0.0
sg35
g9
sg36
F0.0
sbsg37
g38
((lp212
g40
atp213
Rp214
sg43
g9
sg44
NsbsVYEM0000030
p215
g2
(g3
g4
Ntp216
Rp217
(dp218
g8
g9
sg10
F6.0
sg11
VMonawrh
p219
sg13
Vhttp://www.auptde.org/Article_Files/Manual%20Of%20Power%20Stations2016.xls
p220
sg15
g9
sg16
VYemen
p221
sg18
g9
sg19
g215
sg20
(lp222
g2
(g22
g4
Ntp223
Rp224
(dp225
g13
Nsg26
Nsg27
Nsg28
Nsbasg29
g2
(g30
g4
Ntp226
Rp227
(dp228
g34
F0.0
sg35
g9
sg36
F0.0
sbsg37
g38
((lp229
g40
atp230
Rp231
sg43
g9
sg44
Nsbs.